 Lifter_server_mscv

 Timestamp is 5a17bef3 (Fri Nov 24 14:40:51 2017)

 Preferred load address is 00400000

 Start         Length     Name                   Class
 0001:00000000 00008ef0H .text$di                CODE
 0001:00008ef0 00057f80H .text$mn                CODE
 0001:00060e70 0000ea80H .text$x                 CODE
 0001:0006f8f0 000042b7H .text$yd                CODE
 0002:00000000 00000104H .CRT$XCA                DATA
 0002:00000104 00000104H .CRT$XCAA               DATA
 0002:00000208 00000590H .CRT$XCU                DATA
 0002:00000798 00000104H .CRT$XCZ                DATA
 0002:0000089c 00000104H .CRT$XIA                DATA
 0002:000009a0 00000104H .CRT$XIAA               DATA
 0002:00000aa4 00000104H .CRT$XIAC               DATA
 0002:00000ba8 00000104H .CRT$XIC                DATA
 0002:00000cac 00000104H .CRT$XIU                DATA
 0002:00000db0 00000104H .CRT$XIZ                DATA
 0002:00000eb4 00000004H .CRT$XLA                DATA
 0002:00000eb8 00000004H .CRT$XLC                DATA
 0002:00000ebc 00000004H .CRT$XLZ                DATA
 0002:00000ec0 00000104H .CRT$XPA                DATA
 0002:00000fc4 00000104H .CRT$XPZ                DATA
 0002:000010c8 00000104H .CRT$XTA                DATA
 0002:000011cc 00000104H .CRT$XTU                DATA
 0002:000012d0 00000110H .CRT$XTZ                DATA
 0002:000013e0 00005b90H .rdata                  DATA
 0002:00006f70 0000011cH .rdata$T                DATA
 0002:0000708c 000032c4H .rdata$r                DATA
 0002:0000a350 00000e54H .rdata$sxdata           DATA
 0002:0000b1a4 0000018cH .rdata$zzzdbg           DATA
 0002:0000b330 00000104H .rtc$IAA                DATA
 0002:0000b434 00000104H .rtc$IZZ                DATA
 0002:0000b538 00000104H .rtc$TAA                DATA
 0002:0000b63c 00000104H .rtc$TZZ                DATA
 0002:0000b740 0000e701H .xdata$x                DATA
 0002:00019e41 00000000H .edata                  DATA
 0003:00000000 00000400H .data                   DATA
 0003:00000400 00002550H .data$r                 DATA
 0003:00002950 00000a14H .bss                    DATA
 0004:00000000 00000eecH .idata$5                DATA
 0004:00000eec 0000017cH .idata$2                DATA
 0004:00001068 00000014H .idata$3                DATA
 0004:0000107c 00000eecH .idata$4                DATA
 0004:00001f68 000069d8H .idata$6                DATA
 0005:00000000 0000015bH .gfids$y                DATA
 0006:00000000 00000104H .tls                    DATA
 0006:00000104 00000104H .tls$                   DATA
 0006:00000208 00000101H .tls$ZZZ                DATA
 0007:00000000 00000104H .00cfg                  DATA
 0008:00000000 00000170H .rsrc$01                DATA
 0008:00000170 000002ccH .rsrc$02                DATA

  Address         Publics by Value              Rva+Base       Lib:Object

 0000:00000000       ___guard_fids_table        00000000     <absolute>
 0000:00000000       ___guard_iat_table         00000000     <absolute>
 0000:00000000       ___guard_longjmp_table     00000000     <absolute>
 0000:00000000       ___dynamic_value_reloc_table 00000000     <absolute>
 0000:00000000       ___guard_iat_count         00000000     <absolute>
 0000:00000000       ___guard_fids_count        00000000     <absolute>
 0000:00000000       ___guard_longjmp_count     00000000     <absolute>
 0000:0000002c       __tls_array                0000002c     <absolute>
 0000:00000100       ___guard_flags             00000100     <absolute>
 0000:000002c7       ___safe_se_handler_count   000002c7     <absolute>
 0000:00000000       ___ImageBase               00400000     <linker-defined>
 0001:00008ef0       ??0CanModuleBuffer@@QAE@H@Z 00409ef0 f   canmodulebuffer.obj
 0001:00008f50       ??1CanModuleBuffer@@UAE@XZ 00409f50 f   canmodulebuffer.obj
 0001:00008f70       ??_GCanModuleBuffer@@UAEPAXI@Z 00409f70 f i canmodulebuffer.obj
 0001:00008f70       ??_ECanModuleBuffer@@UAEPAXI@Z 00409f70 f i canmodulebuffer.obj
 0001:00008fb0       ?can_memcpy@CanModuleBuffer@@QAEXPAU_VCI_CAN_OBJ@@HABQAU2@H@Z 00409fb0 f   canmodulebuffer.obj
 0001:00009020       ?getFreeSize@CanModuleBuffer@@QAEHXZ 0040a020 f   canmodulebuffer.obj
 0001:00009060       ?getUsedSize@CanModuleBuffer@@QAEHXZ 0040a060 f   canmodulebuffer.obj
 0001:000090a0       ?isEmpty@CanModuleBuffer@@QAE_NXZ 0040a0a0 f   canmodulebuffer.obj
 0001:000090b0       ?isFull@CanModuleBuffer@@QAE_NXZ 0040a0b0 f   canmodulebuffer.obj
 0001:000090c0       ?read@CanModuleBuffer@@QAEHPAU_VCI_CAN_OBJ@@ABH@Z 0040a0c0 f   canmodulebuffer.obj
 0001:00009250       ??1Myserver@@QAE@XZ        0040a250 f   server.obj
 0001:000092c0       ?setBufferSize@CanModuleBuffer@@QAE_NH_N@Z 0040a2c0 f   canmodulebuffer.obj
 0001:000093a0       ?setEmpty@CanModuleBuffer@@QAEXXZ 0040a3a0 f   canmodulebuffer.obj
 0001:000093c0       ?write@CanModuleBuffer@@QAEHABQAU_VCI_CAN_OBJ@@ABH@Z 0040a3c0 f   canmodulebuffer.obj
 0001:000095a0       ??0CCycleBuffer@@QAE@H@Z   0040a5a0 f   CCycleBuffer.obj
 0001:000095f0       ??1CCycleBuffer@@UAE@XZ    0040a5f0 f   CCycleBuffer.obj
 0001:00009610       ??_GCCycleBuffer@@UAEPAXI@Z 0040a610 f i CCycleBuffer.obj
 0001:00009610       ??_ECCycleBuffer@@UAEPAXI@Z 0040a610 f i CCycleBuffer.obj
 0001:00009650       ?getFreeSize@CCycleBuffer@@QAEHXZ 0040a650 f   CCycleBuffer.obj
 0001:00009690       ?getUsedSize@CCycleBuffer@@QAEHXZ 0040a690 f   CCycleBuffer.obj
 0001:000096d0       ?isEmpty@CCycleBuffer@@QAE_NXZ 0040a6d0 f   CCycleBuffer.obj
 0001:000096e0       ?isFull@CCycleBuffer@@QAE_NXZ 0040a6e0 f   CCycleBuffer.obj
 0001:000096f0       ?read@CCycleBuffer@@QAEHPADH@Z 0040a6f0 f   CCycleBuffer.obj
 0001:00009880       ?setBufferSize@CCycleBuffer@@QAE_NH_N@Z 0040a880 f   CCycleBuffer.obj
 0001:00009970       ?setEmpty@CCycleBuffer@@QAEXXZ 0040a970 f   CCycleBuffer.obj
 0001:00009990       ?write@CCycleBuffer@@QAEHPADH@Z 0040a990 f   CCycleBuffer.obj
 0001:00009c10       ??0bad_exception_@exception_detail@boost@@QAE@ABU012@@Z 0040ac10 f i usebuffer.obj
 0001:00009ca0       ??_Gbad_exception_@exception_detail@boost@@UAEPAXI@Z 0040aca0 f i usebuffer.obj
 0001:00009ca0       ??_Ebad_exception_@exception_detail@boost@@UAEPAXI@Z 0040aca0 f i usebuffer.obj
 0001:00009d60       ??0exception@boost@@QAE@ABV01@@Z 0040ad60 f i usebuffer.obj
 0001:00009db0       ??0clone_base@exception_detail@boost@@QAE@ABV012@@Z 0040adb0 f i usebuffer.obj
 0001:00009dc0       ??_Eclone_base@exception_detail@boost@@UAEPAXI@Z 0040adc0 f i usebuffer.obj
 0001:00009dc0       ??_Gclone_base@exception_detail@boost@@UAEPAXI@Z 0040adc0 f i usebuffer.obj
 0001:00009df0       ?what@system_error@system@boost@@UBEPBDXZ 0040adf0 f i usebuffer.obj
 0001:00009f40       ??0system_error@system@boost@@QAE@ABV012@@Z 0040af40 f i usebuffer.obj
 0001:0000a000       ??_Ebad_alloc_@exception_detail@boost@@WBE@AEPAXI@Z 0040b000 f i usebuffer.obj
 0001:0000a00a       ??_Ebad_exception_@exception_detail@boost@@WBE@AEPAXI@Z 0040b00a f i usebuffer.obj
 0001:0000a020       ??0?$error_info_injector@Vsystem_error@system@boost@@@exception_detail@boost@@QAE@ABU012@@Z 0040b020 f i usebuffer.obj
 0001:0000a0e0       ??_E?$error_info_injector@Vsystem_error@system@boost@@@exception_detail@boost@@UAEPAXI@Z 0040b0e0 f i usebuffer.obj
 0001:0000a0e0       ??_G?$error_info_injector@Vsystem_error@system@boost@@@exception_detail@boost@@UAEPAXI@Z 0040b0e0 f i usebuffer.obj
 0001:0000a110       ??0?$clone_impl@U?$error_info_injector@Vsystem_error@system@boost@@@exception_detail@boost@@@exception_detail@boost@@QAE@ABV012@@Z 0040b110 f i usebuffer.obj
 0001:0000a230       ??_E?$clone_impl@U?$error_info_injector@Vsystem_error@system@boost@@@exception_detail@boost@@@exception_detail@boost@@UAEPAXI@Z 0040b230 f i usebuffer.obj
 0001:0000a230       ??_G?$clone_impl@U?$error_info_injector@Vsystem_error@system@boost@@@exception_detail@boost@@@exception_detail@boost@@UAEPAXI@Z 0040b230 f i usebuffer.obj
 0001:0000a2a0       ??_D?$clone_impl@U?$error_info_injector@Vsystem_error@system@boost@@@exception_detail@boost@@@exception_detail@boost@@QAEXXZ 0040b2a0 f i usebuffer.obj
 0001:0000a2e7       ??_E?$error_info_injector@Vsystem_error@system@boost@@@exception_detail@boost@@WCM@AEPAXI@Z 0040b2e7 f i usebuffer.obj
 0001:0000a2f1       ??_E?$clone_impl@U?$error_info_injector@Vsystem_error@system@boost@@@exception_detail@boost@@@exception_detail@boost@@WCM@AEPAXI@Z 0040b2f1 f i usebuffer.obj
 0001:0000a2fb       ?clone@?$clone_impl@U?$error_info_injector@Vsystem_error@system@boost@@@exception_detail@boost@@@exception_detail@boost@@$0PPPPPPPM@A@BEPBVclone_base@23@XZ 0040b2fb f i usebuffer.obj
 0001:0000a305       ?rethrow@?$clone_impl@U?$error_info_injector@Vsystem_error@system@boost@@@exception_detail@boost@@@exception_detail@boost@@$0PPPPPPPM@A@BEXXZ 0040b305 f i usebuffer.obj
 0001:0000a30f       ??_E?$clone_impl@U?$error_info_injector@Vsystem_error@system@boost@@@exception_detail@boost@@@exception_detail@boost@@$4PPPPPPPM@EI@AEPAXI@Z 0040b30f f i usebuffer.obj
 0001:0000a320       ??0runtime_error@std@@QAE@ABV01@@Z 0040b320 f i usebuffer.obj
 0001:0000a370       ?dispose@?$sp_counted_impl_p@V?$clone_impl@Ubad_alloc_@exception_detail@boost@@@exception_detail@boost@@@detail@boost@@UAEXXZ 0040b370 f i usebuffer.obj
 0001:0000a390       ?get_deleter@?$sp_counted_impl_p@V?$clone_impl@Ubad_alloc_@exception_detail@boost@@@exception_detail@boost@@@detail@boost@@UAEPAXABVtype_info@@@Z 0040b390 f i usebuffer.obj
 0001:0000a3a0       ?get_untyped_deleter@?$sp_counted_impl_p@V?$clone_impl@Ubad_alloc_@exception_detail@boost@@@exception_detail@boost@@@detail@boost@@UAEPAXXZ 0040b3a0 f i usebuffer.obj
 0001:0000a3b0       ??_G?$sp_counted_impl_p@V?$clone_impl@Ubad_alloc_@exception_detail@boost@@@exception_detail@boost@@@detail@boost@@UAEPAXI@Z 0040b3b0 f i usebuffer.obj
 0001:0000a3b0       ??_E?$sp_counted_impl_p@V?$clone_impl@Ubad_alloc_@exception_detail@boost@@@exception_detail@boost@@@detail@boost@@UAEPAXI@Z 0040b3b0 f i usebuffer.obj
 0001:0000a3e0       ?dispose@?$sp_counted_impl_p@V?$clone_impl@Ubad_exception_@exception_detail@boost@@@exception_detail@boost@@@detail@boost@@UAEXXZ 0040b3e0 f i usebuffer.obj
 0001:0000a400       ?get_deleter@?$sp_counted_impl_p@V?$clone_impl@Ubad_exception_@exception_detail@boost@@@exception_detail@boost@@@detail@boost@@UAEPAXABVtype_info@@@Z 0040b400 f i usebuffer.obj
 0001:0000a410       ?get_untyped_deleter@?$sp_counted_impl_p@V?$clone_impl@Ubad_exception_@exception_detail@boost@@@exception_detail@boost@@@detail@boost@@UAEPAXXZ 0040b410 f i usebuffer.obj
 0001:0000a420       ??_G?$sp_counted_impl_p@V?$clone_impl@Ubad_exception_@exception_detail@boost@@@exception_detail@boost@@@detail@boost@@UAEPAXI@Z 0040b420 f i usebuffer.obj
 0001:0000a420       ??_E?$sp_counted_impl_p@V?$clone_impl@Ubad_exception_@exception_detail@boost@@@exception_detail@boost@@@detail@boost@@UAEPAXI@Z 0040b420 f i usebuffer.obj
 0001:0000a450       ??0?$clone_impl@Ubad_alloc_@exception_detail@boost@@@exception_detail@boost@@QAE@ABV012@@Z 0040b450 f i usebuffer.obj
 0001:0000a520       ??_E?$clone_impl@Ubad_alloc_@exception_detail@boost@@@exception_detail@boost@@UAEPAXI@Z 0040b520 f i usebuffer.obj
 0001:0000a520       ??_G?$clone_impl@Ubad_alloc_@exception_detail@boost@@@exception_detail@boost@@UAEPAXI@Z 0040b520 f i usebuffer.obj
 0001:0000a560       ??_D?$clone_impl@Ubad_alloc_@exception_detail@boost@@@exception_detail@boost@@QAEXXZ 0040b560 f i usebuffer.obj
 0001:0000a580       ?destroy@sp_counted_base@detail@boost@@UAEXXZ 0040b580 f i usebuffer.obj
 0001:0000a590       ??0?$clone_impl@Ubad_exception_@exception_detail@boost@@@exception_detail@boost@@QAE@ABV012@@Z 0040b590 f i usebuffer.obj
 0001:0000a660       ??_E?$clone_impl@Ubad_exception_@exception_detail@boost@@@exception_detail@boost@@UAEPAXI@Z 0040b660 f i usebuffer.obj
 0001:0000a660       ??_G?$clone_impl@Ubad_exception_@exception_detail@boost@@@exception_detail@boost@@UAEPAXI@Z 0040b660 f i usebuffer.obj
 0001:0000a6a0       ??_D?$clone_impl@Ubad_exception_@exception_detail@boost@@@exception_detail@boost@@QAEXXZ 0040b6a0 f i usebuffer.obj
 0001:0000a6c0       ??0exception@std@@QAE@ABV01@@Z 0040b6c0 f i usebuffer.obj
 0001:0000a700       ?what@exception@std@@UBEPBDXZ 0040b700 f i usebuffer.obj
 0001:0000a720       ??_Eexception@std@@UAEPAXI@Z 0040b720 f i usebuffer.obj
 0001:0000a720       ??_Gexception@std@@UAEPAXI@Z 0040b720 f i usebuffer.obj
 0001:0000a75d       ??_E?$clone_impl@Ubad_alloc_@exception_detail@boost@@@exception_detail@boost@@WBE@AEPAXI@Z 0040b75d f i usebuffer.obj
 0001:0000a767       ?clone@?$clone_impl@Ubad_alloc_@exception_detail@boost@@@exception_detail@boost@@$0PPPPPPPM@A@BEPBVclone_base@23@XZ 0040b767 f i usebuffer.obj
 0001:0000a771       ?rethrow@?$clone_impl@Ubad_alloc_@exception_detail@boost@@@exception_detail@boost@@$0PPPPPPPM@A@BEXXZ 0040b771 f i usebuffer.obj
 0001:0000a77b       ??_E?$clone_impl@Ubad_alloc_@exception_detail@boost@@@exception_detail@boost@@$4PPPPPPPM@CI@AEPAXI@Z 0040b77b f i usebuffer.obj
 0001:0000a790       ??0bad_exception@std@@QAE@ABV01@@Z 0040b790 f i usebuffer.obj
 0001:0000a7d1       ??_E?$clone_impl@Ubad_exception_@exception_detail@boost@@@exception_detail@boost@@WBE@AEPAXI@Z 0040b7d1 f i usebuffer.obj
 0001:0000a7db       ?clone@?$clone_impl@Ubad_exception_@exception_detail@boost@@@exception_detail@boost@@$0PPPPPPPM@A@BEPBVclone_base@23@XZ 0040b7db f i usebuffer.obj
 0001:0000a7e5       ?rethrow@?$clone_impl@Ubad_exception_@exception_detail@boost@@@exception_detail@boost@@$0PPPPPPPM@A@BEXXZ 0040b7e5 f i usebuffer.obj
 0001:0000a7ef       ??_E?$clone_impl@Ubad_exception_@exception_detail@boost@@@exception_detail@boost@@$4PPPPPPPM@CI@AEPAXI@Z 0040b7ef f i usebuffer.obj
 0001:0000a800       ??_Gbad_exception@std@@UAEPAXI@Z 0040b800 f i usebuffer.obj
 0001:0000a800       ??_Ebad_exception@std@@UAEPAXI@Z 0040b800 f i usebuffer.obj
 0001:0000a840       ??0bad_alloc@std@@QAE@ABV01@@Z 0040b840 f i usebuffer.obj
 0001:0000a890       ??_Gbad_alloc@std@@UAEPAXI@Z 0040b890 f i usebuffer.obj
 0001:0000a890       ??_Ebad_alloc@std@@UAEPAXI@Z 0040b890 f i usebuffer.obj
 0001:0000a8d0       ??0bad_alloc_@exception_detail@boost@@QAE@ABU012@@Z 0040b8d0 f i usebuffer.obj
 0001:0000a960       ??_Ebad_alloc_@exception_detail@boost@@UAEPAXI@Z 0040b960 f i usebuffer.obj
 0001:0000a960       ??_Gbad_alloc_@exception_detail@boost@@UAEPAXI@Z 0040b960 f i usebuffer.obj
 0001:0000aa20       ??$?0V?$QList@USendMessageData@@@@@shared_count@detail@boost@@QAE@PAV?$QList@USendMessageData@@@@@Z 0040ba20 f i usebuffer.obj
 0001:0000aae0       ??$?0V?$clone_impl@Ubad_alloc_@exception_detail@boost@@@exception_detail@boost@@@shared_count@detail@boost@@QAE@PAV?$clone_impl@Ubad_alloc_@exception_detail@boost@@@exception_detail@2@@Z 0040bae0 f i usebuffer.obj
 0001:0000aba0       ??$?0V?$clone_impl@Ubad_exception_@exception_detail@boost@@@exception_detail@boost@@@shared_count@detail@boost@@QAE@PAV?$clone_impl@Ubad_exception_@exception_detail@boost@@@exception_detail@2@@Z 0040bba0 f i usebuffer.obj
 0001:0000ac60       ??$?HI@?$int_adapter@_J@date_time@boost@@QBE?AV012@ABV?$int_adapter@I@12@@Z 0040bc60 f i usebuffer.obj
 0001:0000ad90       ??$_Destroy_range1@V?$allocator@V?$intrusive_ptr@Vbasic_cv_list_entry@detail@boost@@@boost@@@std@@PAV?$intrusive_ptr@Vbasic_cv_list_entry@detail@boost@@@boost@@@std@@YAXPAV?$intrusive_ptr@Vbasic_cv_list_entry@detail@boost@@@boost@@0AAU?$_Wrap_alloc@V?$allocator@V?$intrusive_ptr@Vbasic_cv_list_entry@detail@boost@@@boost@@@std@@@0@U?$integral_constant@_N$0A@@0@@Z 0040bd90 f i usebuffer.obj
 0001:0000ae10       ??$_Uninitialized_move_al_unchecked1@PAV?$intrusive_ptr@Vbasic_cv_list_entry@detail@boost@@@boost@@PAV12@V?$allocator@V?$intrusive_ptr@Vbasic_cv_list_entry@detail@boost@@@boost@@@std@@@std@@YAPAV?$intrusive_ptr@Vbasic_cv_list_entry@detail@boost@@@boost@@PAV12@00AAU?$_Wrap_alloc@V?$allocator@V?$intrusive_ptr@Vbasic_cv_list_entry@detail@boost@@@boost@@@std@@@0@U_General_ptr_iterator_tag@0@U_Any_tag@0@@Z 0040be10 f i usebuffer.obj
 0001:0000ae60       ??$checked_delete@V?$QList@USendMessageData@@@@@boost@@YAXPAV?$QList@USendMessageData@@@@@Z 0040be60 f i usebuffer.obj
 0001:0000aef0       ??$do_wait@Vmutex@boost@@@basic_condition_variable@detail@boost@@IAE_NAAVmutex@2@Utimeout@12@@Z 0040bef0 f i usebuffer.obj
 0001:0000b080       ??$enable_current_exception@U?$error_info_injector@Vlock_error@boost@@@exception_detail@boost@@@boost@@YA?AV?$clone_impl@U?$error_info_injector@Vlock_error@boost@@@exception_detail@boost@@@exception_detail@0@ABU?$error_info_injector@Vlock_error@boost@@@20@@Z 0040c080 f i usebuffer.obj
 0001:0000b160       ??$enable_current_exception@U?$error_info_injector@Vsystem_error@system@boost@@@exception_detail@boost@@@boost@@YA?AV?$clone_impl@U?$error_info_injector@Vsystem_error@system@boost@@@exception_detail@boost@@@exception_detail@0@ABU?$error_info_injector@Vsystem_error@system@boost@@@20@@Z 0040c160 f i usebuffer.obj
 0001:0000b190       ??$enable_current_exception@U?$error_info_injector@Vthread_resource_error@boost@@@exception_detail@boost@@@boost@@YA?AV?$clone_impl@U?$error_info_injector@Vthread_resource_error@boost@@@exception_detail@boost@@@exception_detail@0@ABU?$error_info_injector@Vthread_resource_error@boost@@@20@@Z 0040c190 f i usebuffer.obj
 0001:0000b270       ??$enable_error_info@Vlock_error@boost@@@boost@@YA?AU?$error_info_injector@Vlock_error@boost@@@exception_detail@0@ABVlock_error@0@@Z 0040c270 f i usebuffer.obj
 0001:0000b2e0       ??$enable_error_info@Vsystem_error@system@boost@@@boost@@YA?AU?$error_info_injector@Vsystem_error@system@boost@@@exception_detail@0@ABVsystem_error@system@0@@Z 0040c2e0 f i usebuffer.obj
 0001:0000b350       ??$enable_error_info@Vthread_resource_error@boost@@@boost@@YA?AU?$error_info_injector@Vthread_resource_error@boost@@@exception_detail@0@ABVthread_resource_error@0@@Z 0040c350 f i usebuffer.obj
 0001:0000b3c0       ??$get_static_exception_object@Ubad_alloc_@exception_detail@boost@@@exception_detail@boost@@YA?AVexception_ptr@1@XZ 0040c3c0 f i usebuffer.obj
 0001:0000b620       ??1on_dispatch_exit@strand_service@detail@asio@boost@@QAE@XZ 0040c620 f i server.obj
 0001:0000b6b0       ??$get_static_exception_object@Ubad_exception_@exception_detail@boost@@@exception_detail@boost@@YA?AVexception_ptr@1@XZ 0040c6b0 f i usebuffer.obj
 0001:0000b9a0       ??$sp_pointer_construct@$$CBVclone_base@exception_detail@boost@@V?$clone_impl@Ubad_alloc_@exception_detail@boost@@@23@@detail@boost@@YAXPAV?$shared_ptr@$$CBVclone_base@exception_detail@boost@@@1@PAV?$clone_impl@Ubad_alloc_@exception_detail@boost@@@exception_detail@1@AAVshared_count@01@@Z 0040c9a0 f i usebuffer.obj
 0001:0000ba60       ??$sp_pointer_construct@$$CBVclone_base@exception_detail@boost@@V?$clone_impl@Ubad_exception_@exception_detail@boost@@@23@@detail@boost@@YAXPAV?$shared_ptr@$$CBVclone_base@exception_detail@boost@@@1@PAV?$clone_impl@Ubad_exception_@exception_detail@boost@@@exception_detail@1@AAVshared_count@01@@Z 0040ca60 f i usebuffer.obj
 0001:0000bb20       ??$sp_pointer_construct@V?$QList@USendMessageData@@@@V1@@detail@boost@@YAXPAV?$shared_ptr@V?$QList@USendMessageData@@@@@1@PAV?$QList@USendMessageData@@@@AAVshared_count@01@@Z 0040cb20 f i usebuffer.obj
 0001:0000bbe0       ??$throw_exception@Vlock_error@boost@@@boost@@YAXABVlock_error@0@@Z 0040cbe0 f i usebuffer.obj
 0001:0000bc60       ??$throw_exception@Vsystem_error@system@boost@@@boost@@YAXABVsystem_error@system@0@@Z 0040cc60 f i usebuffer.obj
 0001:0000bce0       ??$throw_exception@Vthread_resource_error@boost@@@boost@@YAXABVthread_resource_error@0@@Z 0040cce0 f i usebuffer.obj
 0001:0000bd60       ??$wait@Vmutex@boost@@@condition_variable_any@boost@@QAEXAAVmutex@1@@Z 0040cd60 f i usebuffer.obj
 0001:0000be20       ??0?$QList@VQString@@@@QAE@ABV0@@Z 0040ce20 f i usebuffer.obj
 0001:0000bf00       ??0?$basic_string@DU?$char_traits@D@std@@V?$allocator@D@2@@std@@QAE@PBD@Z 0040cf00 f i usebuffer.obj
 0001:0000bf70       ??0?$clone_impl@U?$error_info_injector@Ubad_day_of_month@gregorian@boost@@@exception_detail@boost@@@exception_detail@boost@@AAE@ABV012@Uclone_tag@012@@Z 0040cf70 f i usebuffer.obj
 0001:0000c060       ??0?$clone_impl@U?$error_info_injector@Ubad_day_of_month@gregorian@boost@@@exception_detail@boost@@@exception_detail@boost@@QAE@ABV012@@Z 0040d060 f i usebuffer.obj
 0001:0000c130       ??0?$clone_impl@U?$error_info_injector@Ubad_month@gregorian@boost@@@exception_detail@boost@@@exception_detail@boost@@AAE@ABV012@Uclone_tag@012@@Z 0040d130 f i usebuffer.obj
 0001:0000c220       ??0?$clone_impl@U?$error_info_injector@Ubad_month@gregorian@boost@@@exception_detail@boost@@@exception_detail@boost@@QAE@ABV012@@Z 0040d220 f i usebuffer.obj
 0001:0000c2f0       ??0?$clone_impl@U?$error_info_injector@Ubad_year@gregorian@boost@@@exception_detail@boost@@@exception_detail@boost@@AAE@ABV012@Uclone_tag@012@@Z 0040d2f0 f i usebuffer.obj
 0001:0000c3e0       ??0?$clone_impl@U?$error_info_injector@Ubad_year@gregorian@boost@@@exception_detail@boost@@@exception_detail@boost@@QAE@ABV012@@Z 0040d3e0 f i usebuffer.obj
 0001:0000c4b0       ??0?$clone_impl@U?$error_info_injector@Vlock_error@boost@@@exception_detail@boost@@@exception_detail@boost@@AAE@ABV012@Uclone_tag@012@@Z 0040d4b0 f i usebuffer.obj
 0001:0000c5a0       ??0?$clone_impl@U?$error_info_injector@Vlock_error@boost@@@exception_detail@boost@@@exception_detail@boost@@QAE@ABV012@@Z 0040d5a0 f i usebuffer.obj
 0001:0000c670       ??0?$clone_impl@U?$error_info_injector@Vsystem_error@system@boost@@@exception_detail@boost@@@exception_detail@boost@@AAE@ABV012@Uclone_tag@012@@Z 0040d670 f i usebuffer.obj
 0001:0000c7b0       ??0?$clone_impl@U?$error_info_injector@Vsystem_error@system@boost@@@exception_detail@boost@@@exception_detail@boost@@QAE@ABU?$error_info_injector@Vsystem_error@system@boost@@@12@@Z 0040d7b0 f i usebuffer.obj
 0001:0000c8f0       ??0?$clone_impl@U?$error_info_injector@Vthread_resource_error@boost@@@exception_detail@boost@@@exception_detail@boost@@AAE@ABV012@Uclone_tag@012@@Z 0040d8f0 f i usebuffer.obj
 0001:0000c9e0       ??0?$clone_impl@U?$error_info_injector@Vthread_resource_error@boost@@@exception_detail@boost@@@exception_detail@boost@@QAE@ABV012@@Z 0040d9e0 f i usebuffer.obj
 0001:0000cab0       ??0?$counted_time_rep@Vmillisec_posix_time_system_config@posix_time@boost@@@date_time@boost@@QAE@ABVdate@gregorian@2@ABVtime_duration@posix_time@2@@Z 0040dab0 f i usebuffer.obj
 0001:0000cb90       ??0?$error_info_injector@Ubad_day_of_month@gregorian@boost@@@exception_detail@boost@@QAE@ABU012@@Z 0040db90 f i usebuffer.obj
 0001:0000cc70       ??0?$error_info_injector@Ubad_month@gregorian@boost@@@exception_detail@boost@@QAE@ABU012@@Z 0040dc70 f i usebuffer.obj
 0001:0000cd50       ??0?$error_info_injector@Ubad_year@gregorian@boost@@@exception_detail@boost@@QAE@ABU012@@Z 0040dd50 f i usebuffer.obj
 0001:0000ce30       ??0?$error_info_injector@Vlock_error@boost@@@exception_detail@boost@@QAE@ABU012@@Z 0040de30 f i usebuffer.obj
 0001:0000cef0       ??0?$error_info_injector@Vthread_resource_error@boost@@@exception_detail@boost@@QAE@ABU012@@Z 0040def0 f i usebuffer.obj
 0001:0000cfb0       ??0?$service_id@Vselect_reactor@detail@asio@boost@@@detail@asio@boost@@QAE@XZ 0040dfb0 f i usebuffer.obj
 0001:0000cfc0       ??0?$service_id@Vstrand_service@detail@asio@boost@@@detail@asio@boost@@QAE@XZ 0040dfc0 f i usebuffer.obj
 0001:0000cfd0       ??0?$service_id@Vwin_iocp_io_service@detail@asio@boost@@@detail@asio@boost@@QAE@XZ 0040dfd0 f i usebuffer.obj
 0001:0000cfe0       ??0UserBuffer@@QAE@XZ      0040dfe0 f   usebuffer.obj
 0001:0000d410       ??0bad_day_of_month@gregorian@boost@@QAE@ABU012@@Z 0040e410 f i usebuffer.obj
 0001:0000d460       ??0bad_month@gregorian@boost@@QAE@ABU012@@Z 0040e460 f i usebuffer.obj
 0001:0000d4b0       ??0bad_year@gregorian@boost@@QAE@ABU012@@Z 0040e4b0 f i usebuffer.obj
 0001:0000d500       ??0basic_cv_list_entry@detail@boost@@QAE@ABVhandle_manager@win32@12@@Z 0040e500 f i usebuffer.obj
 0001:0000d5d0       ??0condition_variable_any@boost@@QAE@XZ 0040e5d0 f i usebuffer.obj
 0001:0000d630       ??0lock_error@boost@@QAE@ABV01@@Z 0040e630 f i usebuffer.obj
 0001:0000d660       ??0lock_error@boost@@QAE@HPBD@Z 0040e660 f i usebuffer.obj
 0001:0000d6f0       ??0logic_error@std@@QAE@ABV01@@Z 0040e6f0 f i usebuffer.obj
 0001:0000d740       ??0mutex@boost@@QAE@XZ     0040e740 f i usebuffer.obj
 0001:0000d760       ??0out_of_range@std@@QAE@ABV01@@Z 0040e760 f i usebuffer.obj
 0001:0000d7b0       ??0thread_exception@boost@@QAE@ABV01@@Z 0040e7b0 f i usebuffer.obj
 0001:0000d7e0       ??0thread_resource_error@boost@@QAE@ABV01@@Z 0040e7e0 f i usebuffer.obj
 0001:0000d810       ??0thread_resource_error@boost@@QAE@XZ 0040e810 f i usebuffer.obj
 0001:0000d890       ??1?$QList@VQString@@@@QAE@XZ 0040e890 f i usebuffer.obj
 0001:0000d940       ??1?$QMap@HVQString@@@@QAE@XZ 0040e940 f i usebuffer.obj
 0001:0000da00       ??1?$QMap@VQString@@H@@QAE@XZ 0040ea00 f i usebuffer.obj
 0001:0000dac0       ??1?$QMap@VQString@@N@@QAE@XZ 0040eac0 f i usebuffer.obj
 0001:0000db80       ??1?$QMap@VQString@@Uresponse_data@@@@QAE@XZ 0040eb80 f i usebuffer.obj
 0001:0000dc10       ??1?$QMap@VQString@@V?$QList@USendMessageData@@@@@@QAE@XZ 0040ec10 f i usebuffer.obj
 0001:0000dca0       ??1?$QMap@VQString@@V?$shared_ptr@V?$QList@USendMessageData@@@@@boost@@@@QAE@XZ 0040eca0 f i usebuffer.obj
 0001:0000dd30       ??1?$QMap@VQString@@VQStringList@@@@QAE@XZ 0040ed30 f i usebuffer.obj
 0001:0000ddf0       ??1?$QQueue@Udevice_buf@@@@QAE@XZ 0040edf0 f i usebuffer.obj
 0001:0000de60       ??1?$QQueue@VQString@@@@QAE@XZ 0040ee60 f i usebuffer.obj
 0001:0000de70       ??1?$QQueue@VQStringList@@@@QAE@XZ 0040ee70 f i usebuffer.obj
 0001:0000df10       ??1?$basic_string@DU?$char_traits@D@std@@V?$allocator@D@2@@std@@QAE@XZ 0040ef10 f i usebuffer.obj
 0001:0000df60       ??1?$clone_impl@U?$error_info_injector@Ubad_day_of_month@gregorian@boost@@@exception_detail@boost@@@exception_detail@boost@@UAE@XZ 0040ef60 f i usebuffer.obj
 0001:0000e030       ??1?$clone_impl@U?$error_info_injector@Ubad_month@gregorian@boost@@@exception_detail@boost@@@exception_detail@boost@@UAE@XZ 0040f030 f i usebuffer.obj
 0001:0000e100       ??1?$clone_impl@U?$error_info_injector@Ubad_year@gregorian@boost@@@exception_detail@boost@@@exception_detail@boost@@UAE@XZ 0040f100 f i usebuffer.obj
 0001:0000e1d0       ??1?$clone_impl@Ubad_alloc_@exception_detail@boost@@@exception_detail@boost@@UAE@XZ 0040f1d0 f i usebuffer.obj
 0001:0000e2a0       ??1?$clone_impl@Ubad_exception_@exception_detail@boost@@@exception_detail@boost@@UAE@XZ 0040f2a0 f i usebuffer.obj
 0001:0000e370       ??1?$error_info_injector@Ubad_day_of_month@gregorian@boost@@@exception_detail@boost@@UAE@XZ 0040f370 f i usebuffer.obj
 0001:0000e410       ??1?$error_info_injector@Ubad_month@gregorian@boost@@@exception_detail@boost@@UAE@XZ 0040f410 f i usebuffer.obj
 0001:0000e4b0       ??1?$error_info_injector@Ubad_year@gregorian@boost@@@exception_detail@boost@@UAE@XZ 0040f4b0 f i usebuffer.obj
 0001:0000e550       ??1?$error_info_injector@Vlock_error@boost@@@exception_detail@boost@@UAE@XZ 0040f550 f i usebuffer.obj
 0001:0000e640       ??1?$error_info_injector@Vsystem_error@system@boost@@@exception_detail@boost@@UAE@XZ 0040f640 f i usebuffer.obj
 0001:0000e730       ??1?$error_info_injector@Vthread_resource_error@boost@@@exception_detail@boost@@UAE@XZ 0040f730 f i usebuffer.obj
 0001:0000e820       ??1?$intrusive_ptr@Vbasic_cv_list_entry@detail@boost@@@boost@@QAE@XZ 0040f820 f i usebuffer.obj
 0001:0000e880       ??1?$lock_guard@Vmutex@boost@@@boost@@QAE@XZ 0040f880 f i usebuffer.obj
 0001:0000e900       ??1?$op_queue@Vwin_iocp_operation@detail@asio@boost@@@detail@asio@boost@@QAE@XZ 0040f900 f i usebuffer.obj
 0001:0000e9a0       ??1?$refcount_ptr@Uerror_info_container@exception_detail@boost@@@exception_detail@boost@@QAE@XZ 0040f9a0 f i usebuffer.obj
 0001:0000ea00       ??1?$relocker@Vmutex@boost@@@basic_condition_variable@detail@boost@@QAE@XZ 0040fa00 f i usebuffer.obj
 0001:0000ea50       ??1?$service_id@Vselect_reactor@detail@asio@boost@@@detail@asio@boost@@QAE@XZ 0040fa50 f i usebuffer.obj
 0001:0000ea60       ??1?$service_id@Vstrand_service@detail@asio@boost@@@detail@asio@boost@@QAE@XZ 0040fa60 f i usebuffer.obj
 0001:0000ea70       ??1?$service_id@Vwin_iocp_io_service@detail@asio@boost@@@detail@asio@boost@@QAE@XZ 0040fa70 f i usebuffer.obj
 0001:0000ea80       ??1?$shared_ptr@V?$QList@USendMessageData@@@@@boost@@QAE@XZ 0040fa80 f i usebuffer.obj
 0001:0000eb10       ??1?$unique_lock@Vmutex@boost@@@boost@@QAE@XZ 0040fb10 f i usebuffer.obj
 0001:0000eb90       ??1?$unique_lock@Vrecursive_mutex@boost@@@boost@@QAE@XZ 0040fb90 f i usebuffer.obj
 0001:0000ec20       ??1QStringList@@QAE@XZ     0040fc20 f i usebuffer.obj
 0001:0000ec30       ??1UserBuffer@@QAE@XZ      0040fc30 f   usebuffer.obj
 0001:0000f0f0       ??1bad_alloc_@exception_detail@boost@@UAE@XZ 004100f0 f i usebuffer.obj
 0001:0000f190       ??1bad_day_of_month@gregorian@boost@@UAE@XZ 00410190 f i usebuffer.obj
 0001:0000f1b0       ??1bad_exception_@exception_detail@boost@@UAE@XZ 004101b0 f i usebuffer.obj
 0001:0000f250       ??1bad_month@gregorian@boost@@UAE@XZ 00410250 f i usebuffer.obj
 0001:0000f270       ??1bad_year@gregorian@boost@@UAE@XZ 00410270 f i usebuffer.obj
 0001:0000f290       ??1basic_condition_variable@detail@boost@@QAE@XZ 00410290 f i usebuffer.obj
 0001:0000f330       ??1clone_base@exception_detail@boost@@UAE@XZ 00410330 f i usebuffer.obj
 0001:0000f340       ??1condition_variable_any@boost@@QAE@XZ 00410340 f i usebuffer.obj
 0001:0000f350       ??1entry_manager@basic_condition_variable@detail@boost@@QAE@XZ 00410350 f i usebuffer.obj
 0001:0000f440       ??1error_category@system@boost@@UAE@XZ 00410440 f i usebuffer.obj
 0001:0000f450       ??1exception@boost@@MAE@XZ 00410450 f i usebuffer.obj
 0001:0000f4d0       ??1exception@std@@UAE@XZ   004104d0 f i usebuffer.obj
 0001:0000f4f0       ??1handle_manager@win32@detail@boost@@QAE@XZ 004104f0 f i usebuffer.obj
 0001:0000f510       ??1lock_error@boost@@UAE@XZ 00410510 f i usebuffer.obj
 0001:0000f580       ??1mutex@boost@@QAE@XZ     00410580 f i usebuffer.obj
 0001:0000f5a0       ??1recursive_mutex@boost@@QAE@XZ 004105a0 f i usebuffer.obj
 0001:0000f5c0       ??1response_data@@QAE@XZ   004105c0 f i usebuffer.obj
 0001:0000f5e0       ??1runtime_error@std@@UAE@XZ 004105e0 f i usebuffer.obj
 0001:0000f600       ??1shared_count@detail@boost@@QAE@XZ 00410600 f i usebuffer.obj
 0001:0000f680       ??1sp_counted_base@detail@boost@@UAE@XZ 00410680 f i usebuffer.obj
 0001:0000f690       ??1system_error@system@boost@@UAE@XZ 00410690 f i usebuffer.obj
 0001:0000f700       ??1thread_resource_error@boost@@UAE@XZ 00410700 f i usebuffer.obj
 0001:0000f770       ??3@YAXPAX0@Z              00410770 f i usebuffer.obj
 0001:0000f780       ??4?$shared_ptr@V?$QList@USendMessageData@@@@@boost@@QAEAAV01@ABV01@@Z 00410780 f i usebuffer.obj
 0001:0000f840       ??A?$QMap@HVQString@@@@QAEAAVQString@@ABH@Z 00410840 f i usebuffer.obj
 0001:0000f930       ??A?$QMap@VQString@@H@@QAEAAHABVQString@@@Z 00410930 f i usebuffer.obj
 0001:0000f9d0       ??A?$QMap@VQString@@N@@QAEAANABVQString@@@Z 004109d0 f i usebuffer.obj
 0001:0000fa70       ??A?$QMap@VQString@@Uresponse_data@@@@QAEAAUresponse_data@@ABVQString@@@Z 00410a70 f i usebuffer.obj
 0001:0000fb80       ??A?$QMap@VQString@@V1@@@QAEAAVQString@@ABV1@@Z 00410b80 f i usebuffer.obj
 0001:0000fc70       ??A?$QMap@VQString@@V?$shared_ptr@V?$QList@USendMessageData@@@@@boost@@@@QAEAAV?$shared_ptr@V?$QList@USendMessageData@@@@@boost@@ABVQString@@@Z 00410c70 f i usebuffer.obj
 0001:0000fd60       ??A?$QMap@VQString@@VQStringList@@@@QAEAAVQStringList@@ABVQString@@@Z 00410d60 f i usebuffer.obj
 0001:0000fe50       ??H@YA?BVQString@@ABV0@0@Z 00410e50 f i usebuffer.obj
 0001:0000fed0       ??H@YA?BVQString@@ABV0@PBD@Z 00410ed0 f i usebuffer.obj
 0001:0000ff80       ??_D?$clone_impl@U?$error_info_injector@Ubad_day_of_month@gregorian@boost@@@exception_detail@boost@@@exception_detail@boost@@QAEXXZ 00410f80 f i usebuffer.obj
 0001:0000ffa0       ??_D?$clone_impl@U?$error_info_injector@Ubad_month@gregorian@boost@@@exception_detail@boost@@@exception_detail@boost@@QAEXXZ 00410fa0 f i usebuffer.obj
 0001:0000ffc0       ??_D?$clone_impl@U?$error_info_injector@Ubad_year@gregorian@boost@@@exception_detail@boost@@@exception_detail@boost@@QAEXXZ 00410fc0 f i usebuffer.obj
 0001:0000ffe0       ??_D?$clone_impl@U?$error_info_injector@Vlock_error@boost@@@exception_detail@boost@@@exception_detail@boost@@QAEXXZ 00410fe0 f i usebuffer.obj
 0001:00010030       ??_D?$clone_impl@U?$error_info_injector@Vthread_resource_error@boost@@@exception_detail@boost@@@exception_detail@boost@@QAEXXZ 00411030 f i usebuffer.obj
 0001:00010077       ??_E?$clone_impl@U?$error_info_injector@Ubad_day_of_month@gregorian@boost@@@exception_detail@boost@@@exception_detail@boost@@$4PPPPPPPM@CI@AEPAXI@Z 00411077 f i usebuffer.obj
 0001:00010084       ??_E?$clone_impl@U?$error_info_injector@Ubad_day_of_month@gregorian@boost@@@exception_detail@boost@@@exception_detail@boost@@WM@AEPAXI@Z 00411084 f i usebuffer.obj
 0001:0001008e       ??_E?$clone_impl@U?$error_info_injector@Ubad_month@gregorian@boost@@@exception_detail@boost@@@exception_detail@boost@@$4PPPPPPPM@CI@AEPAXI@Z 0041108e f i usebuffer.obj
 0001:0001009b       ??_E?$clone_impl@U?$error_info_injector@Ubad_month@gregorian@boost@@@exception_detail@boost@@@exception_detail@boost@@WM@AEPAXI@Z 0041109b f i usebuffer.obj
 0001:000100a5       ??_E?$clone_impl@U?$error_info_injector@Ubad_year@gregorian@boost@@@exception_detail@boost@@@exception_detail@boost@@$4PPPPPPPM@CI@AEPAXI@Z 004110a5 f i usebuffer.obj
 0001:000100b2       ??_E?$clone_impl@U?$error_info_injector@Ubad_year@gregorian@boost@@@exception_detail@boost@@@exception_detail@boost@@WM@AEPAXI@Z 004110b2 f i usebuffer.obj
 0001:000100bc       ??_E?$clone_impl@U?$error_info_injector@Vlock_error@boost@@@exception_detail@boost@@@exception_detail@boost@@$4PPPPPPPM@EI@AEPAXI@Z 004110bc f i usebuffer.obj
 0001:000100c9       ??_E?$clone_impl@U?$error_info_injector@Vlock_error@boost@@@exception_detail@boost@@@exception_detail@boost@@WCM@AEPAXI@Z 004110c9 f i usebuffer.obj
 0001:000100d3       ??_E?$clone_impl@U?$error_info_injector@Vthread_resource_error@boost@@@exception_detail@boost@@@exception_detail@boost@@$4PPPPPPPM@EI@AEPAXI@Z 004110d3 f i usebuffer.obj
 0001:000100e0       ??_E?$clone_impl@U?$error_info_injector@Vthread_resource_error@boost@@@exception_detail@boost@@@exception_detail@boost@@WCM@AEPAXI@Z 004110e0 f i usebuffer.obj
 0001:000100ea       ??_E?$error_info_injector@Ubad_day_of_month@gregorian@boost@@@exception_detail@boost@@WM@AEPAXI@Z 004110ea f i usebuffer.obj
 0001:000100f4       ??_E?$error_info_injector@Ubad_month@gregorian@boost@@@exception_detail@boost@@WM@AEPAXI@Z 004110f4 f i usebuffer.obj
 0001:000100fe       ??_E?$error_info_injector@Ubad_year@gregorian@boost@@@exception_detail@boost@@WM@AEPAXI@Z 004110fe f i usebuffer.obj
 0001:00010108       ??_E?$error_info_injector@Vlock_error@boost@@@exception_detail@boost@@WCM@AEPAXI@Z 00411108 f i usebuffer.obj
 0001:00010112       ??_E?$error_info_injector@Vthread_resource_error@boost@@@exception_detail@boost@@WCM@AEPAXI@Z 00411112 f i usebuffer.obj
 0001:00010120       ??_E?$unique_lock@Vmutex@boost@@@boost@@QAEPAXI@Z 00411120 f i usebuffer.obj
 0001:00010230       ??_FCCycleBuffer@@QAEXXZ   00411230 f i usebuffer.obj
 0001:00010240       ??_G?$clone_impl@U?$error_info_injector@Ubad_day_of_month@gregorian@boost@@@exception_detail@boost@@@exception_detail@boost@@UAEPAXI@Z 00411240 f i usebuffer.obj
 0001:00010240       ??_E?$clone_impl@U?$error_info_injector@Ubad_day_of_month@gregorian@boost@@@exception_detail@boost@@@exception_detail@boost@@UAEPAXI@Z 00411240 f i usebuffer.obj
 0001:00010280       ??_E?$clone_impl@U?$error_info_injector@Ubad_month@gregorian@boost@@@exception_detail@boost@@@exception_detail@boost@@UAEPAXI@Z 00411280 f i usebuffer.obj
 0001:00010280       ??_G?$clone_impl@U?$error_info_injector@Ubad_month@gregorian@boost@@@exception_detail@boost@@@exception_detail@boost@@UAEPAXI@Z 00411280 f i usebuffer.obj
 0001:000102c0       ??_G?$clone_impl@U?$error_info_injector@Ubad_year@gregorian@boost@@@exception_detail@boost@@@exception_detail@boost@@UAEPAXI@Z 004112c0 f i usebuffer.obj
 0001:000102c0       ??_E?$clone_impl@U?$error_info_injector@Ubad_year@gregorian@boost@@@exception_detail@boost@@@exception_detail@boost@@UAEPAXI@Z 004112c0 f i usebuffer.obj
 0001:00010300       ??_G?$clone_impl@U?$error_info_injector@Vlock_error@boost@@@exception_detail@boost@@@exception_detail@boost@@UAEPAXI@Z 00411300 f i usebuffer.obj
 0001:00010300       ??_E?$clone_impl@U?$error_info_injector@Vlock_error@boost@@@exception_detail@boost@@@exception_detail@boost@@UAEPAXI@Z 00411300 f i usebuffer.obj
 0001:00010370       ??_G?$clone_impl@U?$error_info_injector@Vthread_resource_error@boost@@@exception_detail@boost@@@exception_detail@boost@@UAEPAXI@Z 00411370 f i usebuffer.obj
 0001:00010370       ??_E?$clone_impl@U?$error_info_injector@Vthread_resource_error@boost@@@exception_detail@boost@@@exception_detail@boost@@UAEPAXI@Z 00411370 f i usebuffer.obj
 0001:000103e0       ??_E?$error_info_injector@Ubad_day_of_month@gregorian@boost@@@exception_detail@boost@@UAEPAXI@Z 004113e0 f i usebuffer.obj
 0001:000103e0       ??_G?$error_info_injector@Ubad_day_of_month@gregorian@boost@@@exception_detail@boost@@UAEPAXI@Z 004113e0 f i usebuffer.obj
 0001:000104a0       ??_G?$error_info_injector@Ubad_month@gregorian@boost@@@exception_detail@boost@@UAEPAXI@Z 004114a0 f i usebuffer.obj
 0001:000104a0       ??_E?$error_info_injector@Ubad_month@gregorian@boost@@@exception_detail@boost@@UAEPAXI@Z 004114a0 f i usebuffer.obj
 0001:00010560       ??_E?$error_info_injector@Ubad_year@gregorian@boost@@@exception_detail@boost@@UAEPAXI@Z 00411560 f i usebuffer.obj
 0001:00010560       ??_G?$error_info_injector@Ubad_year@gregorian@boost@@@exception_detail@boost@@UAEPAXI@Z 00411560 f i usebuffer.obj
 0001:00010620       ??_E?$error_info_injector@Vlock_error@boost@@@exception_detail@boost@@UAEPAXI@Z 00411620 f i usebuffer.obj
 0001:00010620       ??_G?$error_info_injector@Vlock_error@boost@@@exception_detail@boost@@UAEPAXI@Z 00411620 f i usebuffer.obj
 0001:00010650       ??_G?$error_info_injector@Vthread_resource_error@boost@@@exception_detail@boost@@UAEPAXI@Z 00411650 f i usebuffer.obj
 0001:00010650       ??_E?$error_info_injector@Vthread_resource_error@boost@@@exception_detail@boost@@UAEPAXI@Z 00411650 f i usebuffer.obj
 0001:00010680       ??_G?$sp_counted_impl_p@V?$QList@USendMessageData@@@@@detail@boost@@UAEPAXI@Z 00411680 f i usebuffer.obj
 0001:00010680       ??_E?$sp_counted_impl_p@V?$QList@USendMessageData@@@@@detail@boost@@UAEPAXI@Z 00411680 f i usebuffer.obj
 0001:000106b0       ??_Gbad_day_of_month@gregorian@boost@@UAEPAXI@Z 004116b0 f i usebuffer.obj
 0001:000106b0       ??_Ebad_day_of_month@gregorian@boost@@UAEPAXI@Z 004116b0 f i usebuffer.obj
 0001:000106f0       ??_Ebad_month@gregorian@boost@@UAEPAXI@Z 004116f0 f i usebuffer.obj
 0001:000106f0       ??_Gbad_month@gregorian@boost@@UAEPAXI@Z 004116f0 f i usebuffer.obj
 0001:00010730       ??_Ebad_year@gregorian@boost@@UAEPAXI@Z 00411730 f i usebuffer.obj
 0001:00010730       ??_Gbad_year@gregorian@boost@@UAEPAXI@Z 00411730 f i usebuffer.obj
 0001:00010770       ??_Gerror_category@system@boost@@UAEPAXI@Z 00411770 f i usebuffer.obj
 0001:00010770       ??_Eerror_category@system@boost@@UAEPAXI@Z 00411770 f i usebuffer.obj
 0001:000107a0       ??_Glock_error@boost@@UAEPAXI@Z 004117a0 f i usebuffer.obj
 0001:000107a0       ??_Elock_error@boost@@UAEPAXI@Z 004117a0 f i usebuffer.obj
 0001:00010830       ??_Elogic_error@std@@UAEPAXI@Z 00411830 f i usebuffer.obj
 0001:00010830       ??_Glogic_error@std@@UAEPAXI@Z 00411830 f i usebuffer.obj
 0001:00010870       ??_Emisc_category@detail@error@asio@boost@@UAEPAXI@Z 00411870 f i usebuffer.obj
 0001:00010870       ??_Gmisc_category@detail@error@asio@boost@@UAEPAXI@Z 00411870 f i usebuffer.obj
 0001:000108a0       ??_Eout_of_range@std@@UAEPAXI@Z 004118a0 f i usebuffer.obj
 0001:000108a0       ??_Gout_of_range@std@@UAEPAXI@Z 004118a0 f i usebuffer.obj
 0001:000108e0       ??_Gruntime_error@std@@UAEPAXI@Z 004118e0 f i usebuffer.obj
 0001:000108e0       ??_Eruntime_error@std@@UAEPAXI@Z 004118e0 f i usebuffer.obj
 0001:00010920       ??_Gsp_counted_base@detail@boost@@UAEPAXI@Z 00411920 f i usebuffer.obj
 0001:00010920       ??_Esp_counted_base@detail@boost@@UAEPAXI@Z 00411920 f i usebuffer.obj
 0001:00010950       ??_Gsystem_error@system@boost@@UAEPAXI@Z 00411950 f i usebuffer.obj
 0001:00010950       ??_Esystem_error@system@boost@@UAEPAXI@Z 00411950 f i usebuffer.obj
 0001:000109e0       ??_Gthread_exception@boost@@UAEPAXI@Z 004119e0 f i usebuffer.obj
 0001:000109e0       ??_Ethread_exception@boost@@UAEPAXI@Z 004119e0 f i usebuffer.obj
 0001:00010a70       ??_Ethread_resource_error@boost@@UAEPAXI@Z 00411a70 f i usebuffer.obj
 0001:00010a70       ??_Gthread_resource_error@boost@@UAEPAXI@Z 00411a70 f i usebuffer.obj
 0001:00010b00       ??_H@YGXPAXIIP6EPAX0@Z@Z   00411b00 f i usebuffer.obj
 0001:00010b30       ?ClearBuff@UserBuffer@@QAEXXZ 00411b30 f   usebuffer.obj
 0001:00010dc0       ?ClearFrontSendList@UserBuffer@@QAEXXZ 00411dc0 f   usebuffer.obj
 0001:00010e80       ?FrontSendList@UserBuffer@@QAEAAUSendMessageData@@ABVQString@@@Z 00411e80 f   usebuffer.obj
 0001:00011040       ?GetBmqBeginZdJsz@UserBuffer@@QAEHABVQString@@@Z 00412040 f   usebuffer.obj
 0001:00011140       ?GetBmqJsz@UserBuffer@@QAEHABVQString@@ABH@Z 00412140 f   usebuffer.obj
 0001:00011270       ?GetBmqNewestJsz@UserBuffer@@QAEHABVQString@@@Z 00412270 f   usebuffer.obj
 0001:00011370       ?GetBmqZdjl@UserBuffer@@QAENABVQString@@@Z 00412370 f   usebuffer.obj
 0001:00011480       ?GetInstance@UserBuffer@@SAPAV1@XZ 00412480 f   usebuffer.obj
 0001:00011b80       ??1io_service_pool@@QAE@XZ 00412b80 f i server.obj
 0001:00011d40       ?InitDBSqlBuff@UserBuffer@@QAEXHABVQString@@0@Z 00412d40 f   usebuffer.obj
 0001:00012100       ?InitDBSqlBuffAll@UserBuffer@@QAEXHABVQString@@0@Z 00413100 f   usebuffer.obj
 0001:000122e0       ?IsEmptyDatabaseQueue@UserBuffer@@QAE_NXZ 004132e0 f   usebuffer.obj
 0001:000123a0       ?IsEmptySendList@UserBuffer@@QAE_NABVQString@@@Z 004133a0 f   usebuffer.obj
 0001:000124c0       ?IsEmptyUserDLData@UserBuffer@@QAE_NXZ 004134c0 f   usebuffer.obj
 0001:000124d0       ?PopCanDeviceQueue@UserBuffer@@QAE?AUdevice_buf@@XZ 004134d0 f   usebuffer.obj
 0001:00012640       ?PopDatabaseQueue@UserBuffer@@QAE?AVQString@@XZ 00413640 f   usebuffer.obj
 0001:00012770       ?PopFrontSendList@UserBuffer@@QAEXABVQString@@@Z 00413770 f   usebuffer.obj
 0001:000128b0       ?PopResponseQueue@UserBuffer@@QAE?AVQString@@ABV2@@Z 004138b0 f   usebuffer.obj
 0001:00012a10       ?PopUserDLData@UserBuffer@@QAE?AVQStringList@@XZ 00413a10 f   usebuffer.obj
 0001:00012b00       ?PushBackSendList@UserBuffer@@QAEXABVQString@@ABUSendMessageData@@@Z 00413b00 f   usebuffer.obj
 0001:00012cd0       ?PushCanDeviceQueue@UserBuffer@@QAEXABUdevice_buf@@@Z 00413cd0 f   usebuffer.obj
 0001:00012de0       ?PushDatabaseQueue@UserBuffer@@QAEXHABVQString@@@Z 00413de0 f   usebuffer.obj
 0001:00013010       ?PushDatabaseQueueAll@UserBuffer@@QAEXABVQString@@H@Z 00414010 f   usebuffer.obj
 0001:00013170       ?PushResponseQueue@UserBuffer@@QAEXABVQString@@ABUresponse_data@@@Z 00414170 f   usebuffer.obj
 0001:00013260       ?PushUserDLData@UserBuffer@@QAEXABVQStringList@@@Z 00414260 f   usebuffer.obj
 0001:00013330       ?ReadDeviceToClientMap@UserBuffer@@QAE?AVQStringList@@ABVQString@@@Z 00414330 f   usebuffer.obj
 0001:00013580       ?ReadDeviceToDhData@UserBuffer@@QAE?AVQString@@ABV2@@Z 00414580 f   usebuffer.obj
 0001:00013780       ?ReadDhxzBuffer@UserBuffer@@QAE?AVQString@@XZ 00414780 f   usebuffer.obj
 0001:000137b0       ?Read_buffer@UserBuffer@@QAE_NHPADH@Z 004147b0 f   usebuffer.obj
 0001:00013910       ?ReturnDatabaseQueueSize@UserBuffer@@QAEHXZ 00414910 f   usebuffer.obj
 0001:000139d0       ?SetBmqBeginZdJsz@UserBuffer@@QAEXABVQString@@ABH@Z 004149d0 f   usebuffer.obj
 0001:00013aa0       ?SetBmqJsz@UserBuffer@@QAEXABVQString@@ABH1@Z 00414aa0 f   usebuffer.obj
 0001:00013c80       ?SetBmqNewestJsz@UserBuffer@@QAEXABVQString@@ABH@Z 00414c80 f   usebuffer.obj
 0001:00013d50       ?TestRead_buffer@UserBuffer@@QAE_NXZ 00414d50 f   usebuffer.obj
 0001:00013d70       ?WriteDeviceToClientMap@UserBuffer@@QAEXABVQString@@0@Z 00414d70 f   usebuffer.obj
 0001:00013e50       ?WriteDeviceToDhData@UserBuffer@@QAEXABVQString@@0@Z 00414e50 f   usebuffer.obj
 0001:00013f30       ?WriteDhxzBuffer@UserBuffer@@QAEXABVQString@@@Z 00414f30 f   usebuffer.obj
 0001:00013f40       ?Write_buffer@UserBuffer@@QAE_NHPADH@Z 00414f40 f   usebuffer.obj
 0001:00014050       ?_Copy@?$basic_string@DU?$char_traits@D@std@@V?$allocator@D@2@@std@@QAEXII@Z 00415050 f i usebuffer.obj
 0001:00014260       ?_Deallocate@std@@YAXPAXII@Z 00415260 f i usebuffer.obj
 0001:000142e0       ?_Reallocate@?$vector@V?$intrusive_ptr@Vbasic_cv_list_entry@detail@boost@@@boost@@V?$allocator@V?$intrusive_ptr@Vbasic_cv_list_entry@detail@boost@@@boost@@@std@@@std@@IAEXI@Z 004152e0 f i usebuffer.obj
 0001:000143e0       ?_Reserve@?$vector@V?$intrusive_ptr@Vbasic_cv_list_entry@detail@boost@@@boost@@V?$allocator@V?$intrusive_ptr@Vbasic_cv_list_entry@detail@boost@@@boost@@@std@@@std@@IAEXI@Z 004153e0 f i usebuffer.obj
 0001:00014460       ?allocate@?$_Wrap_alloc@V?$allocator@D@std@@@std@@QAEPADI@Z 00415460 f i usebuffer.obj
 0001:000144d0       ?allocate@?$allocator@V?$intrusive_ptr@Vbasic_cv_list_entry@detail@boost@@@boost@@@std@@QAEPAV?$intrusive_ptr@Vbasic_cv_list_entry@detail@boost@@@boost@@I@Z 004154d0 f i usebuffer.obj
 0001:00014560       ?append@?$QList@USendMessageData@@@@QAEXABUSendMessageData@@@Z 00415560 f i usebuffer.obj
 0001:00014640       ?append@?$QList@Udevice_buf@@@@QAEXABUdevice_buf@@@Z 00415640 f i usebuffer.obj
 0001:00014720       ?append@?$QList@VQString@@@@QAEXABVQString@@@Z 00415720 f i usebuffer.obj
 0001:00014800       ?append@?$QList@VQStringList@@@@QAEXABVQStringList@@@Z 00415800 f i usebuffer.obj
 0001:00014920       ?append@?$basic_string@DU?$char_traits@D@std@@V?$allocator@D@2@@std@@QAEAAV12@ABV12@II@Z 00415920 f i usebuffer.obj
 0001:00014a50       ?append@?$basic_string@DU?$char_traits@D@std@@V?$allocator@D@2@@std@@QAEAAV12@PBDI@Z 00415a50 f i usebuffer.obj
 0001:00014bc0       ?assign@?$basic_string@DU?$char_traits@D@std@@V?$allocator@D@2@@std@@QAEAAV12@ABV12@II@Z 00415bc0 f i usebuffer.obj
 0001:00014d20       ?assign@?$basic_string@DU?$char_traits@D@std@@V?$allocator@D@2@@std@@QAEAAV12@PBDI@Z 00415d20 f i usebuffer.obj
 0001:00014e53       ?clone@?$clone_impl@U?$error_info_injector@Ubad_day_of_month@gregorian@boost@@@exception_detail@boost@@@exception_detail@boost@@$0PPPPPPPM@A@BEPBVclone_base@23@XZ 00415e53 f i usebuffer.obj
 0001:00014e60       ?clone@?$clone_impl@U?$error_info_injector@Ubad_day_of_month@gregorian@boost@@@exception_detail@boost@@@exception_detail@boost@@EBEPBVclone_base@23@XZ 00415e60 f i usebuffer.obj
 0001:00014efe       ?clone@?$clone_impl@U?$error_info_injector@Ubad_month@gregorian@boost@@@exception_detail@boost@@@exception_detail@boost@@$0PPPPPPPM@A@BEPBVclone_base@23@XZ 00415efe f i usebuffer.obj
 0001:00014f10       ?clone@?$clone_impl@U?$error_info_injector@Ubad_month@gregorian@boost@@@exception_detail@boost@@@exception_detail@boost@@EBEPBVclone_base@23@XZ 00415f10 f i usebuffer.obj
 0001:00014fae       ?clone@?$clone_impl@U?$error_info_injector@Ubad_year@gregorian@boost@@@exception_detail@boost@@@exception_detail@boost@@$0PPPPPPPM@A@BEPBVclone_base@23@XZ 00415fae f i usebuffer.obj
 0001:00014fc0       ?clone@?$clone_impl@U?$error_info_injector@Ubad_year@gregorian@boost@@@exception_detail@boost@@@exception_detail@boost@@EBEPBVclone_base@23@XZ 00415fc0 f i usebuffer.obj
 0001:0001505e       ?clone@?$clone_impl@U?$error_info_injector@Vlock_error@boost@@@exception_detail@boost@@@exception_detail@boost@@$0PPPPPPPM@A@BEPBVclone_base@23@XZ 0041605e f i usebuffer.obj
 0001:00015070       ?clone@?$clone_impl@U?$error_info_injector@Vlock_error@boost@@@exception_detail@boost@@@exception_detail@boost@@EBEPBVclone_base@23@XZ 00416070 f i usebuffer.obj
 0001:00015110       ?clone@?$clone_impl@U?$error_info_injector@Vsystem_error@system@boost@@@exception_detail@boost@@@exception_detail@boost@@EBEPBVclone_base@23@XZ 00416110 f i usebuffer.obj
 0001:000151ae       ?clone@?$clone_impl@U?$error_info_injector@Vthread_resource_error@boost@@@exception_detail@boost@@@exception_detail@boost@@$0PPPPPPPM@A@BEPBVclone_base@23@XZ 004161ae f i usebuffer.obj
 0001:000151c0       ?clone@?$clone_impl@U?$error_info_injector@Vthread_resource_error@boost@@@exception_detail@boost@@@exception_detail@boost@@EBEPBVclone_base@23@XZ 004161c0 f i usebuffer.obj
 0001:00015260       ?clone@?$clone_impl@Ubad_alloc_@exception_detail@boost@@@exception_detail@boost@@EBEPBVclone_base@23@XZ 00416260 f i usebuffer.obj
 0001:00015370       ?clone@?$clone_impl@Ubad_exception_@exception_detail@boost@@@exception_detail@boost@@EBEPBVclone_base@23@XZ 00416370 f i usebuffer.obj
 0001:00015480       ?copy@?$QMapNode@HVQString@@@@QBEPAU1@PAU?$QMapData@HVQString@@@@@Z 00416480 f i usebuffer.obj
 0001:00015530       ?copy@?$QMapNode@VQString@@H@@QBEPAU1@PAU?$QMapData@VQString@@H@@@Z 00416530 f i usebuffer.obj
 0001:000155e0       ?copy@?$QMapNode@VQString@@N@@QBEPAU1@PAU?$QMapData@VQString@@N@@@Z 004165e0 f i usebuffer.obj
 0001:00015690       ?copy@?$QMapNode@VQString@@Uresponse_data@@@@QBEPAU1@PAU?$QMapData@VQString@@Uresponse_data@@@@@Z 00416690 f i usebuffer.obj
 0001:00015740       ?copy@?$QMapNode@VQString@@V1@@@QBEPAU1@PAU?$QMapData@VQString@@V1@@@@Z 00416740 f i usebuffer.obj
 0001:000157f0       ?copy@?$QMapNode@VQString@@V?$shared_ptr@V?$QList@USendMessageData@@@@@boost@@@@QBEPAU1@PAU?$QMapData@VQString@@V?$shared_ptr@V?$QList@USendMessageData@@@@@boost@@@@@Z 004167f0 f i usebuffer.obj
 0001:000158a0       ?copy@?$QMapNode@VQString@@VQStringList@@@@QBEPAU1@PAU?$QMapData@VQString@@VQStringList@@@@@Z 004168a0 f i usebuffer.obj
 0001:00015950       ?copy_boost_exception@exception_detail@boost@@YAXPAVexception@2@PBV32@@Z 00416950 f i usebuffer.obj
 0001:00015a50       ?createNode@?$QMapData@HVQString@@@@QAEPAU?$QMapNode@HVQString@@@@ABHABVQString@@PAU2@_N@Z 00416a50 f i usebuffer.obj
 0001:00015aa0       ?createNode@?$QMapData@VQString@@H@@QAEPAU?$QMapNode@VQString@@H@@ABVQString@@ABHPAU2@_N@Z 00416aa0 f i usebuffer.obj
 0001:00015af0       ?createNode@?$QMapData@VQString@@N@@QAEPAU?$QMapNode@VQString@@N@@ABVQString@@ABNPAU2@_N@Z 00416af0 f i usebuffer.obj
 0001:00015b40       ?createNode@?$QMapData@VQString@@Uresponse_data@@@@QAEPAU?$QMapNode@VQString@@Uresponse_data@@@@ABVQString@@ABUresponse_data@@PAU2@_N@Z 00416b40 f i usebuffer.obj
 0001:00015bb0       ?createNode@?$QMapData@VQString@@V1@@@QAEPAU?$QMapNode@VQString@@V1@@@ABVQString@@0PAU2@_N@Z 00416bb0 f i usebuffer.obj
 0001:00015c00       ?createNode@?$QMapData@VQString@@V?$shared_ptr@V?$QList@USendMessageData@@@@@boost@@@@QAEPAU?$QMapNode@VQString@@V?$shared_ptr@V?$QList@USendMessageData@@@@@boost@@@@ABVQString@@ABV?$shared_ptr@V?$QList@USendMessageData@@@@@boost@@PAU2@_N@Z 00416c00 f i usebuffer.obj
 0001:00015c70       ?createNode@?$QMapData@VQString@@VQStringList@@@@QAEPAU?$QMapNode@VQString@@VQStringList@@@@ABVQString@@ABVQStringList@@PAU2@_N@Z 00416c70 f i usebuffer.obj
 0001:00015d50       ?dealloc@?$QList@USendMessageData@@@@AAEXPAUData@QListData@@@Z 00416d50 f i usebuffer.obj
 0001:00015db0       ?dealloc@?$QList@Udevice_buf@@@@AAEXPAUData@QListData@@@Z 00416db0 f i usebuffer.obj
 0001:00015e10       ?default_error_condition@error_category@system@boost@@UBE?AVerror_condition@23@H@Z 00416e10 f i usebuffer.obj
 0001:00015e30       ?deliver_signal@signal_set_service@detail@asio@boost@@SAXH@Z 00416e30 f i usebuffer.obj
 0001:00015f40       ?dequeue@?$QQueue@VQString@@@@QAE?AVQString@@XZ 00416f40 f i usebuffer.obj
 0001:00015f70       ?dequeue@?$QQueue@VQStringList@@@@QAE?AVQStringList@@XZ 00416f70 f i usebuffer.obj
 0001:00015fa0       ?destroySubTree@?$QMapNode@HVQString@@@@QAEXXZ 00416fa0 f i usebuffer.obj
 0001:00015fd0       ?destroySubTree@?$QMapNode@VQString@@H@@QAEXXZ 00416fd0 f i usebuffer.obj
 0001:00016000       ?destroySubTree@?$QMapNode@VQString@@N@@QAEXXZ 00417000 f i usebuffer.obj
 0001:00016030       ?destroySubTree@?$QMapNode@VQString@@Uresponse_data@@@@QAEXXZ 00417030 f i usebuffer.obj
 0001:00016080       ?destroySubTree@?$QMapNode@VQString@@V1@@@QAEXXZ 00417080 f i usebuffer.obj
 0001:000160c0       ?destroySubTree@?$QMapNode@VQString@@V?$QList@USendMessageData@@@@@@QAEXXZ 004170c0 f i usebuffer.obj
 0001:00016170       ?destroySubTree@?$QMapNode@VQString@@V?$shared_ptr@V?$QList@USendMessageData@@@@@boost@@@@QAEXXZ 00417170 f i usebuffer.obj
 0001:00016230       ?destroySubTree@?$QMapNode@VQString@@VQStringList@@@@QAEXXZ 00417230 f i usebuffer.obj
 0001:00016270       ?detach_helper@?$QList@USendMessageData@@@@AAEXH@Z 00417270 f i usebuffer.obj
 0001:00016370       ?detach_helper@?$QList@Udevice_buf@@@@AAEXH@Z 00417370 f i usebuffer.obj
 0001:00016470       ?detach_helper@?$QList@VQString@@@@AAEXH@Z 00417470 f i usebuffer.obj
 0001:000165a0       ?detach_helper@?$QList@VQStringList@@@@AAEXH@Z 004175a0 f i usebuffer.obj
 0001:000166c0       ?detach_helper@?$QMap@HVQString@@@@AAEXXZ 004176c0 f i usebuffer.obj
 0001:00016790       ?detach_helper@?$QMap@VQString@@H@@AAEXXZ 00417790 f i usebuffer.obj
 0001:00016860       ?detach_helper@?$QMap@VQString@@N@@AAEXXZ 00417860 f i usebuffer.obj
 0001:00016930       ?detach_helper@?$QMap@VQString@@Uresponse_data@@@@AAEXXZ 00417930 f i usebuffer.obj
 0001:000169d0       ?detach_helper@?$QMap@VQString@@V1@@@AAEXXZ 004179d0 f i usebuffer.obj
 0001:00016a70       ?detach_helper@?$QMap@VQString@@V?$shared_ptr@V?$QList@USendMessageData@@@@@boost@@@@AAEXXZ 00417a70 f i usebuffer.obj
 0001:00016b10       ?detach_helper@?$QMap@VQString@@VQStringList@@@@AAEXXZ 00417b10 f i usebuffer.obj
 0001:00016bf0       ?detach_helper_grow@?$QList@USendMessageData@@@@AAEPAUNode@1@HH@Z 00417bf0 f i usebuffer.obj
 0001:00016d90       ?detach_helper_grow@?$QList@Udevice_buf@@@@AAEPAUNode@1@HH@Z 00417d90 f i usebuffer.obj
 0001:00016f30       ?detach_helper_grow@?$QList@VQString@@@@AAEPAUNode@1@HH@Z 00417f30 f i usebuffer.obj
 0001:00017110       ?detach_helper_grow@?$QList@VQStringList@@@@AAEPAUNode@1@HH@Z 00418110 f i usebuffer.obj
 0001:000172d0       ?dispose@?$sp_counted_impl_p@V?$QList@USendMessageData@@@@@detail@boost@@UAEXXZ 004182d0 f i usebuffer.obj
 0001:00017360       ?do_throw_error@detail@asio@boost@@YAXABVerror_code@system@3@PBD@Z 00418360 f i usebuffer.obj
 0001:00017410       ?duplicate_handle@win32@detail@boost@@YAPAXPAX@Z 00418410 f i usebuffer.obj
 0001:000174c0       ?equivalent@error_category@system@boost@@UBE_NABVerror_code@23@H@Z 004184c0 f i usebuffer.obj
 0001:000174f0       ?equivalent@error_category@system@boost@@UBE_NHABVerror_condition@23@@Z 004184f0 f i usebuffer.obj
 0001:00017530       ?erase@?$QList@USendMessageData@@@@QAE?AViterator@1@V21@@Z 00418530 f i usebuffer.obj
 0001:000175c0       ?erase@?$QList@Udevice_buf@@@@QAE?AViterator@1@V21@@Z 004185c0 f i usebuffer.obj
 0001:00017650       ?erase@?$QList@VQString@@@@QAE?AViterator@1@V21@@Z 00418650 f i usebuffer.obj
 0001:000176e0       ?erase@?$QList@VQStringList@@@@QAE?AViterator@1@V21@@Z 004186e0 f i usebuffer.obj
 0001:00017770       ?erase@?$basic_string@DU?$char_traits@D@std@@V?$allocator@D@2@@std@@QAEAAV12@II@Z 00418770 f i usebuffer.obj
 0001:00017840       ?findNode@?$QMapData@HVQString@@@@QBEPAU?$QMapNode@HVQString@@@@ABH@Z 00418840 f i usebuffer.obj
 0001:00017890       ?findNode@?$QMapData@VQString@@H@@QBEPAU?$QMapNode@VQString@@H@@ABVQString@@@Z 00418890 f i usebuffer.obj
 0001:000178e0       ?findNode@?$QMapData@VQString@@N@@QBEPAU?$QMapNode@VQString@@N@@ABVQString@@@Z 004188e0 f i usebuffer.obj
 0001:00017930       ?findNode@?$QMapData@VQString@@Uresponse_data@@@@QBEPAU?$QMapNode@VQString@@Uresponse_data@@@@ABVQString@@@Z 00418930 f i usebuffer.obj
 0001:00017980       ?findNode@?$QMapData@VQString@@V1@@@QBEPAU?$QMapNode@VQString@@V1@@@ABVQString@@@Z 00418980 f i usebuffer.obj
 0001:000179d0       ?findNode@?$QMapData@VQString@@V?$shared_ptr@V?$QList@USendMessageData@@@@@boost@@@@QBEPAU?$QMapNode@VQString@@V?$shared_ptr@V?$QList@USendMessageData@@@@@boost@@@@ABVQString@@@Z 004189d0 f i usebuffer.obj
 0001:00017a20       ?findNode@?$QMapData@VQString@@VQStringList@@@@QBEPAU?$QMapNode@VQString@@VQStringList@@@@ABVQString@@@Z 00418a20 f i usebuffer.obj
 0001:00017a70       ?get_deleter@?$sp_counted_impl_p@V?$QList@USendMessageData@@@@@detail@boost@@UAEPAXABVtype_info@@@Z 00418a70 f i usebuffer.obj
 0001:00017a80       ?get_event@basic_timed_mutex@detail@boost@@AAEPAXXZ 00418a80 f i usebuffer.obj
 0001:00017b30       ?get_misc_category@error@asio@boost@@YAABVerror_category@system@3@XZ 00418b30 f i usebuffer.obj
 0001:00017bb0       ?get_signal_state@detail@asio@boost@@YAPAUsignal_state@123@XZ 00418bb0 f i usebuffer.obj
 0001:00017bc0       ?get_untyped_deleter@?$sp_counted_impl_p@V?$QList@USendMessageData@@@@@detail@boost@@UAEPAXXZ 00418bc0 f i usebuffer.obj
 0001:00017bd0       ?get_wait_entry@basic_condition_variable@detail@boost@@AAE?AV?$intrusive_ptr@Vbasic_cv_list_entry@detail@boost@@@3@XZ 00418bd0 f i usebuffer.obj
 0001:00017d90       ?insert@?$QMap@HVQString@@@@QAE?AViterator@1@ABHABVQString@@@Z 00418d90 f i usebuffer.obj
 0001:00017e50       ?insert@?$QMap@VQString@@H@@QAE?AViterator@1@ABVQString@@ABH@Z 00418e50 f i usebuffer.obj
 0001:00017f30       ?insert@?$QMap@VQString@@N@@QAE?AViterator@1@ABVQString@@ABN@Z 00418f30 f i usebuffer.obj
 0001:00018020       ?insert@?$QMap@VQString@@Uresponse_data@@@@QAE?AViterator@1@ABVQString@@ABUresponse_data@@@Z 00419020 f i usebuffer.obj
 0001:00018120       ?insert@?$QMap@VQString@@V1@@@QAE?AViterator@1@ABVQString@@0@Z 00419120 f i usebuffer.obj
 0001:00018210       ?insert@?$QMap@VQString@@V?$shared_ptr@V?$QList@USendMessageData@@@@@boost@@@@QAE?AViterator@1@ABVQString@@ABV?$shared_ptr@V?$QList@USendMessageData@@@@@boost@@@Z 00419210 f i usebuffer.obj
 0001:00018300       ?insert@?$QMap@VQString@@VQStringList@@@@QAE?AViterator@1@ABVQString@@ABVQStringList@@@Z 00419300 f i usebuffer.obj
 0001:00018410       ?lock@?$unique_lock@Vmutex@boost@@@boost@@QAEXXZ 00419410 f i usebuffer.obj
 0001:00018530       ?lock@?$unique_lock@Vrecursive_mutex@boost@@@boost@@QAEXXZ 00419530 f i usebuffer.obj
 0001:00018680       ?lock@basic_timed_mutex@detail@boost@@QAEXXZ 00419680 f i usebuffer.obj
 0001:00018720       ?lowerBound@?$QMapNode@VQString@@H@@QAEPAU1@ABVQString@@@Z 00419720 f i usebuffer.obj
 0001:00018770       ?lowerBound@?$QMapNode@VQString@@N@@QAEPAU1@ABVQString@@@Z 00419770 f i usebuffer.obj
 0001:000187c0       ?lowerBound@?$QMapNode@VQString@@Uresponse_data@@@@QAEPAU1@ABVQString@@@Z 004197c0 f i usebuffer.obj
 0001:00018810       ?lowerBound@?$QMapNode@VQString@@V1@@@QAEPAU1@ABVQString@@@Z 00419810 f i usebuffer.obj
 0001:00018860       ?lowerBound@?$QMapNode@VQString@@V?$shared_ptr@V?$QList@USendMessageData@@@@@boost@@@@QAEPAU1@ABVQString@@@Z 00419860 f i usebuffer.obj
 0001:000188b0       ?lowerBound@?$QMapNode@VQString@@VQStringList@@@@QAEPAU1@ABVQString@@@Z 004198b0 f i usebuffer.obj
 0001:00018900       ?mark_waiting_and_try_lock@basic_timed_mutex@detail@boost@@QAEXAAJ@Z 00419900 f i usebuffer.obj
 0001:00018960       ?message@error_code@system@boost@@QBE?AV?$basic_string@DU?$char_traits@D@std@@V?$allocator@D@2@@std@@XZ 00419960 f i usebuffer.obj
 0001:00018990       ?message@misc_category@detail@error@asio@boost@@UBE?AV?$basic_string@DU?$char_traits@D@std@@V?$allocator@D@2@@std@@H@Z 00419990 f i usebuffer.obj
 0001:00018a70       ?name@misc_category@detail@error@asio@boost@@UBEPBDXZ 00419a70 f i usebuffer.obj
 0001:00018a80       ?node_copy@?$QList@USendMessageData@@@@AAEXPAUNode@1@00@Z 00419a80 f i usebuffer.obj
 0001:00018b70       ?node_copy@?$QList@Udevice_buf@@@@AAEXPAUNode@1@00@Z 00419b70 f i usebuffer.obj
 0001:00018c60       ?node_copy@?$QList@VQString@@@@AAEXPAUNode@1@00@Z 00419c60 f i usebuffer.obj
 0001:00018ca0       ?node_copy@?$QList@VQStringList@@@@AAEXPAUNode@1@00@Z 00419ca0 f i usebuffer.obj
 0001:00018d70       ?node_destruct@?$QList@USendMessageData@@@@AAEXPAUNode@1@0@Z 00419d70 f i usebuffer.obj
 0001:00018db0       ?node_destruct@?$QList@Udevice_buf@@@@AAEXPAUNode@1@0@Z 00419db0 f i usebuffer.obj
 0001:00018df0       ?node_destruct@?$QList@VQString@@@@AAEXPAUNode@1@0@Z 00419df0 f i usebuffer.obj
 0001:00018e20       ?node_destruct@?$QList@VQStringList@@@@AAEXPAUNode@1@0@Z 00419e20 f i usebuffer.obj
 0001:00018f00       ?notify_all@basic_condition_variable@detail@boost@@QAEXXZ 00419f00 f i usebuffer.obj
 0001:00019040       ?post_deferred_completions@win_iocp_io_service@detail@asio@boost@@QAEXAAV?$op_queue@Vwin_iocp_operation@detail@asio@boost@@@234@@Z 0041a040 f i usebuffer.obj
 0001:00019130       ?push_back@?$vector@V?$intrusive_ptr@Vbasic_cv_list_entry@detail@boost@@@boost@@V?$allocator@V?$intrusive_ptr@Vbasic_cv_list_entry@detail@boost@@@boost@@@std@@@std@@QAEXABV?$intrusive_ptr@Vbasic_cv_list_entry@detail@boost@@@boost@@@Z 0041a130 f i usebuffer.obj
 0001:000191ab       ?rethrow@?$clone_impl@U?$error_info_injector@Ubad_day_of_month@gregorian@boost@@@exception_detail@boost@@@exception_detail@boost@@$0PPPPPPPM@A@BEXXZ 0041a1ab f i usebuffer.obj
 0001:000191c0       ?rethrow@?$clone_impl@U?$error_info_injector@Ubad_day_of_month@gregorian@boost@@@exception_detail@boost@@@exception_detail@boost@@EBEXXZ 0041a1c0 f i usebuffer.obj
 0001:00019279       ?rethrow@?$clone_impl@U?$error_info_injector@Ubad_month@gregorian@boost@@@exception_detail@boost@@@exception_detail@boost@@$0PPPPPPPM@A@BEXXZ 0041a279 f i usebuffer.obj
 0001:00019290       ?rethrow@?$clone_impl@U?$error_info_injector@Ubad_month@gregorian@boost@@@exception_detail@boost@@@exception_detail@boost@@EBEXXZ 0041a290 f i usebuffer.obj
 0001:00019349       ?rethrow@?$clone_impl@U?$error_info_injector@Ubad_year@gregorian@boost@@@exception_detail@boost@@@exception_detail@boost@@$0PPPPPPPM@A@BEXXZ 0041a349 f i usebuffer.obj
 0001:00019360       ?rethrow@?$clone_impl@U?$error_info_injector@Ubad_year@gregorian@boost@@@exception_detail@boost@@@exception_detail@boost@@EBEXXZ 0041a360 f i usebuffer.obj
 0001:00019419       ?rethrow@?$clone_impl@U?$error_info_injector@Vlock_error@boost@@@exception_detail@boost@@@exception_detail@boost@@$0PPPPPPPM@A@BEXXZ 0041a419 f i usebuffer.obj
 0001:00019430       ?rethrow@?$clone_impl@U?$error_info_injector@Vlock_error@boost@@@exception_detail@boost@@@exception_detail@boost@@EBEXXZ 0041a430 f i usebuffer.obj
 0001:000194f0       ?rethrow@?$clone_impl@U?$error_info_injector@Vsystem_error@system@boost@@@exception_detail@boost@@@exception_detail@boost@@EBEXXZ 0041a4f0 f i usebuffer.obj
 0001:00019528       ?rethrow@?$clone_impl@U?$error_info_injector@Vthread_resource_error@boost@@@exception_detail@boost@@@exception_detail@boost@@$0PPPPPPPM@A@BEXXZ 0041a528 f i usebuffer.obj
 0001:00019540       ?rethrow@?$clone_impl@U?$error_info_injector@Vthread_resource_error@boost@@@exception_detail@boost@@@exception_detail@boost@@EBEXXZ 0041a540 f i usebuffer.obj
 0001:00019600       ?rethrow@?$clone_impl@Ubad_alloc_@exception_detail@boost@@@exception_detail@boost@@EBEXXZ 0041a600 f i usebuffer.obj
 0001:000196c0       ?rethrow@?$clone_impl@Ubad_exception_@exception_detail@boost@@@exception_detail@boost@@EBEXXZ 0041a6c0 f i usebuffer.obj
 0001:00019780       ?sp_enable_shared_from_this@detail@boost@@YAXZZ 0041a780 f i usebuffer.obj
 0001:00019790       ?takeFirst@?$QList@VQString@@@@QAE?AVQString@@XZ 0041a790 f i usebuffer.obj
 0001:00019870       ?takeFirst@?$QList@VQStringList@@@@QAE?AVQStringList@@XZ 0041a870 f i usebuffer.obj
 0001:00019950       ?unspecified_bool_true@error_code@system@boost@@SAXXZ 0041a950 f i usebuffer.obj
 0001:00019960       _boost_asio_signal_handler 0041a960 f i usebuffer.obj
 0001:000199b0       ?qCleanupResources_Lifter_server_mscv@@YAHXZ 0041a9b0 f   qrc_Lifter_server_mscv.obj
 0001:000199c0       ?qInitResources_Lifter_server_mscv@@YAHXZ 0041a9c0 f   qrc_Lifter_server_mscv.obj
 0001:000199d0       ?metaObject@Lifter_server_mscv@@UBEPBUQMetaObject@@XZ 0041a9d0 f   moc_Lifter_server_mscv.obj
 0001:000199f0       ?metaObject@Thread@@UBEPBUQMetaObject@@XZ 0041a9f0 f   moc_Lifter_server_mscv.obj
 0001:00019a10       ?qt_metacall@Lifter_server_mscv@@UAEHW4Call@QMetaObject@@HPAPAX@Z 0041aa10 f   moc_Lifter_server_mscv.obj
 0001:00019ab0       ?qt_metacall@Thread@@UAEHW4Call@QMetaObject@@HPAPAX@Z 0041aab0 f   moc_Lifter_server_mscv.obj
 0001:00019b30       ?qt_metacast@Lifter_server_mscv@@UAEPAXPBD@Z 0041ab30 f   moc_Lifter_server_mscv.obj
 0001:00019bb0       ?qt_metacast@Thread@@UAEPAXPBD@Z 0041abb0 f   moc_Lifter_server_mscv.obj
 0001:00019c30       ?qt_static_metacall@Lifter_server_mscv@@CAXPAVQObject@@W4Call@QMetaObject@@HPAPAX@Z 0041ac30 f   moc_Lifter_server_mscv.obj
 0001:00019c70       ?qt_static_metacall@Thread@@CAXPAVQObject@@W4Call@QMetaObject@@HPAPAX@Z 0041ac70 f   moc_Lifter_server_mscv.obj
 0001:00019ce0       ?showData@Thread@@QAEXABVQStringList@@@Z 0041ace0 f   moc_Lifter_server_mscv.obj
 0001:00019d20       ?metaObject@MyDatabase@@UBEPBUQMetaObject@@XZ 0041ad20 f   moc_mydatabase.obj
 0001:00019d40       ?qt_metacall@MyDatabase@@UAEHW4Call@QMetaObject@@HPAPAX@Z 0041ad40 f   moc_mydatabase.obj
 0001:00019dc0       ?qt_metacast@MyDatabase@@UAEPAXPBD@Z 0041adc0 f   moc_mydatabase.obj
 0001:00019e40       ?qt_static_metacall@MyDatabase@@CAXPAVQObject@@W4Call@QMetaObject@@HPAPAX@Z 0041ae40 f   moc_mydatabase.obj
 0001:00019e60       ?metaObject@MyQuitThread@@UBEPBUQMetaObject@@XZ 0041ae60 f   moc_server_manager.obj
 0001:00019e80       ?qt_metacall@MyQuitThread@@UAEHW4Call@QMetaObject@@HPAPAX@Z 0041ae80 f   moc_server_manager.obj
 0001:00019e90       ?qt_metacast@MyQuitThread@@UAEPAXPBD@Z 0041ae90 f   moc_server_manager.obj
 0001:00019f10       ?qt_static_metacall@MyQuitThread@@CAXPAVQObject@@W4Call@QMetaObject@@HPAPAX@Z 0041af10 f   moc_server_manager.obj
 0001:00019f20       ??$connect@P8QThread@@AEXUQPrivateSignal@1@@ZP8QEventLoop@@AEXXZ@QObject@@SA?AVConnection@QMetaObject@@PBVQThread@@P83@AEXUQPrivateSignal@3@@ZPBVQEventLoop@@P85@AEXXZW4ConnectionType@Qt@@@Z 0041af20 f i Lifter_server_mscv.obj
 0001:00019fa0       ??$connect@P8Thread@@AEXABVQStringList@@@ZP8Lifter_server_mscv@@AEX0@Z@QObject@@SA?AVConnection@QMetaObject@@PBVThread@@P83@AEXABVQStringList@@@ZPBVLifter_server_mscv@@P85@AEX1@ZW4ConnectionType@Qt@@@Z 0041afa0 f i Lifter_server_mscv.obj
 0001:0001a040       ??0Lifter_server_mscv@@QAE@PAVQWidget@@@Z 0041b040 f   Lifter_server_mscv.obj
 0001:0001a190       ??1Lifter_server_mscv@@UAE@XZ 0041b190 f   Lifter_server_mscv.obj
 0001:0001a290       ??1Thread@@UAE@XZ          0041b290 f i Lifter_server_mscv.obj
 0001:0001a2a0       ??H@YA?BVQString@@PBDABV0@@Z 0041b2a0 f i Lifter_server_mscv.obj
 0001:0001a410       ??_ELifter_server_mscv@@W7AEPAXI@Z 0041b410 f i Lifter_server_mscv.obj
 0001:0001a41a       ??_EQListView@@W7AEPAXI@Z  0041b41a f i Lifter_server_mscv.obj
 0001:0001a424       ??_EQMenuBar@@W7AEPAXI@Z   0041b424 f i Lifter_server_mscv.obj
 0001:0001a42e       ??_EQPushButton@@W7AEPAXI@Z 0041b42e f i Lifter_server_mscv.obj
 0001:0001a438       ??_EQStatusBar@@W7AEPAXI@Z 0041b438 f i Lifter_server_mscv.obj
 0001:0001a442       ??_EQToolBar@@W7AEPAXI@Z   0041b442 f i Lifter_server_mscv.obj
 0001:0001a44c       ??_EQWidget@@W7AEPAXI@Z    0041b44c f i Lifter_server_mscv.obj
 0001:0001a460       ??_ELifter_server_mscv@@UAEPAXI@Z 0041b460 f i Lifter_server_mscv.obj
 0001:0001a460       ??_GLifter_server_mscv@@UAEPAXI@Z 0041b460 f i Lifter_server_mscv.obj
 0001:0001a490       ??_EQListView@@UAEPAXI@Z   0041b490 f i Lifter_server_mscv.obj
 0001:0001a490       ??_GQListView@@UAEPAXI@Z   0041b490 f i Lifter_server_mscv.obj
 0001:0001a4c0       ??_GQMenuBar@@UAEPAXI@Z    0041b4c0 f i Lifter_server_mscv.obj
 0001:0001a4c0       ??_EQMenuBar@@UAEPAXI@Z    0041b4c0 f i Lifter_server_mscv.obj
 0001:0001a4f0       ??_GQPushButton@@UAEPAXI@Z 0041b4f0 f i Lifter_server_mscv.obj
 0001:0001a4f0       ??_EQPushButton@@UAEPAXI@Z 0041b4f0 f i Lifter_server_mscv.obj
 0001:0001a520       ??_GQStatusBar@@UAEPAXI@Z  0041b520 f i Lifter_server_mscv.obj
 0001:0001a520       ??_EQStatusBar@@UAEPAXI@Z  0041b520 f i Lifter_server_mscv.obj
 0001:0001a550       ??_EQStringListModel@@UAEPAXI@Z 0041b550 f i Lifter_server_mscv.obj
 0001:0001a550       ??_GQStringListModel@@UAEPAXI@Z 0041b550 f i Lifter_server_mscv.obj
 0001:0001a580       ??_EQToolBar@@UAEPAXI@Z    0041b580 f i Lifter_server_mscv.obj
 0001:0001a580       ??_GQToolBar@@UAEPAXI@Z    0041b580 f i Lifter_server_mscv.obj
 0001:0001a5b0       ??_GQWidget@@UAEPAXI@Z     0041b5b0 f i Lifter_server_mscv.obj
 0001:0001a5b0       ??_EQWidget@@UAEPAXI@Z     0041b5b0 f i Lifter_server_mscv.obj
 0001:0001a5e0       ??_GThread@@UAEPAXI@Z      0041b5e0 f i Lifter_server_mscv.obj
 0001:0001a5e0       ??_EThread@@UAEPAXI@Z      0041b5e0 f i Lifter_server_mscv.obj
 0001:0001a610       ?closeEvent@Lifter_server_mscv@@UAEXPAVQCloseEvent@@@Z 0041b610 f   Lifter_server_mscv.obj
 0001:0001a630       ?impl@?$QSlotObject@P8Lifter_server_mscv@@AEXABVQStringList@@@ZU?$List@ABVQStringList@@@QtPrivate@@X@QtPrivate@@CAXHPAVQSlotObjectBase@2@PAVQObject@@PAPAXPA_N@Z 0041b630 f i Lifter_server_mscv.obj
 0001:0001a6c0       ?impl@?$QSlotObject@P8QEventLoop@@AEXXZU?$List@$$V@QtPrivate@@X@QtPrivate@@CAXHPAVQSlotObjectBase@2@PAVQObject@@PAPAXPA_N@Z 0041b6c0 f i Lifter_server_mscv.obj
 0001:0001a720       ?on_pushButton_clear_clicked@Lifter_server_mscv@@AAEXXZ 0041b720 f   Lifter_server_mscv.obj
 0001:0001a780       ?retranslateUi@Ui_MainWindow@@QAEXPAVQMainWindow@@@Z 0041b780 f i Lifter_server_mscv.obj
 0001:0001a860       ?run@Thread@@UAEXXZ        0041b860 f i Lifter_server_mscv.obj
 0001:0001a9a0       ?setupUi@Ui_MainWindow@@QAEXPAVQMainWindow@@@Z 0041b9a0 f i Lifter_server_mscv.obj
 0001:0001ae40       ?show_ui_Data@Lifter_server_mscv@@QAEXABVQStringList@@@Z 0041be40 f   Lifter_server_mscv.obj
 0001:0001b030       ?types@?$ConnectionTypes@U?$List@ABVQStringList@@@QtPrivate@@$00@QtPrivate@@SAPBHXZ 0041c030 f i Lifter_server_mscv.obj
 0001:0001b0b0       ??$__vcrt_va_start_verify_argument_type@QB_W@@YAXXZ 0041c0b0 f i main.obj
 0001:0001b0e0       ?H2SMonitorServerUnhandledExceptionFilter@@YGJPAU_EXCEPTION_POINTERS@@@Z 0041c0e0 f   main.obj
 0001:0001b5c0       ?ServiceHandler@@YGXK@Z    0041c5c0 f   main.obj
 0001:0001b650       ?service_main@@YGXHPAPAD@Z 0041c650 f   main.obj
 0001:0001b740       ?srv_core_thread@@YGKPAX@Z 0041c740 f   main.obj
 0001:0001b7b0       ?swprintf@@YAHQA_WQB_WZZ   0041c7b0 f i main.obj
 0001:0001b7f0       ___local_stdio_printf_options 0041c7f0 f i main.obj
 0001:0001b800       _main                      0041c800 f   main.obj
 0001:0001b960       ??0BusinessSession@@AAE@XZ 0041c960 f   businesssession.obj
 0001:0001ba00       ??1BusinessSession@@QAE@XZ 0041ca00 f   businesssession.obj
 0001:0001c090       ??1MemoryConfig@@QAE@XZ    0041d090 f i businesssession.obj
 0001:0001c0c0       ??A?$QMap@VQString@@PAD@@QAEAAPADABVQString@@@Z 0041d0c0 f i businesssession.obj
 0001:0001c160       ??A?$QMap@VQString@@PAVCanModuleBuffer@@@@QAEAAPAVCanModuleBuffer@@ABVQString@@@Z 0041d160 f i businesssession.obj
 0001:0001c200       ??A?$QMap@VQString@@PAVExperimentThread@@@@QAEAAPAVExperimentThread@@ABVQString@@@Z 0041d200 f i businesssession.obj
 0001:0001c2a0       ??A?$QMap@VQString@@PAVUserBuffer@@@@QAEAAPAVUserBuffer@@ABVQString@@@Z 0041d2a0 f i businesssession.obj
 0001:0001c340       ??A?$QMap@VQString@@_N@@QAEAA_NABVQString@@@Z 0041d340 f i businesssession.obj
 0001:0001c3f0       ??_GExperimentThread@@UAEPAXI@Z 0041d3f0 f i businesssession.obj
 0001:0001c3f0       ??_EExperimentThread@@UAEPAXI@Z 0041d3f0 f i businesssession.obj
 0001:0001c430       ?DealBmqData@BusinessSession@@QAE?AVQString@@ABV2@0PADH@Z 0041d430 f   businesssession.obj
 0001:0001cf80       ??0Myserver@@AAE@FH@Z      0041df80 f i server.obj
 0001:0001d250       ?DealBmqQuit@BusinessSession@@QAE?AVQString@@ABV2@@Z 0041e250 f   businesssession.obj
 0001:0001d330       ?DealCgqData@BusinessSession@@QAE?AVQString@@ABV2@PADH@Z 0041e330 f   businesssession.obj
 0001:0001eb80       ?DealCgqQuit@BusinessSession@@QAE?AVQString@@ABV2@@Z 0041fb80 f   businesssession.obj
 0001:0001ec60       ?DealClientPackg@BusinessSession@@QAE_NVQString@@ABV2@@Z 0041fc60 f   businesssession.obj
 0001:00021160       ?DealJdqData@BusinessSession@@QAE?AVQString@@V2@PADH@Z 00422160 f   businesssession.obj
 0001:00021c80       ?DealJdqQuit@BusinessSession@@QAE?AVQString@@ABV2@@Z 00422c80 f   businesssession.obj
 0001:000221c0       ?GetDeviceUserBuffer@BusinessSession@@QAEPAVUserBuffer@@ABVQString@@H@Z 004231c0 f   businesssession.obj
 0001:000222a0       ?GetExitDevicePackg@BusinessSession@@QAE?AVQString@@ABV2@@Z 004232a0 f   businesssession.obj
 0001:000225b0       ?GetInstance@BusinessSession@@SAPAV1@XZ 004235b0 f   businesssession.obj
 0001:00022600       ?GetJdqControlOrder@BusinessSession@@QAE_NABVQString@@00AAV2@PADAAHH@Z 00423600 f   businesssession.obj
 0001:00022930       ?GetLastError@BusinessSession@@QAE?AVQString@@XZ 00423930 f   businesssession.obj
 0001:00022960       ?InterfaceFun@BusinessSession@@QAE?AVQString@@V2@PADH@Z 00423960 f   businesssession.obj
 0001:00022e70       ?ReadCanModuleBuffer@BusinessSession@@QAEHABVQString@@PAU_VCI_CAN_OBJ@@ABH@Z 00423e70 f   businesssession.obj
 0001:00022ee0       ?StartExperimentThread@BusinessSession@@QAEXABVQString@@ABUexperiment_struct@@@Z 00423ee0 f   businesssession.obj
 0001:00022ff0       ?WriteCanModuleBuffer@BusinessSession@@QAEXABVQString@@ABQAU_VCI_CAN_OBJ@@ABH@Z 00423ff0 f   businesssession.obj
 0001:000230e0       ?copy@?$QMapNode@VQString@@PAD@@QBEPAU1@PAU?$QMapData@VQString@@PAD@@@Z 004240e0 f i businesssession.obj
 0001:00023190       ?copy@?$QMapNode@VQString@@PAVCanModuleBuffer@@@@QBEPAU1@PAU?$QMapData@VQString@@PAVCanModuleBuffer@@@@@Z 00424190 f i businesssession.obj
 0001:00023240       ?copy@?$QMapNode@VQString@@PAVExperimentThread@@@@QBEPAU1@PAU?$QMapData@VQString@@PAVExperimentThread@@@@@Z 00424240 f i businesssession.obj
 0001:000232f0       ?copy@?$QMapNode@VQString@@PAVUserBuffer@@@@QBEPAU1@PAU?$QMapData@VQString@@PAVUserBuffer@@@@@Z 004242f0 f i businesssession.obj
 0001:000233a0       ?copy@?$QMapNode@VQString@@_N@@QBEPAU1@PAU?$QMapData@VQString@@_N@@@Z 004243a0 f i businesssession.obj
 0001:00023450       ?createNode@?$QMapData@VQString@@PAD@@QAEPAU?$QMapNode@VQString@@PAD@@ABVQString@@ABQADPAU2@_N@Z 00424450 f i businesssession.obj
 0001:000234a0       ?createNode@?$QMapData@VQString@@PAVCanModuleBuffer@@@@QAEPAU?$QMapNode@VQString@@PAVCanModuleBuffer@@@@ABVQString@@ABQAVCanModuleBuffer@@PAU2@_N@Z 004244a0 f i businesssession.obj
 0001:000234f0       ?createNode@?$QMapData@VQString@@PAVExperimentThread@@@@QAEPAU?$QMapNode@VQString@@PAVExperimentThread@@@@ABVQString@@ABQAVExperimentThread@@PAU2@_N@Z 004244f0 f i businesssession.obj
 0001:00023540       ?createNode@?$QMapData@VQString@@PAVUserBuffer@@@@QAEPAU?$QMapNode@VQString@@PAVUserBuffer@@@@ABVQString@@ABQAVUserBuffer@@PAU2@_N@Z 00424540 f i businesssession.obj
 0001:00023590       ?createNode@?$QMapData@VQString@@_N@@QAEPAU?$QMapNode@VQString@@_N@@ABVQString@@AB_NPAU2@_N@Z 00424590 f i businesssession.obj
 0001:000235e0       ?destroySubTree@?$QMapNode@VQString@@PAD@@QAEXXZ 004245e0 f i businesssession.obj
 0001:00023610       ?destroySubTree@?$QMapNode@VQString@@PAVCanModuleBuffer@@@@QAEXXZ 00424610 f i businesssession.obj
 0001:00023640       ?destroySubTree@?$QMapNode@VQString@@PAVExperimentThread@@@@QAEXXZ 00424640 f i businesssession.obj
 0001:00023670       ?destroySubTree@?$QMapNode@VQString@@PAVUserBuffer@@@@QAEXXZ 00424670 f i businesssession.obj
 0001:000236a0       ?destroySubTree@?$QMapNode@VQString@@_N@@QAEXXZ 004246a0 f i businesssession.obj
 0001:000236d0       ?detach_helper@?$QMap@VQString@@PAD@@AAEXXZ 004246d0 f i businesssession.obj
 0001:000237a0       ?detach_helper@?$QMap@VQString@@PAVCanModuleBuffer@@@@AAEXXZ 004247a0 f i businesssession.obj
 0001:00023870       ?detach_helper@?$QMap@VQString@@PAVExperimentThread@@@@AAEXXZ 00424870 f i businesssession.obj
 0001:00023940       ?detach_helper@?$QMap@VQString@@PAVUserBuffer@@@@AAEXXZ 00424940 f i businesssession.obj
 0001:00023a10       ?detach_helper@?$QMap@VQString@@_N@@AAEXXZ 00424a10 f i businesssession.obj
 0001:00023ae0       ?findNode@?$QMapData@VQString@@PAD@@QBEPAU?$QMapNode@VQString@@PAD@@ABVQString@@@Z 00424ae0 f i businesssession.obj
 0001:00023b30       ?findNode@?$QMapData@VQString@@PAVCanModuleBuffer@@@@QBEPAU?$QMapNode@VQString@@PAVCanModuleBuffer@@@@ABVQString@@@Z 00424b30 f i businesssession.obj
 0001:00023b80       ?findNode@?$QMapData@VQString@@PAVExperimentThread@@@@QBEPAU?$QMapNode@VQString@@PAVExperimentThread@@@@ABVQString@@@Z 00424b80 f i businesssession.obj
 0001:00023bd0       ?findNode@?$QMapData@VQString@@PAVUserBuffer@@@@QBEPAU?$QMapNode@VQString@@PAVUserBuffer@@@@ABVQString@@@Z 00424bd0 f i businesssession.obj
 0001:00023c20       ?findNode@?$QMapData@VQString@@_N@@QBEPAU?$QMapNode@VQString@@_N@@ABVQString@@@Z 00424c20 f i businesssession.obj
 0001:00023c70       ?getBmqDataLen@BusinessSession@@QAEHABVQString@@@Z 00424c70 f   businesssession.obj
 0001:00023ce0       ?getBmqFirst@BusinessSession@@QAE_NABVQString@@@Z 00424ce0 f   businesssession.obj
 0001:00023d40       ?getBmqKd@BusinessSession@@QAEHABVQString@@@Z 00424d40 f   businesssession.obj
 0001:00023db0       ?getBmqMapBuff@BusinessSession@@QAEPADABVQString@@@Z 00424db0 f   businesssession.obj
 0001:00023e10       ?getBmqSize@BusinessSession@@QAEHABVQString@@@Z 00424e10 f   businesssession.obj
 0001:00023e80       ?insert@?$QMap@VQString@@PAD@@QAE?AViterator@1@ABVQString@@ABQAD@Z 00424e80 f i businesssession.obj
 0001:00023f60       ?insert@?$QMap@VQString@@PAVCanModuleBuffer@@@@QAE?AViterator@1@ABVQString@@ABQAVCanModuleBuffer@@@Z 00424f60 f i businesssession.obj
 0001:00024040       ?insert@?$QMap@VQString@@PAVExperimentThread@@@@QAE?AViterator@1@ABVQString@@ABQAVExperimentThread@@@Z 00425040 f i businesssession.obj
 0001:00024120       ?insert@?$QMap@VQString@@PAVUserBuffer@@@@QAE?AViterator@1@ABVQString@@ABQAVUserBuffer@@@Z 00425120 f i businesssession.obj
 0001:00024200       ?insert@?$QMap@VQString@@_N@@QAE?AViterator@1@ABVQString@@AB_N@Z 00425200 f i businesssession.obj
 0001:000242e0       ?lowerBound@?$QMapNode@VQString@@PAD@@QAEPAU1@ABVQString@@@Z 004252e0 f i businesssession.obj
 0001:00024330       ?lowerBound@?$QMapNode@VQString@@PAVCanModuleBuffer@@@@QAEPAU1@ABVQString@@@Z 00425330 f i businesssession.obj
 0001:00024380       ?lowerBound@?$QMapNode@VQString@@PAVExperimentThread@@@@QAEPAU1@ABVQString@@@Z 00425380 f i businesssession.obj
 0001:000243d0       ?lowerBound@?$QMapNode@VQString@@PAVUserBuffer@@@@QAEPAU1@ABVQString@@@Z 004253d0 f i businesssession.obj
 0001:00024420       ?lowerBound@?$QMapNode@VQString@@_N@@QAEPAU1@ABVQString@@@Z 00425420 f i businesssession.obj
 0001:00024470       ?setBmqDataLen@BusinessSession@@QAEXABVQString@@H@Z 00425470 f   businesssession.obj
 0001:00024490       ?setBmqFirst@BusinessSession@@QAEXABVQString@@_N@Z 00425490 f   businesssession.obj
 0001:000244b0       ?setBmqKd@BusinessSession@@QAEXABVQString@@H@Z 004254b0 f   businesssession.obj
 0001:000244d0       ?setBmqMapBuff@BusinessSession@@QAEXABVQString@@PADH@Z 004254d0 f   businesssession.obj
 0001:00024620       ?setBmqSize@BusinessSession@@QAEXABVQString@@H@Z 00425620 f   businesssession.obj
 0001:00024640       ?usMBCRC16@BusinessSession@@QAEGPAEG@Z 00425640 f   businesssession.obj
 0001:000246a0       ??0?$service_id@V?$socket_acceptor_service@Vtcp@ip@asio@boost@@@asio@boost@@@detail@asio@boost@@QAE@XZ 004256a0 f i ccanmoduleserver.obj
 0001:000246b0       ??0CANModuleLib@@AAE@XZ    004256b0 f   ccanmoduleserver.obj
 0001:00024760       ??0CCanModuleServer@@AAE@XZ 00425760 f   ccanmoduleserver.obj
 0001:00024890       ??0DataConnectionThread@@QAE@ABUCANDATA_STRUCT@@@Z 00425890 f   ccanmoduleserver.obj
 0001:00024a40       ??1?$service_id@V?$socket_acceptor_service@Vtcp@ip@asio@boost@@@asio@boost@@@detail@asio@boost@@QAE@XZ 00425a40 f i ccanmoduleserver.obj
 0001:00024a50       ??A?$QMap@HPAX@@QAEAAPAXABH@Z 00425a50 f i ccanmoduleserver.obj
 0001:00024af0       ??A?$QMap@VQString@@PAVDataConnectionThread@@@@QAEAAPAVDataConnectionThread@@ABVQString@@@Z 00425af0 f i ccanmoduleserver.obj
 0001:00024b90       ??_EDataAnalyzeSaveDB@@UAEPAXI@Z 00425b90 f i ccanmoduleserver.obj
 0001:00024b90       ??_GDataAnalyzeSaveDB@@UAEPAXI@Z 00425b90 f i ccanmoduleserver.obj
 0001:00024be0       ??_GDataAnalyzeThread@@UAEPAXI@Z 00425be0 f i ccanmoduleserver.obj
 0001:00024be0       ??_EDataAnalyzeThread@@UAEPAXI@Z 00425be0 f i ccanmoduleserver.obj
 0001:00024c20       ??_GDataConnectionThread@@UAEPAXI@Z 00425c20 f i ccanmoduleserver.obj
 0001:00024c20       ??_EDataConnectionThread@@UAEPAXI@Z 00425c20 f i ccanmoduleserver.obj
 0001:00024c90       ??_EQLibrary@@UAEPAXI@Z    00425c90 f i ccanmoduleserver.obj
 0001:00024c90       ??_GQLibrary@@UAEPAXI@Z    00425c90 f i ccanmoduleserver.obj
 0001:00024cc0       ?ControlCANModule@CCanModuleServer@@QAEXABVQString@@H@Z 00425cc0 f   ccanmoduleserver.obj
 0001:00024d70       ?ControlCANModule@DataConnectionThread@@QAE_NH@Z 00425d70 f   ccanmoduleserver.obj
 0001:00024de0       ?GetInstance@CANModuleLib@@SAPAV1@XZ 00425de0 f   ccanmoduleserver.obj
 0001:00024e30       ?GetInstance@CCanModuleServer@@SAPAV1@XZ 00425e30 f   ccanmoduleserver.obj
 0001:00024e80       ?GetLastError@CANModuleLib@@QAE?AVQString@@XZ 00425e80 f   ccanmoduleserver.obj
 0001:00024eb0       ?GetLastError@CCanModuleServer@@QAE?AVQString@@XZ 00425eb0 f   ccanmoduleserver.obj
 0001:00024ee0       ?GetLastError@DataConnectionThread@@QAE?AVQString@@XZ 00425ee0 f   ccanmoduleserver.obj
 0001:00024f10       ?GetLibFunc@CANModuleLib@@QAEPAXH@Z 00425f10 f   ccanmoduleserver.obj
 0001:00024f80       ?InitCANModule@DataConnectionThread@@QAE_NXZ 00425f80 f   ccanmoduleserver.obj
 0001:00025690       ?InitLib@CANModuleLib@@QAE_NXZ 00426690 f   ccanmoduleserver.obj
 0001:00025bb0       ?StartCANModule@CCanModuleServer@@QAE_NHABUCANDATA_STRUCT@@@Z 00426bb0 f   ccanmoduleserver.obj
 0001:00025e70       ?StopCANModuel@CCanModuleServer@@QAEXXZ 00426e70 f   ccanmoduleserver.obj
 0001:00026120       ?TongDate@DataAnalyzeThread@@QAE_NI@Z 00427120 f   ccanmoduleserver.obj
 0001:00026300       ?UnLoadLib@CANModuleLib@@QAEXXZ 00427300 f   ccanmoduleserver.obj
 0001:000263d0       ?copy@?$QMapNode@HPAX@@QBEPAU1@PAU?$QMapData@HPAX@@@Z 004273d0 f i ccanmoduleserver.obj
 0001:00026480       ?copy@?$QMapNode@VQString@@PAVDataConnectionThread@@@@QBEPAU1@PAU?$QMapData@VQString@@PAVDataConnectionThread@@@@@Z 00427480 f i ccanmoduleserver.obj
 0001:00026530       ?createNode@?$QMapData@HPAX@@QAEPAU?$QMapNode@HPAX@@ABHABQAXPAU2@_N@Z 00427530 f i ccanmoduleserver.obj
 0001:00026580       ?createNode@?$QMapData@VQString@@PAVDataConnectionThread@@@@QAEPAU?$QMapNode@VQString@@PAVDataConnectionThread@@@@ABVQString@@ABQAVDataConnectionThread@@PAU2@_N@Z 00427580 f i ccanmoduleserver.obj
 0001:000265d0       ?destroySubTree@?$QMapNode@VQString@@PAVDataConnectionThread@@@@QAEXXZ 004275d0 f i ccanmoduleserver.obj
 0001:00026600       ?detach_helper@?$QMap@HPAX@@AAEXXZ 00427600 f i ccanmoduleserver.obj
 0001:00026690       ?detach_helper@?$QMap@VQString@@PAVDataConnectionThread@@@@AAEXXZ 00427690 f i ccanmoduleserver.obj
 0001:00026760       ?findNode@?$QMapData@HPAX@@QBEPAU?$QMapNode@HPAX@@ABH@Z 00427760 f i ccanmoduleserver.obj
 0001:000267b0       ?findNode@?$QMapData@VQString@@PAVDataConnectionThread@@@@QBEPAU?$QMapNode@VQString@@PAVDataConnectionThread@@@@ABVQString@@@Z 004277b0 f i ccanmoduleserver.obj
 0001:00026800       ?gettime@@YAXPBEPAUstrainDeviceData@@@Z 00427800 f   ccanmoduleserver.obj
 0001:000268d0       ?insert@?$QMap@HPAX@@QAE?AViterator@1@ABHABQAX@Z 004278d0 f i ccanmoduleserver.obj
 0001:00026980       ?insert@?$QMap@VQString@@PAVDataConnectionThread@@@@QAE?AViterator@1@ABVQString@@ABQAVDataConnectionThread@@@Z 00427980 f i ccanmoduleserver.obj
 0001:00026a60       ?lowerBound@?$QMapNode@VQString@@PAVDataConnectionThread@@@@QAEPAU1@ABVQString@@@Z 00427a60 f i ccanmoduleserver.obj
 0001:00026ab0       ?run@DataAnalyzeSaveDB@@UAEXXZ 00427ab0 f   ccanmoduleserver.obj
 0001:000274a0       ?run@DataAnalyzeThread@@UAEXXZ 004284a0 f   ccanmoduleserver.obj
 0001:00028090       ?run@DataConnectionThread@@UAEXXZ 00429090 f   ccanmoduleserver.obj
 0001:000284a0       ??$?0VQStringList@@@shared_count@detail@boost@@QAE@PAVQStringList@@@Z 004294a0 f i config.obj
 0001:00028560       ??$checked_delete@VQStringList@@@boost@@YAXPAVQStringList@@@Z 00429560 f i config.obj
 0001:00028590       ??$sp_pointer_construct@VQStringList@@V1@@detail@boost@@YAXPAV?$shared_ptr@VQStringList@@@1@PAVQStringList@@AAVshared_count@01@@Z 00429590 f i config.obj
 0001:00028650       ??0Config@@AAE@XZ          00429650 f   config.obj
 0001:00028740       ??1?$shared_ptr@VQStringList@@@boost@@QAE@XZ 00429740 f i config.obj
 0001:000287d0       ??1CANDATA_STRUCT@@QAE@XZ  004297d0 f i config.obj
 0001:000287e0       ??1Config@@QAE@XZ          004297e0 f   config.obj
 0001:00029370       ??1struct_ip_port@@QAE@XZ  0042a370 f i config.obj
 0001:00029380       ??4?$shared_ptr@VQStringList@@@boost@@QAEAAV01@ABV01@@Z 0042a380 f i config.obj
 0001:00029440       ??A?$QMap@VQString@@UCANDATA_STRUCT@@@@QAEAAUCANDATA_STRUCT@@ABVQString@@@Z 0042a440 f i config.obj
 0001:00029540       ??A?$QMap@VQString@@Ustruct_bmq_config@@@@QAEAAUstruct_bmq_config@@ABVQString@@@Z 0042a540 f i config.obj
 0001:000295e0       ??A?$QMap@VQString@@Ustruct_ip_port@@@@QAEAAUstruct_ip_port@@ABVQString@@@Z 0042a5e0 f i config.obj
 0001:000296e0       ??A?$QMap@VQString@@V?$shared_ptr@VQStringList@@@boost@@@@QAEAAV?$shared_ptr@VQStringList@@@boost@@ABVQString@@@Z 0042a6e0 f i config.obj
 0001:000297d0       ??_E?$sp_counted_impl_p@VQStringList@@@detail@boost@@UAEPAXI@Z 0042a7d0 f i config.obj
 0001:000297d0       ??_G?$sp_counted_impl_p@VQStringList@@@detail@boost@@UAEPAXI@Z 0042a7d0 f i config.obj
 0001:00029800       ?GetBmqConfig@Config@@QAE?AUstruct_bmq_config@@ABVQString@@@Z 0042a800 f   config.obj
 0001:000298d0       ?GetCANConfigMap@Config@@QAEAAV?$QMap@VQString@@UCANDATA_STRUCT@@@@XZ 0042a8d0 f   config.obj
 0001:000298e0       ?GetCgqToBmqIp@Config@@QAE?AVQString@@ABV2@@Z 0042a8e0 f   config.obj
 0001:00029920       ?GetClientIDByIp@Config@@QAE?AVQString@@ABV2@@Z 0042a920 f   config.obj
 0001:000299c0       ?GetDBConfigData@Config@@QAE?AVQString@@H@Z 0042a9c0 f   config.obj
 0001:00029a60       ?GetDIByDeviceID@Config@@QAE?AVQString@@ABV2@0@Z 0042aa60 f   config.obj
 0001:00029d50       ?GetDOByDeviceID@Config@@QAE?AVQString@@ABV2@0@Z 0042ad50 f   config.obj
 0001:0002a040       ?GetDeviceConfig@Config@@QAE?AVQString@@ABV2@@Z 0042b040 f   config.obj
 0001:0002a110       ?GetDeviceFlag@Config@@QAEHABVQString@@@Z 0042b110 f   config.obj
 0001:0002a1c0       ?GetDeviceID@Config@@QAE?AVQString@@ABV2@@Z 0042b1c0 f   config.obj
 0001:0002a260       ?GetDeviceIDListByLifterID@Config@@QAE?AV?$QMap@HVQString@@@@ABVQString@@H@Z 0042b260 f   config.obj
 0001:0002a490       ?GetDeviceIpByID@Config@@QAE?AVQString@@ABV2@0@Z 0042b490 f   config.obj
 0001:0002a780       ?GetErrInfo@Config@@QAE?AVQString@@XZ 0042b780 f   config.obj
 0001:0002a7b0       ?GetInstance@Config@@SAPAV1@XZ 0042b7b0 f   config.obj
 0001:0002a800       ?GetLifterIDByClientIp@Config@@QAE?AVQString@@ABV2@@Z 0042b800 f   config.obj
 0001:0002a8a0       ?GetLifterIDByDeviceIp@Config@@QAE?AVQString@@ABV2@@Z 0042b8a0 f   config.obj
 0001:0002a940       ?GetMap@Config@@QAEAAV?$QMap@HVQString@@@@H@Z 0042b940 f   config.obj
 0001:0002a970       ?GetServicePort@Config@@QAEHXZ 0042b970 f   config.obj
 0001:0002a980       ?GetTypeDeviceMap@Config@@QAEABV?$QMap@VQString@@Ustruct_ip_port@@@@H@Z 0042b980 f   config.obj
 0001:0002a9e0       ?GetUserInfo@Config@@QAEAAV?$QMap@VQString@@V?$shared_ptr@VQStringList@@@boost@@@@H@Z 0042b9e0 f   config.obj
 0001:0002aa00       ?InitConfig@Config@@QAE_NVQString@@@Z 0042ba00 f   config.obj
 0001:0002b150       ?InitDeviceConfig@Config@@QAE_NXZ 0042c150 f   config.obj
 0001:0002d7c0       ?SetLifterConfig@Config@@QAEXABUMemoryConfig@@@Z 0042e7c0 f   config.obj
 0001:0002d8b0       ?clear@?$QMap@VQString@@V?$shared_ptr@VQStringList@@@boost@@@@QAEXXZ 0042e8b0 f i config.obj
 0001:0002d9b0       ?copy@?$QMapNode@VQString@@UCANDATA_STRUCT@@@@QBEPAU1@PAU?$QMapData@VQString@@UCANDATA_STRUCT@@@@@Z 0042e9b0 f i config.obj
 0001:0002da60       ?copy@?$QMapNode@VQString@@Ustruct_bmq_config@@@@QBEPAU1@PAU?$QMapData@VQString@@Ustruct_bmq_config@@@@@Z 0042ea60 f i config.obj
 0001:0002db10       ?copy@?$QMapNode@VQString@@Ustruct_ip_port@@@@QBEPAU1@PAU?$QMapData@VQString@@Ustruct_ip_port@@@@@Z 0042eb10 f i config.obj
 0001:0002dbc0       ?copy@?$QMapNode@VQString@@V?$shared_ptr@VQStringList@@@boost@@@@QBEPAU1@PAU?$QMapData@VQString@@V?$shared_ptr@VQStringList@@@boost@@@@@Z 0042ebc0 f i config.obj
 0001:0002dc70       ?createNode@?$QMapData@VQString@@UCANDATA_STRUCT@@@@QAEPAU?$QMapNode@VQString@@UCANDATA_STRUCT@@@@ABVQString@@ABUCANDATA_STRUCT@@PAU2@_N@Z 0042ec70 f i config.obj
 0001:0002dcf0       ?createNode@?$QMapData@VQString@@Ustruct_bmq_config@@@@QAEPAU?$QMapNode@VQString@@Ustruct_bmq_config@@@@ABVQString@@ABUstruct_bmq_config@@PAU2@_N@Z 0042ecf0 f i config.obj
 0001:0002dd40       ?createNode@?$QMapData@VQString@@Ustruct_ip_port@@@@QAEPAU?$QMapNode@VQString@@Ustruct_ip_port@@@@ABVQString@@ABUstruct_ip_port@@PAU2@_N@Z 0042ed40 f i config.obj
 0001:0002dda0       ?createNode@?$QMapData@VQString@@V?$shared_ptr@VQStringList@@@boost@@@@QAEPAU?$QMapNode@VQString@@V?$shared_ptr@VQStringList@@@boost@@@@ABVQString@@ABV?$shared_ptr@VQStringList@@@boost@@PAU2@_N@Z 0042eda0 f i config.obj
 0001:0002de10       ?destroySubTree@?$QMapNode@VQString@@UCANDATA_STRUCT@@@@QAEXXZ 0042ee10 f i config.obj
 0001:0002de50       ?destroySubTree@?$QMapNode@VQString@@Ustruct_bmq_config@@@@QAEXXZ 0042ee50 f i config.obj
 0001:0002de80       ?destroySubTree@?$QMapNode@VQString@@Ustruct_ip_port@@@@QAEXXZ 0042ee80 f i config.obj
 0001:0002dec0       ?destroySubTree@?$QMapNode@VQString@@V?$shared_ptr@VQStringList@@@boost@@@@QAEXXZ 0042eec0 f i config.obj
 0001:0002df80       ?detach_helper@?$QMap@VQString@@UCANDATA_STRUCT@@@@AAEXXZ 0042ef80 f i config.obj
 0001:0002e020       ?detach_helper@?$QMap@VQString@@Ustruct_bmq_config@@@@AAEXXZ 0042f020 f i config.obj
 0001:0002e0f0       ?detach_helper@?$QMap@VQString@@Ustruct_ip_port@@@@AAEXXZ 0042f0f0 f i config.obj
 0001:0002e190       ?detach_helper@?$QMap@VQString@@V?$shared_ptr@VQStringList@@@boost@@@@AAEXXZ 0042f190 f i config.obj
 0001:0002e230       ?dispose@?$sp_counted_impl_p@VQStringList@@@detail@boost@@UAEXXZ 0042f230 f i config.obj
 0001:0002e260       ?findNode@?$QMapData@VQString@@UCANDATA_STRUCT@@@@QBEPAU?$QMapNode@VQString@@UCANDATA_STRUCT@@@@ABVQString@@@Z 0042f260 f i config.obj
 0001:0002e2b0       ?findNode@?$QMapData@VQString@@Ustruct_bmq_config@@@@QBEPAU?$QMapNode@VQString@@Ustruct_bmq_config@@@@ABVQString@@@Z 0042f2b0 f i config.obj
 0001:0002e300       ?findNode@?$QMapData@VQString@@Ustruct_ip_port@@@@QBEPAU?$QMapNode@VQString@@Ustruct_ip_port@@@@ABVQString@@@Z 0042f300 f i config.obj
 0001:0002e350       ?findNode@?$QMapData@VQString@@V?$shared_ptr@VQStringList@@@boost@@@@QBEPAU?$QMapNode@VQString@@V?$shared_ptr@VQStringList@@@boost@@@@ABVQString@@@Z 0042f350 f i config.obj
 0001:0002e3a0       ?get_deleter@?$sp_counted_impl_p@VQStringList@@@detail@boost@@UAEPAXABVtype_info@@@Z 0042f3a0 f i config.obj
 0001:0002e3b0       ?get_untyped_deleter@?$sp_counted_impl_p@VQStringList@@@detail@boost@@UAEPAXXZ 0042f3b0 f i config.obj
 0001:0002e3c0       ?insert@?$QMap@VQString@@UCANDATA_STRUCT@@@@QAE?AViterator@1@ABVQString@@ABUCANDATA_STRUCT@@@Z 0042f3c0 f i config.obj
 0001:0002e4d0       ?insert@?$QMap@VQString@@Ustruct_bmq_config@@@@QAE?AViterator@1@ABVQString@@ABUstruct_bmq_config@@@Z 0042f4d0 f i config.obj
 0001:0002e5b0       ?insert@?$QMap@VQString@@Ustruct_ip_port@@@@QAE?AViterator@1@ABVQString@@ABUstruct_ip_port@@@Z 0042f5b0 f i config.obj
 0001:0002e6a0       ?insert@?$QMap@VQString@@V?$shared_ptr@VQStringList@@@boost@@@@QAE?AViterator@1@ABVQString@@ABV?$shared_ptr@VQStringList@@@boost@@@Z 0042f6a0 f i config.obj
 0001:0002e790       ?lowerBound@?$QMapNode@VQString@@UCANDATA_STRUCT@@@@QAEPAU1@ABVQString@@@Z 0042f790 f i config.obj
 0001:0002e7e0       ?lowerBound@?$QMapNode@VQString@@Ustruct_bmq_config@@@@QAEPAU1@ABVQString@@@Z 0042f7e0 f i config.obj
 0001:0002e830       ?lowerBound@?$QMapNode@VQString@@Ustruct_ip_port@@@@QAEPAU1@ABVQString@@@Z 0042f830 f i config.obj
 0001:0002e880       ?lowerBound@?$QMapNode@VQString@@V?$shared_ptr@VQStringList@@@boost@@@@QAEPAU1@ABVQString@@@Z 0042f880 f i config.obj
 0001:0002e8d0       ??1?$shared_ptr@VMysession@@@boost@@QAE@XZ 0042f8d0 f i connections.obj
 0001:0002e960       ??4?$shared_ptr@VMysession@@@boost@@QAEAAV01@ABV01@@Z 0042f960 f i connections.obj
 0001:0002ea20       ??A?$QMap@VQString@@V?$shared_ptr@VMysession@@@boost@@@@QAEAAV?$shared_ptr@VMysession@@@boost@@ABVQString@@@Z 0042fa20 f i connections.obj
 0001:0002eb10       ?Add@Connections@@QAE_NAAV?$shared_ptr@VMysession@@@boost@@@Z 0042fb10 f   connections.obj
 0001:0002eca0       ?CloseAll@Connections@@QAEXXZ 0042fca0 f   connections.obj
 0001:0002ee20       ?Remove@Connections@@QAEXV?$shared_ptr@VMysession@@@boost@@@Z 0042fe20 f   connections.obj
 0001:0002f0c0       ?address@?$basic_endpoint@Vtcp@ip@asio@boost@@@ip@asio@boost@@QBE?AV0234@XZ 004300c0 f i connections.obj
 0001:0002f140       ?copy@?$QMapNode@VQString@@V?$shared_ptr@VMysession@@@boost@@@@QBEPAU1@PAU?$QMapData@VQString@@V?$shared_ptr@VMysession@@@boost@@@@@Z 00430140 f i connections.obj
 0001:0002f1f0       ?createNode@?$QMapData@VQString@@V?$shared_ptr@VMysession@@@boost@@@@QAEPAU?$QMapNode@VQString@@V?$shared_ptr@VMysession@@@boost@@@@ABVQString@@ABV?$shared_ptr@VMysession@@@boost@@PAU2@_N@Z 004301f0 f i connections.obj
 0001:0002f260       ?deleteNode@?$QMapData@VQString@@V?$shared_ptr@VMysession@@@boost@@@@QAEXPAU?$QMapNode@VQString@@V?$shared_ptr@VMysession@@@boost@@@@@Z 00430260 f i connections.obj
 0001:0002f320       ?destroySubTree@?$QMapNode@VQString@@V?$shared_ptr@VMysession@@@boost@@@@QAEXXZ 00430320 f i connections.obj
 0001:0002f3e0       ?detach_helper@?$QMap@VQString@@V?$shared_ptr@VMysession@@@boost@@@@AAEXXZ 004303e0 f i connections.obj
 0001:0002f480       ?do_throw_error@detail@asio@boost@@YAXABVerror_code@system@3@@Z 00430480 f i connections.obj
 0001:0002f530       ?findNode@?$QMapData@VQString@@V?$shared_ptr@VMysession@@@boost@@@@QBEPAU?$QMapNode@VQString@@V?$shared_ptr@VMysession@@@boost@@@@ABVQString@@@Z 00430530 f i connections.obj
 0001:0002f580       ?getpeername@socket_ops@detail@asio@boost@@YAHIPAUsockaddr@@PAI_NAAVerror_code@system@4@@Z 00430580 f i connections.obj
 0001:0002f6e0       ?getsessionIp@Mysession@@QAE?AVQString@@H@Z 004306e0 f i connections.obj
 0001:0002f880       ?getsockname@socket_ops@detail@asio@boost@@YAHIPAUsockaddr@@PAIAAVerror_code@system@4@@Z 00430880 f i connections.obj
 0001:0002f910       ?inet_ntop@socket_ops@detail@asio@boost@@YAPBDHPBXPADIKAAVerror_code@system@4@@Z 00430910 f i connections.obj
 0001:0002fac0       ?insert@?$QMap@VQString@@V?$shared_ptr@VMysession@@@boost@@@@QAE?AViterator@1@ABVQString@@ABV?$shared_ptr@VMysession@@@boost@@@Z 00430ac0 f i connections.obj
 0001:0002fbb0       ?keys@?$QMap@VQString@@V?$shared_ptr@VMysession@@@boost@@@@QBE?AV?$QList@VQString@@@@XZ 00430bb0 f i connections.obj
 0001:0002fca0       ?local_endpoint@?$win_iocp_socket_service@Vtcp@ip@asio@boost@@@detail@asio@boost@@QBE?AV?$basic_endpoint@Vtcp@ip@asio@boost@@@ip@34@ABUimplementation_type@1234@AAVerror_code@system@4@@Z 00430ca0 f i connections.obj
 0001:0002fdb0       ?lowerBound@?$QMapNode@VQString@@V?$shared_ptr@VMysession@@@boost@@@@QAEPAU1@ABVQString@@@Z 00430db0 f i connections.obj
 0001:0002fe00       ?remote_endpoint@?$win_iocp_socket_service@Vtcp@ip@asio@boost@@@detail@asio@boost@@QBE?AV?$basic_endpoint@Vtcp@ip@asio@boost@@@ip@34@ABUimplementation_type@1234@AAVerror_code@system@4@@Z 00430e00 f i connections.obj
 0001:0002ff10       ?remove@?$QMap@VQString@@V?$shared_ptr@VMysession@@@boost@@@@QAEHABVQString@@@Z 00430f10 f i connections.obj
 0001:00030060       ?to_string@address@ip@asio@boost@@QBE?AV?$basic_string@DU?$char_traits@D@std@@V?$allocator@D@2@@std@@XZ 00431060 f i connections.obj
 0001:000300b0       ?to_string@address_v4@ip@asio@boost@@QBE?AV?$basic_string@DU?$char_traits@D@std@@V?$allocator@D@2@@std@@AAVerror_code@system@4@@Z 004310b0 f i connections.obj
 0001:00030160       ?to_string@address_v4@ip@asio@boost@@QBE?AV?$basic_string@DU?$char_traits@D@std@@V?$allocator@D@2@@std@@XZ 00431160 f i connections.obj
 0001:00030210       ?to_string@address_v6@ip@asio@boost@@QBE?AV?$basic_string@DU?$char_traits@D@std@@V?$allocator@D@2@@std@@AAVerror_code@system@4@@Z 00431210 f i connections.obj
 0001:000302c0       ?to_string@address_v6@ip@asio@boost@@QBE?AV?$basic_string@DU?$char_traits@D@std@@V?$allocator@D@2@@std@@XZ 004312c0 f i connections.obj
 0001:00030370       ??0ConnectionPool@@AAE@XZ  00431370 f   connectionpool.obj
 0001:00030620       ??1ConnectionPool@@QAE@XZ  00431620 f   connectionpool.obj
 0001:000309e0       ?closeConnection@ConnectionPool@@SAXVQSqlDatabase@@@Z 004319e0 f   connectionpool.obj
 0001:00030b10       ?createConnection@ConnectionPool@@AAE?AVQSqlDatabase@@ABVQString@@@Z 00431b10 f   connectionpool.obj
 0001:00030e50       ?getInstance@ConnectionPool@@CAAAV1@XZ 00431e50 f   connectionpool.obj
 0001:00030f10       ?openConnection@ConnectionPool@@SA?AVQSqlDatabase@@XZ 00431f10 f   connectionpool.obj
 0001:00031190       ?release@ConnectionPool@@SAXXZ 00432190 f   connectionpool.obj
 0001:00031200       ?removeOne@?$QList@VQString@@@@QAE_NABVQString@@@Z 00432200 f i connectionpool.obj
 0001:000312e0       ??0ConnectionPool_gss@@AAE@XZ 004322e0 f   connectionpool_gss.obj
 0001:00031390       ??1ConnectionPool_gss@@QAE@XZ 00432390 f   connectionpool_gss.obj
 0001:00031750       ?closeConnection@ConnectionPool_gss@@SAXVQSqlDatabase@@@Z 00432750 f   connectionpool_gss.obj
 0001:00031880       ?createConnection@ConnectionPool_gss@@AAE?AVQSqlDatabase@@ABVQString@@@Z 00432880 f   connectionpool_gss.obj
 0001:00031bc0       ?getInstance@ConnectionPool_gss@@CAAAV1@XZ 00432bc0 f   connectionpool_gss.obj
 0001:00031c80       ?openConnection@ConnectionPool_gss@@SA?AVQSqlDatabase@@XZ 00432c80 f   connectionpool_gss.obj
 0001:00031f00       ?release@ConnectionPool_gss@@SAXXZ 00432f00 f   connectionpool_gss.obj
 0001:00031f70       ??0Database_service@@AAE@XZ 00432f70 f   database_service.obj
 0001:00031f80       ??$?6VQString@@@@YA?AVQDebug@@V0@ABV?$QList@VQString@@@@@Z 00432f80 f i mydatabase.obj
 0001:00032010       ??$connect@P8QTimer@@AEXUQPrivateSignal@1@@ZP8MyDatabase@@AEXXZ@QObject@@SA?AVConnection@QMetaObject@@PBVQTimer@@P83@AEXUQPrivateSignal@3@@ZPBVMyDatabase@@P85@AEXXZW4ConnectionType@Qt@@@Z 00433010 f i mydatabase.obj
 0001:00032090       ??$printSequentialContainer@V?$QList@VQString@@@@@QtPrivate@@YA?AVQDebug@@V1@PBDABV?$QList@VQString@@@@@Z 00433090 f i mydatabase.obj
 0001:000321c0       ??0MyDatabase@@AAE@XZ      004331c0 f   mydatabase.obj
 0001:000327a0       ??0MyDatabaseThread@@QAE@XZ 004337a0 f   mydatabase.obj
 0001:000327d0       ??1MyDatabase@@UAE@XZ      004337d0 f   mydatabase.obj
 0001:00032860       ??_GMyDatabase@@UAEPAXI@Z  00433860 f i mydatabase.obj
 0001:00032860       ??_EMyDatabase@@UAEPAXI@Z  00433860 f i mydatabase.obj
 0001:00032910       ??_EMyDatabaseThread@@UAEPAXI@Z 00433910 f i mydatabase.obj
 0001:00032910       ??_GMyDatabaseThread@@UAEPAXI@Z 00433910 f i mydatabase.obj
 0001:00032950       ?AddData@MyDatabase@@QAE_NABVQString@@@Z 00433950 f   mydatabase.obj
 0001:00032af0       ?ChangeData@MyDatabase@@QAE_NABVQString@@@Z 00433af0 f   mydatabase.obj
 0001:00032c30       ?CreateFlagTable@MyDatabase@@QAE_NHABVQString@@0@Z 00433c30 f   mydatabase.obj
 0001:00032ee0       ?DeleteData@MyDatabase@@QAE_NABVQString@@@Z 00433ee0 f   mydatabase.obj
 0001:00033020       ?Destroy@MyDatabase@@QAEXXZ 00434020 f   mydatabase.obj
 0001:00033050       ?Examine_DB_Table@MyDatabase@@QAEXXZ 00434050 f   mydatabase.obj
 0001:00033360       ?FindDBTableAndCreate@MyDatabase@@QAE_NHABVQString@@0@Z 00434360 f   mydatabase.obj
 0001:000335d0       ?GetInstance@MyDatabase@@SAPAV1@XZ 004345d0 f   mydatabase.obj
 0001:00033670       ?IsStop@MyDatabase@@QAE_NXZ 00434670 f   mydatabase.obj
 0001:00033680       ?NotifyStop@MyDatabase@@QAEXXZ 00434680 f   mydatabase.obj
 0001:000336e0       ?SelectData@MyDatabase@@QAE_NABVQString@@AAPAPAVQStringList@@AAHH@Z 004346e0 f   mydatabase.obj
 0001:00033a20       ?Start@MyDatabase@@QAEXXZ  00434a20 f   mydatabase.obj
 0001:00033a50       ?TableExists@MyDatabase@@QAE_NABVQString@@0@Z 00434a50 f   mydatabase.obj
 0001:00033c80       ?impl@?$QSlotObject@P8MyDatabase@@AEXXZU?$List@$$V@QtPrivate@@X@QtPrivate@@CAXHPAVQSlotObjectBase@2@PAVQObject@@PAPAXPA_N@Z 00434c80 f i mydatabase.obj
 0001:00033ce0       ?run@MyDatabaseThread@@UAEXXZ 00434ce0 f   mydatabase.obj
 0001:000340b0       ?stop@MyDatabaseThread@@QAEXXZ 004350b0 f   mydatabase.obj
 0001:000340c0       ??0DeviceControl@@QAE@XZ   004350c0 f   devicecontrol.obj
 0001:000340d0       ??$?0VBmqControlThread@@@shared_count@detail@boost@@QAE@PAVBmqControlThread@@@Z 004350d0 f i devicethreadcontrol.obj
 0001:00034190       ??$?0VCgqControlThread@@@shared_count@detail@boost@@QAE@PAVCgqControlThread@@@Z 00435190 f i devicethreadcontrol.obj
 0001:00034250       ??$?0VJdqControlThread@@@shared_count@detail@boost@@QAE@PAVJdqControlThread@@@Z 00435250 f i devicethreadcontrol.obj
 0001:00034310       ??$asio_handler_invoke@V?$binder2@V?$read_op@V?$basic_stream_socket@Vtcp@ip@asio@boost@@V?$stream_socket_service@Vtcp@ip@asio@boost@@@34@@asio@boost@@Vmutable_buffers_1@23@Vtransfer_all_t@detail@23@V?$bind_t@XV?$mf2@XVCgqControlThread@@ABVerror_code@system@boost@@I@_mfi@boost@@V?$list3@V?$value@PAVCgqControlThread@@@_bi@boost@@U?$arg@$00@3@U?$arg@$01@3@@_bi@3@@_bi@3@@detail@asio@boost@@Verror_code@system@4@I@detail@asio@boost@@@asio@boost@@YAXAAV?$binder2@V?$read_op@V?$basic_stream_socket@Vtcp@ip@asio@boost@@V?$stream_socket_service@Vtcp@ip@asio@boost@@@34@@asio@boost@@Vmutable_buffers_1@23@Vtransfer_all_t@detail@23@V?$bind_t@XV?$mf2@XVCgqControlThread@@ABVerror_code@system@boost@@I@_mfi@boost@@V?$list3@V?$value@PAVCgqControlThread@@@_bi@boost@@U?$arg@$00@3@U?$arg@$01@3@@_bi@3@@_bi@3@@detail@asio@boost@@Verror_code@system@4@I@detail@01@ZZ 00435310 f i devicethreadcontrol.obj
 0001:00034330       ??$async_read@V?$basic_stream_socket@Vtcp@ip@asio@boost@@V?$stream_socket_service@Vtcp@ip@asio@boost@@@34@@asio@boost@@Vmutable_buffers_1@23@V?$bind_t@XV?$mf2@XVCgqControlThread@@ABVerror_code@system@boost@@I@_mfi@boost@@V?$list3@V?$value@PAVCgqControlThread@@@_bi@boost@@U?$arg@$00@3@U?$arg@$01@3@@_bi@3@@_bi@3@@asio@boost@@YAXAAV?$basic_stream_socket@Vtcp@ip@asio@boost@@V?$stream_socket_service@Vtcp@ip@asio@boost@@@34@@01@ABVmutable_buffers_1@01@$$QAV?$bind_t@XV?$mf2@XVCgqControlThread@@ABVerror_code@system@boost@@I@_mfi@boost@@V?$list3@V?$value@PAVCgqControlThread@@@_bi@boost@@U?$arg@$00@3@U?$arg@$01@3@@_bi@3@@_bi@1@@Z 00435330 f i devicethreadcontrol.obj
 0001:000343e0       ??$async_receive@Vmutable_buffers_1@asio@boost@@V?$read_op@V?$basic_stream_socket@Vtcp@ip@asio@boost@@V?$stream_socket_service@Vtcp@ip@asio@boost@@@34@@asio@boost@@Vmutable_buffers_1@23@Vtransfer_all_t@detail@23@V?$bind_t@XV?$mf2@XVCgqControlThread@@ABVerror_code@system@boost@@I@_mfi@boost@@V?$list3@V?$value@PAVCgqControlThread@@@_bi@boost@@U?$arg@$00@3@U?$arg@$01@3@@_bi@3@@_bi@3@@detail@23@@win_iocp_socket_service_base@detail@asio@boost@@QAEXAAUbase_implementation_type@0123@ABVmutable_buffers_1@23@HAAV?$read_op@V?$basic_stream_socket@Vtcp@ip@asio@boost@@V?$stream_socket_service@Vtcp@ip@asio@boost@@@34@@asio@boost@@Vmutable_buffers_1@23@Vtransfer_all_t@detail@23@V?$bind_t@XV?$mf2@XVCgqControlThread@@ABVerror_code@system@boost@@I@_mfi@boost@@V?$list3@V?$value@PAVCgqControlThread@@@_bi@boost@@U?$arg@$00@3@U?$arg@$01@3@@_bi@3@@_bi@3@@123@@Z 004353e0 f i devicethreadcontrol.obj
 0001:000344e0       ??$bind@XVCgqControlThread@@ABVerror_code@system@boost@@IPAV1@U?$arg@$00@4@U?$arg@$01@4@@boost@@YA?AV?$bind_t@XV?$mf2@XVCgqControlThread@@ABVerror_code@system@boost@@I@_mfi@boost@@V?$list3@V?$value@PAVCgqControlThread@@@_bi@boost@@U?$arg@$00@3@U?$arg@$01@3@@_bi@3@@_bi@0@P8CgqControlThread@@AEXABVerror_code@system@0@I@ZPAV3@U?$arg@$00@0@U?$arg@$01@0@@Z 004354e0 f i devicethreadcontrol.obj
 0001:00034500       ??0?$win_iocp_socket_recv_op@Vmutable_buffers_1@asio@boost@@V?$read_op@V?$basic_stream_socket@Vtcp@ip@asio@boost@@V?$stream_socket_service@Vtcp@ip@asio@boost@@@34@@asio@boost@@Vmutable_buffers_1@23@Vtransfer_all_t@detail@23@V?$bind_t@XV?$mf2@XVCgqControlThread@@ABVerror_code@system@boost@@I@_mfi@boost@@V?$list3@V?$value@PAVCgqControlThread@@@_bi@boost@@U?$arg@$00@3@U?$arg@$01@3@@_bi@3@@_bi@3@@detail@23@@detail@asio@boost@@QAE@EV?$weak_ptr@X@std@@ABVmutable_buffers_1@23@AAV?$read_op@V?$basic_stream_socket@Vtcp@ip@asio@boost@@V?$stream_socket_service@Vtcp@ip@asio@boost@@@34@@asio@boost@@Vmutable_buffers_1@23@Vtransfer_all_t@detail@23@V?$bind_t@XV?$mf2@XVCgqControlThread@@ABVerror_code@system@boost@@I@_mfi@boost@@V?$list3@V?$value@PAVCgqControlThread@@@_bi@boost@@U?$arg@$00@3@U?$arg@$01@3@@_bi@3@@_bi@3@@123@@Z 00435500 f i devicethreadcontrol.obj
 0001:00034630       ??0BmqControlThread@@QAE@VQString@@H@Z 00435630 f   devicethreadcontrol.obj
 0001:000346d0       ??0CgqControlThread@@QAE@VQString@@H@Z 004356d0 f   devicethreadcontrol.obj
 0001:00034770       ??0DeviceThreadControl@@AAE@XZ 00435770 f   devicethreadcontrol.obj
 0001:000347b0       ??0DydlControlThread@@QAE@VQString@@H@Z 004357b0 f   devicethreadcontrol.obj
 0001:00034830       ??0JdqControlThread@@QAE@VQString@@H@Z 00435830 f   devicethreadcontrol.obj
 0001:00034910       ??1?$shared_ptr@VBmqControlThread@@@boost@@QAE@XZ 00435910 f i devicethreadcontrol.obj
 0001:000349a0       ??1?$shared_ptr@VCgqControlThread@@@boost@@QAE@XZ 004359a0 f i devicethreadcontrol.obj
 0001:00034a30       ??1?$shared_ptr@VJdqControlThread@@@boost@@QAE@XZ 00435a30 f i devicethreadcontrol.obj
 0001:00034ac0       ??1DeviceThreadControl@@QAE@XZ 00435ac0 f   devicethreadcontrol.obj
 0001:00034c80       ??1ptr@?$win_iocp_socket_recv_op@Vmutable_buffers_1@asio@boost@@V?$read_op@V?$basic_stream_socket@Vtcp@ip@asio@boost@@V?$stream_socket_service@Vtcp@ip@asio@boost@@@34@@asio@boost@@Vmutable_buffers_1@23@Vtransfer_all_t@detail@23@V?$bind_t@XV?$mf2@XVCgqControlThread@@ABVerror_code@system@boost@@I@_mfi@boost@@V?$list3@V?$value@PAVCgqControlThread@@@_bi@boost@@U?$arg@$00@3@U?$arg@$01@3@@_bi@3@@_bi@3@@detail@23@@detail@asio@boost@@QAE@XZ 00435c80 f i devicethreadcontrol.obj
 0001:00034ce0       ??1win_fenced_block@detail@asio@boost@@QAE@XZ 00435ce0 f i devicethreadcontrol.obj
 0001:00034cf0       ??4?$shared_ptr@VBmqControlThread@@@boost@@QAEAAV01@ABV01@@Z 00435cf0 f i devicethreadcontrol.obj
 0001:00034db0       ??4?$shared_ptr@VCgqControlThread@@@boost@@QAEAAV01@ABV01@@Z 00435db0 f i devicethreadcontrol.obj
 0001:00034e70       ??4?$shared_ptr@VJdqControlThread@@@boost@@QAEAAV01@ABV01@@Z 00435e70 f i devicethreadcontrol.obj
 0001:00034f30       ??A?$QMap@VQString@@V?$shared_ptr@VCgqControlThread@@@boost@@@@QAEAAV?$shared_ptr@VCgqControlThread@@@boost@@ABVQString@@@Z 00435f30 f i devicethreadcontrol.obj
 0001:00035020       ??A?$QMap@VQString@@V?$shared_ptr@VJdqControlThread@@@boost@@@@QAEAAV?$shared_ptr@VJdqControlThread@@@boost@@ABVQString@@@Z 00436020 f i devicethreadcontrol.obj
 0001:00035110       ??R?$read_op@V?$basic_stream_socket@Vtcp@ip@asio@boost@@V?$stream_socket_service@Vtcp@ip@asio@boost@@@34@@asio@boost@@Vmutable_buffers_1@23@Vtransfer_all_t@detail@23@V?$bind_t@XV?$mf2@XVCgqControlThread@@ABVerror_code@system@boost@@I@_mfi@boost@@V?$list3@V?$value@PAVCgqControlThread@@@_bi@boost@@U?$arg@$00@3@U?$arg@$01@3@@_bi@3@@_bi@3@@detail@asio@boost@@QAEXABVerror_code@system@3@IH@Z 00436110 f i devicethreadcontrol.obj
 0001:00035210       ??_G?$sp_counted_impl_p@VBmqControlThread@@@detail@boost@@UAEPAXI@Z 00436210 f i devicethreadcontrol.obj
 0001:00035210       ??_E?$sp_counted_impl_p@VBmqControlThread@@@detail@boost@@UAEPAXI@Z 00436210 f i devicethreadcontrol.obj
 0001:00035240       ??_E?$sp_counted_impl_p@VCgqControlThread@@@detail@boost@@UAEPAXI@Z 00436240 f i devicethreadcontrol.obj
 0001:00035240       ??_G?$sp_counted_impl_p@VCgqControlThread@@@detail@boost@@UAEPAXI@Z 00436240 f i devicethreadcontrol.obj
 0001:00035270       ??_E?$sp_counted_impl_p@VJdqControlThread@@@detail@boost@@UAEPAXI@Z 00436270 f i devicethreadcontrol.obj
 0001:00035270       ??_G?$sp_counted_impl_p@VJdqControlThread@@@detail@boost@@UAEPAXI@Z 00436270 f i devicethreadcontrol.obj
 0001:000352a0       ??_GBmqControlThread@@UAEPAXI@Z 004362a0 f i devicethreadcontrol.obj
 0001:000352a0       ??_EBmqControlThread@@UAEPAXI@Z 004362a0 f i devicethreadcontrol.obj
 0001:000352e0       ??_ECgqControlThread@@UAEPAXI@Z 004362e0 f i devicethreadcontrol.obj
 0001:000352e0       ??_GCgqControlThread@@UAEPAXI@Z 004362e0 f i devicethreadcontrol.obj
 0001:00035320       ??_EDydlControlThread@@UAEPAXI@Z 00436320 f i devicethreadcontrol.obj
 0001:00035320       ??_GDydlControlThread@@UAEPAXI@Z 00436320 f i devicethreadcontrol.obj
 0001:00035360       ??_GJdqControlThread@@UAEPAXI@Z 00436360 f i devicethreadcontrol.obj
 0001:00035360       ??_EJdqControlThread@@UAEPAXI@Z 00436360 f i devicethreadcontrol.obj
 0001:000353b0       ?GetInstance@DeviceThreadControl@@SAAAPAV1@XZ 004363b0 f   devicethreadcontrol.obj
 0001:00035430       ?StartThreads@DeviceThreadControl@@QAEXXZ 00436430 f   devicethreadcontrol.obj
 0001:00035db0       ?StopThreads@DeviceThreadControl@@QAEXXZ 00436db0 f   devicethreadcontrol.obj
 0001:00036760       ?a2_@?$storage2@V?$value@PAVCgqControlThread@@@_bi@boost@@U?$arg@$00@3@@_bi@boost@@SA?AU?$arg@$00@3@XZ 00437760 f i devicethreadcontrol.obj
 0001:00036770       ?a3_@?$storage3@V?$value@PAVCgqControlThread@@@_bi@boost@@U?$arg@$00@3@U?$arg@$01@3@@_bi@boost@@SA?AU?$arg@$01@3@XZ 00437770 f i devicethreadcontrol.obj
 0001:00036780       ?ansy_sendCgqData@CgqControlThread@@AAE_NAAV?$basic_stream_socket@Vtcp@ip@asio@boost@@V?$stream_socket_service@Vtcp@ip@asio@boost@@@34@@asio@boost@@@Z 00437780 f   devicethreadcontrol.obj
 0001:000367e0       ?asio_handler_allocate@asio@boost@@YAPAXIZZ 004377e0 f i devicethreadcontrol.obj
 0001:00036870       ?asio_handler_deallocate@asio@boost@@YAXPAXIZZ 00437870 f i devicethreadcontrol.obj
 0001:000368d0       ?clear@?$QMap@VQString@@V?$shared_ptr@VBmqControlThread@@@boost@@@@QAEXXZ 004378d0 f i devicethreadcontrol.obj
 0001:000369d0       ?clear@?$QMap@VQString@@V?$shared_ptr@VCgqControlThread@@@boost@@@@QAEXXZ 004379d0 f i devicethreadcontrol.obj
 0001:00036ad0       ?clear@?$QMap@VQString@@V?$shared_ptr@VDydlControlThread@@@boost@@@@QAEXXZ 00437ad0 f i devicethreadcontrol.obj
 0001:00036bd0       ?clear@?$QMap@VQString@@V?$shared_ptr@VJdqControlThread@@@boost@@@@QAEXXZ 00437bd0 f i devicethreadcontrol.obj
 0001:00036cd0       ?complete_iocp_recv@socket_ops@detail@asio@boost@@YAXEABV?$weak_ptr@X@std@@_NAAVerror_code@system@4@I@Z 00437cd0 f i devicethreadcontrol.obj
 0001:00036d70       ?copy@?$QMapNode@VQString@@V?$shared_ptr@VBmqControlThread@@@boost@@@@QBEPAU1@PAU?$QMapData@VQString@@V?$shared_ptr@VBmqControlThread@@@boost@@@@@Z 00437d70 f i devicethreadcontrol.obj
 0001:00036e20       ?copy@?$QMapNode@VQString@@V?$shared_ptr@VCgqControlThread@@@boost@@@@QBEPAU1@PAU?$QMapData@VQString@@V?$shared_ptr@VCgqControlThread@@@boost@@@@@Z 00437e20 f i devicethreadcontrol.obj
 0001:00036ed0       ?copy@?$QMapNode@VQString@@V?$shared_ptr@VDydlControlThread@@@boost@@@@QBEPAU1@PAU?$QMapData@VQString@@V?$shared_ptr@VDydlControlThread@@@boost@@@@@Z 00437ed0 f i devicethreadcontrol.obj
 0001:00036f80       ?copy@?$QMapNode@VQString@@V?$shared_ptr@VJdqControlThread@@@boost@@@@QBEPAU1@PAU?$QMapData@VQString@@V?$shared_ptr@VJdqControlThread@@@boost@@@@@Z 00437f80 f i devicethreadcontrol.obj
 0001:00037030       ?createNode@?$QMapData@VQString@@V?$shared_ptr@VBmqControlThread@@@boost@@@@QAEPAU?$QMapNode@VQString@@V?$shared_ptr@VBmqControlThread@@@boost@@@@ABVQString@@ABV?$shared_ptr@VBmqControlThread@@@boost@@PAU2@_N@Z 00438030 f i devicethreadcontrol.obj
 0001:000370a0       ?createNode@?$QMapData@VQString@@V?$shared_ptr@VCgqControlThread@@@boost@@@@QAEPAU?$QMapNode@VQString@@V?$shared_ptr@VCgqControlThread@@@boost@@@@ABVQString@@ABV?$shared_ptr@VCgqControlThread@@@boost@@PAU2@_N@Z 004380a0 f i devicethreadcontrol.obj
 0001:00037110       ?createNode@?$QMapData@VQString@@V?$shared_ptr@VDydlControlThread@@@boost@@@@QAEPAU?$QMapNode@VQString@@V?$shared_ptr@VDydlControlThread@@@boost@@@@ABVQString@@ABV?$shared_ptr@VDydlControlThread@@@boost@@PAU2@_N@Z 00438110 f i devicethreadcontrol.obj
 0001:00037180       ?createNode@?$QMapData@VQString@@V?$shared_ptr@VJdqControlThread@@@boost@@@@QAEPAU?$QMapNode@VQString@@V?$shared_ptr@VJdqControlThread@@@boost@@@@ABVQString@@ABV?$shared_ptr@VJdqControlThread@@@boost@@PAU2@_N@Z 00438180 f i devicethreadcontrol.obj
 0001:000371f0       ?destroySubTree@?$QMapNode@VQString@@V?$shared_ptr@VBmqControlThread@@@boost@@@@QAEXXZ 004381f0 f i devicethreadcontrol.obj
 0001:000372b0       ?destroySubTree@?$QMapNode@VQString@@V?$shared_ptr@VCgqControlThread@@@boost@@@@QAEXXZ 004382b0 f i devicethreadcontrol.obj
 0001:00037370       ?destroySubTree@?$QMapNode@VQString@@V?$shared_ptr@VDydlControlThread@@@boost@@@@QAEXXZ 00438370 f i devicethreadcontrol.obj
 0001:00037430       ?destroySubTree@?$QMapNode@VQString@@V?$shared_ptr@VJdqControlThread@@@boost@@@@QAEXXZ 00438430 f i devicethreadcontrol.obj
 0001:000374f0       ?detach_helper@?$QMap@VQString@@V?$shared_ptr@VBmqControlThread@@@boost@@@@AAEXXZ 004384f0 f i devicethreadcontrol.obj
 0001:00037590       ?detach_helper@?$QMap@VQString@@V?$shared_ptr@VCgqControlThread@@@boost@@@@AAEXXZ 00438590 f i devicethreadcontrol.obj
 0001:00037630       ?detach_helper@?$QMap@VQString@@V?$shared_ptr@VJdqControlThread@@@boost@@@@AAEXXZ 00438630 f i devicethreadcontrol.obj
 0001:000376d0       ?dispose@?$sp_counted_impl_p@VBmqControlThread@@@detail@boost@@UAEXXZ 004386d0 f i devicethreadcontrol.obj
 0001:000376f0       ?dispose@?$sp_counted_impl_p@VCgqControlThread@@@detail@boost@@UAEXXZ 004386f0 f i devicethreadcontrol.obj
 0001:00037710       ?dispose@?$sp_counted_impl_p@VJdqControlThread@@@detail@boost@@UAEXXZ 00438710 f i devicethreadcontrol.obj
 0001:00037730       ?do_complete@?$win_iocp_socket_recv_op@Vmutable_buffers_1@asio@boost@@V?$read_op@V?$basic_stream_socket@Vtcp@ip@asio@boost@@V?$stream_socket_service@Vtcp@ip@asio@boost@@@34@@asio@boost@@Vmutable_buffers_1@23@Vtransfer_all_t@detail@23@V?$bind_t@XV?$mf2@XVCgqControlThread@@ABVerror_code@system@boost@@I@_mfi@boost@@V?$list3@V?$value@PAVCgqControlThread@@@_bi@boost@@U?$arg@$00@3@U?$arg@$01@3@@_bi@3@@_bi@3@@detail@23@@detail@asio@boost@@SAXPAVwin_iocp_io_service@234@PAVwin_iocp_operation@234@ABVerror_code@system@4@I@Z 00438730 f i devicethreadcontrol.obj
 0001:00037880       ?findNode@?$QMapData@VQString@@V?$shared_ptr@VBmqControlThread@@@boost@@@@QBEPAU?$QMapNode@VQString@@V?$shared_ptr@VBmqControlThread@@@boost@@@@ABVQString@@@Z 00438880 f i devicethreadcontrol.obj
 0001:000378d0       ?findNode@?$QMapData@VQString@@V?$shared_ptr@VCgqControlThread@@@boost@@@@QBEPAU?$QMapNode@VQString@@V?$shared_ptr@VCgqControlThread@@@boost@@@@ABVQString@@@Z 004388d0 f i devicethreadcontrol.obj
 0001:00037920       ?findNode@?$QMapData@VQString@@V?$shared_ptr@VJdqControlThread@@@boost@@@@QBEPAU?$QMapNode@VQString@@V?$shared_ptr@VJdqControlThread@@@boost@@@@ABVQString@@@Z 00438920 f i devicethreadcontrol.obj
 0001:00037970       ?get_deleter@?$sp_counted_impl_p@VBmqControlThread@@@detail@boost@@UAEPAXABVtype_info@@@Z 00438970 f i devicethreadcontrol.obj
 0001:00037980       ?get_deleter@?$sp_counted_impl_p@VCgqControlThread@@@detail@boost@@UAEPAXABVtype_info@@@Z 00438980 f i devicethreadcontrol.obj
 0001:00037990       ?get_deleter@?$sp_counted_impl_p@VJdqControlThread@@@detail@boost@@UAEPAXABVtype_info@@@Z 00438990 f i devicethreadcontrol.obj
 0001:000379a0       ?get_untyped_deleter@?$sp_counted_impl_p@VBmqControlThread@@@detail@boost@@UAEPAXXZ 004389a0 f i devicethreadcontrol.obj
 0001:000379b0       ?get_untyped_deleter@?$sp_counted_impl_p@VCgqControlThread@@@detail@boost@@UAEPAXXZ 004389b0 f i devicethreadcontrol.obj
 0001:000379c0       ?get_untyped_deleter@?$sp_counted_impl_p@VJdqControlThread@@@detail@boost@@UAEPAXXZ 004389c0 f i devicethreadcontrol.obj
 0001:000379d0       ?handle_read@CgqControlThread@@AAEXABVerror_code@system@boost@@I@Z 004389d0 f   devicethreadcontrol.obj
 0001:00037b30       ?insert@?$QMap@VQString@@V?$shared_ptr@VBmqControlThread@@@boost@@@@QAE?AViterator@1@ABVQString@@ABV?$shared_ptr@VBmqControlThread@@@boost@@@Z 00438b30 f i devicethreadcontrol.obj
 0001:00037c20       ?insert@?$QMap@VQString@@V?$shared_ptr@VCgqControlThread@@@boost@@@@QAE?AViterator@1@ABVQString@@ABV?$shared_ptr@VCgqControlThread@@@boost@@@Z 00438c20 f i devicethreadcontrol.obj
 0001:00037d10       ?insert@?$QMap@VQString@@V?$shared_ptr@VJdqControlThread@@@boost@@@@QAE?AViterator@1@ABVQString@@ABV?$shared_ptr@VJdqControlThread@@@boost@@@Z 00438d10 f i devicethreadcontrol.obj
 0001:00037e00       ?lowerBound@?$QMapNode@VQString@@V?$shared_ptr@VBmqControlThread@@@boost@@@@QAEPAU1@ABVQString@@@Z 00438e00 f i devicethreadcontrol.obj
 0001:00037e50       ?lowerBound@?$QMapNode@VQString@@V?$shared_ptr@VCgqControlThread@@@boost@@@@QAEPAU1@ABVQString@@@Z 00438e50 f i devicethreadcontrol.obj
 0001:00037ea0       ?lowerBound@?$QMapNode@VQString@@V?$shared_ptr@VJdqControlThread@@@boost@@@@QAEPAU1@ABVQString@@@Z 00438ea0 f i devicethreadcontrol.obj
 0001:00037ef0       ?on_completion@win_iocp_io_service@detail@asio@boost@@QAEXPAVwin_iocp_operation@234@KK@Z 00438ef0 f i devicethreadcontrol.obj
 0001:00037f80       ?on_pending@win_iocp_io_service@detail@asio@boost@@QAEXPAVwin_iocp_operation@234@@Z 00438f80 f i devicethreadcontrol.obj
 0001:00038010       ?run@BmqControlThread@@UAEXXZ 00439010 f   devicethreadcontrol.obj
 0001:000384e0       ?run@CgqControlThread@@UAEXXZ 004394e0 f   devicethreadcontrol.obj
 0001:00038960       ?run@DydlControlThread@@UAEXXZ 00439960 f   devicethreadcontrol.obj
 0001:00038970       ?run@JdqControlThread@@UAEXXZ 00439970 f   devicethreadcontrol.obj
 0001:00038e30       ?sendBmqData@BmqControlThread@@AAE_NAAI@Z 00439e30 f   devicethreadcontrol.obj
 0001:00039190       ?sendCgqData@CgqControlThread@@AAE_NAAI@Z 0043a190 f   devicethreadcontrol.obj
 0001:00039530       ?sendJdqData@JdqControlThread@@AAE_NAAI@Z 0043a530 f   devicethreadcontrol.obj
 0001:00039cd0       ?startCANMod@DeviceThreadControl@@AAE_N_N@Z 0043acd0 f   devicethreadcontrol.obj
 0001:00039e90       ?start_receive_op@win_iocp_socket_service_base@detail@asio@boost@@IAEXAAUbase_implementation_type@1234@PAU_WSABUF@@IH_NPAVwin_iocp_operation@234@@Z 0043ae90 f i devicethreadcontrol.obj
 0001:00039f90       ?stop@BmqControlThread@@QAEXXZ 0043af90 f   devicethreadcontrol.obj
 0001:00039fa0       ?stop@CgqControlThread@@QAEXXZ 0043afa0 f   devicethreadcontrol.obj
 0001:00039fb0       ?stop@DydlControlThread@@QAEXXZ 0043afb0 f   devicethreadcontrol.obj
 0001:00039fc0       ?stop@JdqControlThread@@QAEXXZ 0043afc0 f   devicethreadcontrol.obj
 0001:00039fd0       ??0?$QList@VQString@@@@QAE@V?$initializer_list@VQString@@@std@@@Z 0043afd0 f i experimentthread.obj
 0001:0003a060       ?run@ExperimentThread@@UAEXXZ 0043b060 f   experimentthread.obj
 0001:0003a210       ??0Log_@@AAE@XZ            0043b210 f   log_.obj
 0001:0003a220       ?GetInstance@Log_@@SAPAV1@XZ 0043b220 f   log_.obj
 0001:0003a250       ?Init_log@Log_@@QAE_NVQString@@@Z 0043b250 f   log_.obj
 0001:0003a2d0       ?OutputMessage@@YAXW4QtMsgType@@ABVQMessageLogContext@@ABVQString@@@Z 0043b2d0 f   log_.obj
 0001:0003a9a0       ?Write_log@Log_@@QAE_NVQString@@H@Z 0043b9a0 f   log_.obj
 0001:0003aa80       ??$?0V?$bind_t@IV?$mf0@IVio_service@asio@boost@@@_mfi@boost@@V?$list1@V?$value@V?$shared_ptr@Vio_service@asio@boost@@@boost@@@_bi@boost@@@_bi@3@@_bi@boost@@@thread@boost@@QAE@$$QAV?$bind_t@IV?$mf0@IVio_service@asio@boost@@@_mfi@boost@@V?$list1@V?$value@V?$shared_ptr@Vio_service@asio@boost@@@boost@@@_bi@boost@@@_bi@3@@_bi@1@@Z 0043ba80 f i server.obj
 0001:0003ab80       ??$?0VMysession@@@shared_count@detail@boost@@QAE@PAVMysession@@@Z 0043bb80 f i server.obj
 0001:0003ac40       ??$?0Vio_service@asio@boost@@@shared_count@detail@boost@@QAE@PAVio_service@asio@2@@Z 0043bc40 f i server.obj
 0001:0003ad00       ??$?0Vthread@boost@@@shared_count@detail@boost@@QAE@PAVthread@2@@Z 0043bd00 f i server.obj
 0001:0003adc0       ??$?0Vwin_iocp_io_service@detail@asio@boost@@I@service_registry@detail@asio@boost@@QAE@AAVio_service@23@PAVwin_iocp_io_service@123@I@Z 0043bdc0 f i server.obj
 0001:0003aeb0       ??$?0Vwork@io_service@asio@boost@@@shared_count@detail@boost@@QAE@PAVwork@io_service@asio@2@@Z 0043beb0 f i server.obj
 0001:0003af70       ??$?RVerror_code@system@boost@@I@?$wrapped_handler@Vstrand@io_service@asio@boost@@V?$bind_t@XV?$mf1@XVMysession@@ABVerror_code@system@boost@@@_mfi@boost@@V?$list2@V?$value@V?$shared_ptr@VMysession@@@boost@@@_bi@boost@@U?$arg@$00@3@@_bi@3@@_bi@4@Uis_continuation_if_running@detail@34@@detail@asio@boost@@QAEXABVerror_code@system@3@ABI@Z 0043bf70 f i server.obj
 0001:0003b070       ??$_Destroy_range1@V?$allocator@V?$shared_ptr@Ushared_state_base@detail@boost@@@boost@@@std@@PAV?$shared_ptr@Ushared_state_base@detail@boost@@@boost@@@std@@YAXPAV?$shared_ptr@Ushared_state_base@detail@boost@@@boost@@0AAU?$_Wrap_alloc@V?$allocator@V?$shared_ptr@Ushared_state_base@detail@boost@@@boost@@@std@@@0@U?$integral_constant@_N$0A@@0@@Z 0043c070 f i server.obj
 0001:0003b130       ??$_Destroy_range1@V?$allocator@V?$shared_ptr@Vio_service@asio@boost@@@boost@@@std@@PAV?$shared_ptr@Vio_service@asio@boost@@@boost@@@std@@YAXPAV?$shared_ptr@Vio_service@asio@boost@@@boost@@0AAU?$_Wrap_alloc@V?$allocator@V?$shared_ptr@Vio_service@asio@boost@@@boost@@@std@@@0@U?$integral_constant@_N$0A@@0@@Z 0043c130 f i server.obj
 0001:0003b1f0       ??$_Destroy_range1@V?$allocator@V?$shared_ptr@Vthread@boost@@@boost@@@std@@PAV?$shared_ptr@Vthread@boost@@@boost@@@std@@YAXPAV?$shared_ptr@Vthread@boost@@@boost@@0AAU?$_Wrap_alloc@V?$allocator@V?$shared_ptr@Vthread@boost@@@boost@@@std@@@0@U?$integral_constant@_N$0A@@0@@Z 0043c1f0 f i server.obj
 0001:0003b2b0       ??$_Destroy_range1@V?$allocator@V?$shared_ptr@Vwork@io_service@asio@boost@@@boost@@@std@@PAV?$shared_ptr@Vwork@io_service@asio@boost@@@boost@@@std@@YAXPAV?$shared_ptr@Vwork@io_service@asio@boost@@@boost@@0AAU?$_Wrap_alloc@V?$allocator@V?$shared_ptr@Vwork@io_service@asio@boost@@@boost@@@std@@@0@U?$integral_constant@_N$0A@@0@@Z 0043c2b0 f i server.obj
 0001:0003b370       ??$_Resetp@XUnoop_deleter@socket_ops@detail@asio@boost@@@?$shared_ptr@X@std@@AAEXPAXUnoop_deleter@socket_ops@detail@asio@boost@@@Z 0043c370 f i server.obj
 0001:0003b450       ??$_Uninitialized_move_al_unchecked1@PAU?$pair@PAVcondition_variable@boost@@PAVmutex@2@@std@@PAU12@V?$allocator@U?$pair@PAVcondition_variable@boost@@PAVmutex@2@@std@@@2@@std@@YAPAU?$pair@PAVcondition_variable@boost@@PAVmutex@2@@0@PAU10@00AAU?$_Wrap_alloc@V?$allocator@U?$pair@PAVcondition_variable@boost@@PAVmutex@2@@std@@@std@@@0@U_General_ptr_iterator_tag@0@U_Any_tag@0@@Z 0043c450 f i server.obj
 0001:0003b4a0       ??$_Uninitialized_move_al_unchecked1@PAV?$shared_ptr@Vio_service@asio@boost@@@boost@@PAV12@V?$allocator@V?$shared_ptr@Vio_service@asio@boost@@@boost@@@std@@@std@@YAPAV?$shared_ptr@Vio_service@asio@boost@@@boost@@PAV12@00AAU?$_Wrap_alloc@V?$allocator@V?$shared_ptr@Vio_service@asio@boost@@@boost@@@std@@@0@U_General_ptr_iterator_tag@0@U_Any_tag@0@@Z 0043c4a0 f i server.obj
 0001:0003b500       ??$_Uninitialized_move_al_unchecked1@PAV?$shared_ptr@Vthread@boost@@@boost@@PAV12@V?$allocator@V?$shared_ptr@Vthread@boost@@@boost@@@std@@@std@@YAPAV?$shared_ptr@Vthread@boost@@@boost@@PAV12@00AAU?$_Wrap_alloc@V?$allocator@V?$shared_ptr@Vthread@boost@@@boost@@@std@@@0@U_General_ptr_iterator_tag@0@U_Any_tag@0@@Z 0043c500 f i server.obj
 0001:0003b560       ??$_Uninitialized_move_al_unchecked1@PAV?$shared_ptr@Vwork@io_service@asio@boost@@@boost@@PAV12@V?$allocator@V?$shared_ptr@Vwork@io_service@asio@boost@@@boost@@@std@@@std@@YAPAV?$shared_ptr@Vwork@io_service@asio@boost@@@boost@@PAV12@00AAU?$_Wrap_alloc@V?$allocator@V?$shared_ptr@Vwork@io_service@asio@boost@@@boost@@@std@@@0@U_General_ptr_iterator_tag@0@U_Any_tag@0@@Z 0043c560 f i server.obj
 0001:0003b5c0       ??$_internal_accept_owner@VMysession@@V1@@?$enable_shared_from_this@VMysession@@@boost@@QBEXPBV?$shared_ptr@VMysession@@@1@PAVMysession@@@Z 0043c5c0 f i server.obj
 0001:0003b6d0       ??$asio_handler_invoke@V?$binder1@V?$bind_t@XV?$mf2@XVMyserver@@AAV?$shared_ptr@VMysession@@@boost@@ABVerror_code@system@3@@_mfi@boost@@V?$list3@V?$value@PAVMyserver@@@_bi@boost@@V?$value@V?$shared_ptr@VMysession@@@boost@@@23@U?$arg@$00@3@@_bi@3@@_bi@boost@@Verror_code@system@3@@detail@asio@boost@@@asio@boost@@YAXAAV?$binder1@V?$bind_t@XV?$mf2@XVMyserver@@AAV?$shared_ptr@VMysession@@@boost@@ABVerror_code@system@3@@_mfi@boost@@V?$list3@V?$value@PAVMyserver@@@_bi@boost@@V?$value@V?$shared_ptr@VMysession@@@boost@@@23@U?$arg@$00@3@@_bi@3@@_bi@boost@@Verror_code@system@3@@detail@01@ZZ 0043c6d0 f i server.obj
 0001:0003b6f0       ??$asio_handler_invoke@V?$binder2@V?$bind_t@XV?$mf1@XVMysession@@ABVerror_code@system@boost@@@_mfi@boost@@V?$list2@V?$value@V?$shared_ptr@VMysession@@@boost@@@_bi@boost@@U?$arg@$00@3@@_bi@3@@_bi@boost@@Verror_code@system@3@I@detail@asio@boost@@@asio@boost@@YAXAAV?$binder2@V?$bind_t@XV?$mf1@XVMysession@@ABVerror_code@system@boost@@@_mfi@boost@@V?$list2@V?$value@V?$shared_ptr@VMysession@@@boost@@@_bi@boost@@U?$arg@$00@3@@_bi@3@@_bi@boost@@Verror_code@system@3@I@detail@01@ZZ 0043c6f0 f i server.obj
 0001:0003b710       ??$asio_handler_invoke@V?$binder2@V?$write_op@V?$basic_stream_socket@Vtcp@ip@asio@boost@@V?$stream_socket_service@Vtcp@ip@asio@boost@@@34@@asio@boost@@Vmutable_buffers_1@23@Vtransfer_all_t@detail@23@V?$wrapped_handler@Vstrand@io_service@asio@boost@@V?$bind_t@XV?$mf1@XVMysession@@ABVerror_code@system@boost@@@_mfi@boost@@V?$list2@V?$value@V?$shared_ptr@VMysession@@@boost@@@_bi@boost@@U?$arg@$00@3@@_bi@3@@_bi@4@Uis_continuation_if_running@detail@34@@623@@detail@asio@boost@@Verror_code@system@4@I@detail@asio@boost@@Vstrand@io_service@34@V?$bind_t@XV?$mf1@XVMysession@@ABVerror_code@system@boost@@@_mfi@boost@@V?$list2@V?$value@V?$shared_ptr@VMysession@@@boost@@@_bi@boost@@U?$arg@$00@3@@_bi@3@@_bi@4@Uis_continuation_if_running@234@@detail@asio@boost@@YAXAAV?$binder2@V?$write_op@V?$basic_stream_socket@Vtcp@ip@asio@boost@@V?$stream_socket_service@Vtcp@ip@asio@boost@@@34@@asio@boost@@Vmutable_buffers_1@23@Vtransfer_all_t@detail@23@V?$wrapped_handler@Vstrand@io_service@asio@boost@@V?$bind_t@XV?$mf1@XVMysession@@ABVerror_code@system@boost@@@_mfi@boost@@V?$list2@V?$value@V?$shared_ptr@VMysession@@@boost@@@_bi@boost@@U?$arg@$00@3@@_bi@3@@_bi@4@Uis_continuation_if_running@detail@34@@623@@detail@asio@boost@@Verror_code@system@4@I@012@PAV?$wrapped_handler@Vstrand@io_service@asio@boost@@V?$bind_t@XV?$mf1@XVMysession@@ABVerror_code@system@boost@@@_mfi@boost@@V?$list2@V?$value@V?$shared_ptr@VMysession@@@boost@@@_bi@boost@@U?$arg@$00@3@@_bi@3@@_bi@4@Uis_continuation_if_running@detail@34@@012@@Z 0043c710 f i server.obj
 0001:0003b830       ??$asio_handler_invoke@V?$rewrapped_handler@V?$binder2@V?$write_op@V?$basic_stream_socket@Vtcp@ip@asio@boost@@V?$stream_socket_service@Vtcp@ip@asio@boost@@@34@@asio@boost@@Vmutable_buffers_1@23@Vtransfer_all_t@detail@23@V?$wrapped_handler@Vstrand@io_service@asio@boost@@V?$bind_t@XV?$mf1@XVMysession@@ABVerror_code@system@boost@@@_mfi@boost@@V?$list2@V?$value@V?$shared_ptr@VMysession@@@boost@@@_bi@boost@@U?$arg@$00@3@@_bi@3@@_bi@4@Uis_continuation_if_running@detail@34@@623@@detail@asio@boost@@Verror_code@system@4@I@detail@asio@boost@@V?$bind_t@XV?$mf1@XVMysession@@ABVerror_code@system@boost@@@_mfi@boost@@V?$list2@V?$value@V?$shared_ptr@VMysession@@@boost@@@_bi@boost@@U?$arg@$00@3@@_bi@3@@_bi@4@@detail@asio@boost@@@asio@boost@@YAXAAV?$rewrapped_handler@V?$binder2@V?$write_op@V?$basic_stream_socket@Vtcp@ip@asio@boost@@V?$stream_socket_service@Vtcp@ip@asio@boost@@@34@@asio@boost@@Vmutable_buffers_1@23@Vtransfer_all_t@detail@23@V?$wrapped_handler@Vstrand@io_service@asio@boost@@V?$bind_t@XV?$mf1@XVMysession@@ABVerror_code@system@boost@@@_mfi@boost@@V?$list2@V?$value@V?$shared_ptr@VMysession@@@boost@@@_bi@boost@@U?$arg@$00@3@@_bi@3@@_bi@4@Uis_continuation_if_running@detail@34@@623@@detail@asio@boost@@Verror_code@system@4@I@detail@asio@boost@@V?$bind_t@XV?$mf1@XVMysession@@ABVerror_code@system@boost@@@_mfi@boost@@V?$list2@V?$value@V?$shared_ptr@VMysession@@@boost@@@_bi@boost@@U?$arg@$00@3@@_bi@3@@_bi@4@@detail@01@ZZ 0043c830 f i server.obj
 0001:0003b850       ??$async_accept@V?$basic_socket@Vtcp@ip@asio@boost@@V?$stream_socket_service@Vtcp@ip@asio@boost@@@34@@asio@boost@@V?$bind_t@XV?$mf2@XVMyserver@@AAV?$shared_ptr@VMysession@@@boost@@ABVerror_code@system@3@@_mfi@boost@@V?$list3@V?$value@PAVMyserver@@@_bi@boost@@V?$value@V?$shared_ptr@VMysession@@@boost@@@23@U?$arg@$00@3@@_bi@3@@_bi@3@@?$win_iocp_socket_service@Vtcp@ip@asio@boost@@@detail@asio@boost@@QAEXAAUimplementation_type@0123@AAV?$basic_socket@Vtcp@ip@asio@boost@@V?$stream_socket_service@Vtcp@ip@asio@boost@@@34@@23@PAV?$basic_endpoint@Vtcp@ip@asio@boost@@@ip@23@AAV?$bind_t@XV?$mf2@XVMyserver@@AAV?$shared_ptr@VMysession@@@boost@@ABVerror_code@system@3@@_mfi@boost@@V?$list3@V?$value@PAVMyserver@@@_bi@boost@@V?$value@V?$shared_ptr@VMysession@@@boost@@@23@U?$arg@$00@3@@_bi@3@@_bi@3@@Z 0043c850 f i server.obj
 0001:0003b900       ??$async_accept@Vtcp@ip@asio@boost@@V?$stream_socket_service@Vtcp@ip@asio@boost@@@34@V?$bind_t@XV?$mf2@XVMyserver@@AAV?$shared_ptr@VMysession@@@boost@@ABVerror_code@system@3@@_mfi@boost@@V?$list3@V?$value@PAVMyserver@@@_bi@boost@@V?$value@V?$shared_ptr@VMysession@@@boost@@@23@U?$arg@$00@3@@_bi@3@@_bi@4@@?$socket_acceptor_service@Vtcp@ip@asio@boost@@@asio@boost@@QAEXAAUimplementation_type@?$win_iocp_socket_service@Vtcp@ip@asio@boost@@@detail@12@AAV?$basic_socket@Vtcp@ip@asio@boost@@V?$stream_socket_service@Vtcp@ip@asio@boost@@@34@@12@PAV?$basic_endpoint@Vtcp@ip@asio@boost@@@ip@12@$$QAV?$bind_t@XV?$mf2@XVMyserver@@AAV?$shared_ptr@VMysession@@@boost@@ABVerror_code@system@3@@_mfi@boost@@V?$list3@V?$value@PAVMyserver@@@_bi@boost@@V?$value@V?$shared_ptr@VMysession@@@boost@@@23@U?$arg@$00@3@@_bi@3@@_bi@2@PAX@Z 0043c900 f i server.obj
 0001:0003b9f0       ??$async_send@Vmutable_buffers_1@asio@boost@@V?$write_op@V?$basic_stream_socket@Vtcp@ip@asio@boost@@V?$stream_socket_service@Vtcp@ip@asio@boost@@@34@@asio@boost@@Vmutable_buffers_1@23@Vtransfer_all_t@detail@23@V?$wrapped_handler@Vstrand@io_service@asio@boost@@V?$bind_t@XV?$mf1@XVMysession@@ABVerror_code@system@boost@@@_mfi@boost@@V?$list2@V?$value@V?$shared_ptr@VMysession@@@boost@@@_bi@boost@@U?$arg@$00@3@@_bi@3@@_bi@4@Uis_continuation_if_running@detail@34@@623@@detail@23@@?$stream_socket_service@Vtcp@ip@asio@boost@@@asio@boost@@QAEXAAUimplementation_type@?$win_iocp_socket_service@Vtcp@ip@asio@boost@@@detail@12@ABVmutable_buffers_1@12@H$$QAV?$write_op@V?$basic_stream_socket@Vtcp@ip@asio@boost@@V?$stream_socket_service@Vtcp@ip@asio@boost@@@34@@asio@boost@@Vmutable_buffers_1@23@Vtransfer_all_t@detail@23@V?$wrapped_handler@Vstrand@io_service@asio@boost@@V?$bind_t@XV?$mf1@XVMysession@@ABVerror_code@system@boost@@@_mfi@boost@@V?$list2@V?$value@V?$shared_ptr@VMysession@@@boost@@@_bi@boost@@U?$arg@$00@3@@_bi@3@@_bi@4@Uis_continuation_if_running@detail@34@@623@@512@@Z 0043c9f0 f i server.obj
 0001:0003bb10       ??$async_send@Vmutable_buffers_1@asio@boost@@V?$write_op@V?$basic_stream_socket@Vtcp@ip@asio@boost@@V?$stream_socket_service@Vtcp@ip@asio@boost@@@34@@asio@boost@@Vmutable_buffers_1@23@Vtransfer_all_t@detail@23@V?$wrapped_handler@Vstrand@io_service@asio@boost@@V?$bind_t@XV?$mf1@XVMysession@@ABVerror_code@system@boost@@@_mfi@boost@@V?$list2@V?$value@V?$shared_ptr@VMysession@@@boost@@@_bi@boost@@U?$arg@$00@3@@_bi@3@@_bi@4@Uis_continuation_if_running@detail@34@@623@@detail@23@@win_iocp_socket_service_base@detail@asio@boost@@QAEXAAUbase_implementation_type@0123@ABVmutable_buffers_1@23@HAAV?$write_op@V?$basic_stream_socket@Vtcp@ip@asio@boost@@V?$stream_socket_service@Vtcp@ip@asio@boost@@@34@@asio@boost@@Vmutable_buffers_1@23@Vtransfer_all_t@detail@23@V?$wrapped_handler@Vstrand@io_service@asio@boost@@V?$bind_t@XV?$mf1@XVMysession@@ABVerror_code@system@boost@@@_mfi@boost@@V?$list2@V?$value@V?$shared_ptr@VMysession@@@boost@@@_bi@boost@@U?$arg@$00@3@@_bi@3@@_bi@4@Uis_continuation_if_running@detail@34@@623@@123@@Z 0043cb10 f i server.obj
 0001:0003bc60       ??$async_write@V?$basic_stream_socket@Vtcp@ip@asio@boost@@V?$stream_socket_service@Vtcp@ip@asio@boost@@@34@@asio@boost@@Vmutable_buffers_1@23@V?$wrapped_handler@Vstrand@io_service@asio@boost@@V?$bind_t@XV?$mf1@XVMysession@@ABVerror_code@system@boost@@@_mfi@boost@@V?$list2@V?$value@V?$shared_ptr@VMysession@@@boost@@@_bi@boost@@U?$arg@$00@3@@_bi@3@@_bi@4@Uis_continuation_if_running@detail@34@@detail@23@@asio@boost@@YAXAAV?$basic_stream_socket@Vtcp@ip@asio@boost@@V?$stream_socket_service@Vtcp@ip@asio@boost@@@34@@01@ABVmutable_buffers_1@01@$$QAV?$wrapped_handler@Vstrand@io_service@asio@boost@@V?$bind_t@XV?$mf1@XVMysession@@ABVerror_code@system@boost@@@_mfi@boost@@V?$list2@V?$value@V?$shared_ptr@VMysession@@@boost@@@_bi@boost@@U?$arg@$00@3@@_bi@3@@_bi@4@Uis_continuation_if_running@detail@34@@detail@01@@Z 0043cc60 f i server.obj
 0001:0003be20       ??$bind@IVio_service@asio@boost@@V?$shared_ptr@Vio_service@asio@boost@@@3@@boost@@YA?AV?$bind_t@IV?$mf0@IVio_service@asio@boost@@@_mfi@boost@@V?$list1@V?$value@V?$shared_ptr@Vio_service@asio@boost@@@boost@@@_bi@boost@@@_bi@3@@_bi@0@P8io_service@asio@0@AEIXZV?$shared_ptr@Vio_service@asio@boost@@@0@@Z 0043ce20 f i server.obj
 0001:0003bf70       ??$bind@XVMyserver@@AAV?$shared_ptr@VMysession@@@boost@@ABVerror_code@system@3@PAV1@V23@U?$arg@$00@3@@boost@@YA?AV?$bind_t@XV?$mf2@XVMyserver@@AAV?$shared_ptr@VMysession@@@boost@@ABVerror_code@system@3@@_mfi@boost@@V?$list3@V?$value@PAVMyserver@@@_bi@boost@@V?$value@V?$shared_ptr@VMysession@@@boost@@@23@U?$arg@$00@3@@_bi@3@@_bi@0@P8Myserver@@AEXAAV?$shared_ptr@VMysession@@@0@ABVerror_code@system@0@@ZPAV3@V40@U?$arg@$00@0@@Z 0043cf70 f i server.obj
 0001:0003c0d0       ??$bind@XVMysession@@ABVerror_code@system@boost@@V?$shared_ptr@VMysession@@@4@U?$arg@$00@4@@boost@@YA?AV?$bind_t@XV?$mf1@XVMysession@@ABVerror_code@system@boost@@@_mfi@boost@@V?$list2@V?$value@V?$shared_ptr@VMysession@@@boost@@@_bi@boost@@U?$arg@$00@3@@_bi@3@@_bi@0@P8Mysession@@AEXABVerror_code@system@0@@ZV?$shared_ptr@VMysession@@@0@U?$arg@$00@0@@Z 0043d0d0 f i server.obj
 0001:0003c230       ??$bind_handler@V?$bind_t@XV?$mf1@XVMysession@@ABVerror_code@system@boost@@@_mfi@boost@@V?$list2@V?$value@V?$shared_ptr@VMysession@@@boost@@@_bi@boost@@U?$arg@$00@3@@_bi@3@@_bi@boost@@Verror_code@system@3@I@detail@asio@boost@@YA?AV?$binder2@V?$bind_t@XV?$mf1@XVMysession@@ABVerror_code@system@boost@@@_mfi@boost@@V?$list2@V?$value@V?$shared_ptr@VMysession@@@boost@@@_bi@boost@@U?$arg@$00@3@@_bi@3@@_bi@boost@@Verror_code@system@3@I@012@V?$bind_t@XV?$mf1@XVMysession@@ABVerror_code@system@boost@@@_mfi@boost@@V?$list2@V?$value@V?$shared_ptr@VMysession@@@boost@@@_bi@boost@@U?$arg@$00@3@@_bi@3@@_bi@2@ABVerror_code@system@2@ABI@Z 0043d230 f i server.obj
 0001:0003c330       ??$checked_delete@Vio_service@asio@boost@@@boost@@YAXPAVio_service@asio@0@@Z 0043d330 f i server.obj
 0001:0003c390       ??$checked_delete@Vthread@boost@@@boost@@YAXPAVthread@0@@Z 0043d390 f i server.obj
 0001:0003c430       ??$checked_delete@Vwork@io_service@asio@boost@@@boost@@YAXPAVwork@io_service@asio@0@@Z 0043d430 f i server.obj
 0001:0003c4b0       ??$create@V?$socket_acceptor_service@Vtcp@ip@asio@boost@@@asio@boost@@@service_registry@detail@asio@boost@@CAPAVservice@io_service@23@AAV523@@Z 0043d4b0 f i server.obj
 0001:0003c530       ??$decay_copy@V?$bind_t@IV?$mf0@IVio_service@asio@boost@@@_mfi@boost@@V?$list1@V?$value@V?$shared_ptr@Vio_service@asio@boost@@@boost@@@_bi@boost@@@_bi@3@@_bi@boost@@@thread_detail@boost@@YA?AV?$bind_t@IV?$mf0@IVio_service@asio@boost@@@_mfi@boost@@V?$list1@V?$value@V?$shared_ptr@Vio_service@asio@boost@@@boost@@@_bi@boost@@@_bi@3@@_bi@1@$$QAV231@@Z 0043d530 f i server.obj
 0001:0003c580       ??$dispatch@V?$binder2@V?$bind_t@XV?$mf1@XVMysession@@ABVerror_code@system@boost@@@_mfi@boost@@V?$list2@V?$value@V?$shared_ptr@VMysession@@@boost@@@_bi@boost@@U?$arg@$00@3@@_bi@3@@_bi@boost@@Verror_code@system@3@I@detail@asio@boost@@@strand@io_service@asio@boost@@QAEX$$QAV?$binder2@V?$bind_t@XV?$mf1@XVMysession@@ABVerror_code@system@boost@@@_mfi@boost@@V?$list2@V?$value@V?$shared_ptr@VMysession@@@boost@@@_bi@boost@@U?$arg@$00@3@@_bi@3@@_bi@boost@@Verror_code@system@3@I@detail@23@@Z 0043d580 f i server.obj
 0001:0003c680       ??$dispatch@V?$binder2@V?$bind_t@XV?$mf1@XVMysession@@ABVerror_code@system@boost@@@_mfi@boost@@V?$list2@V?$value@V?$shared_ptr@VMysession@@@boost@@@_bi@boost@@U?$arg@$00@3@@_bi@3@@_bi@boost@@Verror_code@system@3@I@detail@asio@boost@@@strand_service@detail@asio@boost@@QAEXAAPAVstrand_impl@0123@AAV?$binder2@V?$bind_t@XV?$mf1@XVMysession@@ABVerror_code@system@boost@@@_mfi@boost@@V?$list2@V?$value@V?$shared_ptr@VMysession@@@boost@@@_bi@boost@@U?$arg@$00@3@@_bi@3@@_bi@boost@@Verror_code@system@3@I@123@@Z 0043d680 f i server.obj
 0001:0003c840       ??$dispatch@V?$rewrapped_handler@V?$binder2@V?$write_op@V?$basic_stream_socket@Vtcp@ip@asio@boost@@V?$stream_socket_service@Vtcp@ip@asio@boost@@@34@@asio@boost@@Vmutable_buffers_1@23@Vtransfer_all_t@detail@23@V?$wrapped_handler@Vstrand@io_service@asio@boost@@V?$bind_t@XV?$mf1@XVMysession@@ABVerror_code@system@boost@@@_mfi@boost@@V?$list2@V?$value@V?$shared_ptr@VMysession@@@boost@@@_bi@boost@@U?$arg@$00@3@@_bi@3@@_bi@4@Uis_continuation_if_running@detail@34@@623@@detail@asio@boost@@Verror_code@system@4@I@detail@asio@boost@@V?$bind_t@XV?$mf1@XVMysession@@ABVerror_code@system@boost@@@_mfi@boost@@V?$list2@V?$value@V?$shared_ptr@VMysession@@@boost@@@_bi@boost@@U?$arg@$00@3@@_bi@3@@_bi@4@@detail@asio@boost@@@strand_service@detail@asio@boost@@QAEXAAPAVstrand_impl@0123@AAV?$rewrapped_handler@V?$binder2@V?$write_op@V?$basic_stream_socket@Vtcp@ip@asio@boost@@V?$stream_socket_service@Vtcp@ip@asio@boost@@@34@@asio@boost@@Vmutable_buffers_1@23@Vtransfer_all_t@detail@23@V?$wrapped_handler@Vstrand@io_service@asio@boost@@V?$bind_t@XV?$mf1@XVMysession@@ABVerror_code@system@boost@@@_mfi@boost@@V?$list2@V?$value@V?$shared_ptr@VMysession@@@boost@@@_bi@boost@@U?$arg@$00@3@@_bi@3@@_bi@4@Uis_continuation_if_running@detail@34@@623@@detail@asio@boost@@Verror_code@system@4@I@detail@asio@boost@@V?$bind_t@XV?$mf1@XVMysession@@ABVerror_code@system@boost@@@_mfi@boost@@V?$list2@V?$value@V?$shared_ptr@VMysession@@@boost@@@_bi@boost@@U?$arg@$00@3@@_bi@3@@_bi@4@@123@@Z 0043d840 f i server.obj
 0001:0003c9f0       ??$enable_current_exception@U?$error_info_injector@Vbad_alloc@std@@@exception_detail@boost@@@boost@@YA?AV?$clone_impl@U?$error_info_injector@Vbad_alloc@std@@@exception_detail@boost@@@exception_detail@0@ABU?$error_info_injector@Vbad_alloc@std@@@20@@Z 0043d9f0 f i server.obj
 0001:0003cad0       ??$enable_current_exception@U?$error_info_injector@Vbad_weak_ptr@boost@@@exception_detail@boost@@@boost@@YA?AV?$clone_impl@U?$error_info_injector@Vbad_weak_ptr@boost@@@exception_detail@boost@@@exception_detail@0@ABU?$error_info_injector@Vbad_weak_ptr@boost@@@20@@Z 0043dad0 f i server.obj
 0001:0003cbb0       ??$enable_error_info@Vbad_alloc@std@@@boost@@YA?AU?$error_info_injector@Vbad_alloc@std@@@exception_detail@0@ABVbad_alloc@std@@@Z 0043dbb0 f i server.obj
 0001:0003cc30       ??$enable_error_info@Vbad_weak_ptr@boost@@@boost@@YA?AU?$error_info_injector@Vbad_weak_ptr@boost@@@exception_detail@0@ABVbad_weak_ptr@0@@Z 0043dc30 f i server.obj
 0001:0003ccb0       ??$first_service@Vwin_iocp_io_service@detail@asio@boost@@@service_registry@detail@asio@boost@@QAEAAVwin_iocp_io_service@123@XZ 0043dcb0 f i server.obj
 0001:0003ccc0       ??$heap_new@V?$thread_data@V?$bind_t@IV?$mf0@IVio_service@asio@boost@@@_mfi@boost@@V?$list1@V?$value@V?$shared_ptr@Vio_service@asio@boost@@@boost@@@_bi@boost@@@_bi@3@@_bi@boost@@@detail@boost@@V?$bind_t@IV?$mf0@IVio_service@asio@boost@@@_mfi@boost@@V?$list1@V?$value@V?$shared_ptr@Vio_service@asio@boost@@@boost@@@_bi@boost@@@_bi@3@@_bi@3@@detail@boost@@YAPAV?$thread_data@V?$bind_t@IV?$mf0@IVio_service@asio@boost@@@_mfi@boost@@V?$list1@V?$value@V?$shared_ptr@Vio_service@asio@boost@@@boost@@@_bi@boost@@@_bi@3@@_bi@boost@@@01@$$QAV?$bind_t@IV?$mf0@IVio_service@asio@boost@@@_mfi@boost@@V?$list1@V?$value@V?$shared_ptr@Vio_service@asio@boost@@@boost@@@_bi@boost@@@_bi@3@@_bi@1@@Z 0043dcc0 f i server.obj
 0001:0003cdd0       ??$init_key@V?$socket_acceptor_service@Vtcp@ip@asio@boost@@@asio@boost@@@service_registry@detail@asio@boost@@CAXAAUkey@service@io_service@23@ABV?$service_id@V?$socket_acceptor_service@Vtcp@ip@asio@boost@@@asio@boost@@@123@@Z 0043ddd0 f i server.obj
 0001:0003cdf0       ??$init_key@Vwin_iocp_io_service@detail@asio@boost@@@service_registry@detail@asio@boost@@CAXAAUkey@service@io_service@23@ABV?$service_id@Vwin_iocp_io_service@detail@asio@boost@@@123@@Z 0043ddf0 f i server.obj
 0001:0003ce10       ??$make_thread_info@V?$bind_t@IV?$mf0@IVio_service@asio@boost@@@_mfi@boost@@V?$list1@V?$value@V?$shared_ptr@Vio_service@asio@boost@@@boost@@@_bi@boost@@@_bi@3@@_bi@boost@@@thread@boost@@CA?AV?$intrusive_ptr@Uthread_data_base@detail@boost@@@1@$$QAV?$bind_t@IV?$mf0@IVio_service@asio@boost@@@_mfi@boost@@V?$list1@V?$value@V?$shared_ptr@Vio_service@asio@boost@@@boost@@@_bi@boost@@@_bi@3@@_bi@1@@Z 0043de10 f i server.obj
 0001:0003ce50       ??$reset@XUnoop_deleter@socket_ops@detail@asio@boost@@@?$shared_ptr@X@std@@QAEXPAXUnoop_deleter@socket_ops@detail@asio@boost@@@Z 0043de50 f i server.obj
 0001:0003ced0       ??$set_option@V?$boolean@$0PPPP@$03@socket_option@detail@asio@boost@@@?$win_iocp_socket_service@Vtcp@ip@asio@boost@@@detail@asio@boost@@QAE?AVerror_code@system@3@AAUimplementation_type@0123@ABV?$boolean@$0PPPP@$03@socket_option@123@AAV453@@Z 0043ded0 f i server.obj
 0001:0003cf70       ??$sp_pointer_construct@VMysession@@V1@@detail@boost@@YAXPAV?$shared_ptr@VMysession@@@1@PAVMysession@@AAVshared_count@01@@Z 0043df70 f i server.obj
 0001:0003d040       ??$throw_exception@Vbad_alloc@std@@@boost@@YAXABVbad_alloc@std@@@Z 0043e040 f i server.obj
 0001:0003d0b0       ??$throw_exception@Vbad_weak_ptr@boost@@@boost@@YAXABVbad_weak_ptr@0@@Z 0043e0b0 f i server.obj
 0001:0003d120       ??$use_service@V?$socket_acceptor_service@Vtcp@ip@asio@boost@@@asio@boost@@@service_registry@detail@asio@boost@@QAEAAV?$socket_acceptor_service@Vtcp@ip@asio@boost@@@23@XZ 0043e120 f i server.obj
 0001:0003d150       ??$wrap@V?$bind_t@XV?$mf1@XVMysession@@ABVerror_code@system@boost@@@_mfi@boost@@V?$list2@V?$value@V?$shared_ptr@VMysession@@@boost@@@_bi@boost@@U?$arg@$00@3@@_bi@3@@_bi@boost@@@strand@io_service@asio@boost@@QAE?AV?$wrapped_handler@Vstrand@io_service@asio@boost@@V?$bind_t@XV?$mf1@XVMysession@@ABVerror_code@system@boost@@@_mfi@boost@@V?$list2@V?$value@V?$shared_ptr@VMysession@@@boost@@@_bi@boost@@U?$arg@$00@3@@_bi@3@@_bi@4@Uis_continuation_if_running@detail@34@@detail@23@V?$bind_t@XV?$mf1@XVMysession@@ABVerror_code@system@boost@@@_mfi@boost@@V?$list2@V?$value@V?$shared_ptr@VMysession@@@boost@@@_bi@boost@@U?$arg@$00@3@@_bi@3@@_bi@3@@Z 0043e150 f i server.obj
 0001:0003d240       ??0?$basic_io_object@V?$socket_acceptor_service@Vtcp@ip@asio@boost@@@asio@boost@@$00@asio@boost@@IAE@AAVio_service@12@@Z 0043e240 f i server.obj
 0001:0003d320       ??0?$basic_socket_acceptor@Vtcp@ip@asio@boost@@V?$socket_acceptor_service@Vtcp@ip@asio@boost@@@34@@asio@boost@@QAE@AAVio_service@12@ABV?$basic_endpoint@Vtcp@ip@asio@boost@@@ip@12@_N@Z 0043e320 f i server.obj
 0001:0003d530       ??0?$binder2@V?$write_op@V?$basic_stream_socket@Vtcp@ip@asio@boost@@V?$stream_socket_service@Vtcp@ip@asio@boost@@@34@@asio@boost@@Vmutable_buffers_1@23@Vtransfer_all_t@detail@23@V?$wrapped_handler@Vstrand@io_service@asio@boost@@V?$bind_t@XV?$mf1@XVMysession@@ABVerror_code@system@boost@@@_mfi@boost@@V?$list2@V?$value@V?$shared_ptr@VMysession@@@boost@@@_bi@boost@@U?$arg@$00@3@@_bi@3@@_bi@4@Uis_continuation_if_running@detail@34@@623@@detail@asio@boost@@Verror_code@system@4@I@detail@asio@boost@@QAE@$$QAV0123@@Z 0043e530 f i server.obj
 0001:0003d5d0       ??0?$clone_impl@U?$error_info_injector@Vbad_alloc@std@@@exception_detail@boost@@@exception_detail@boost@@AAE@ABV012@Uclone_tag@012@@Z 0043e5d0 f i server.obj
 0001:0003d6c0       ??0?$clone_impl@U?$error_info_injector@Vbad_alloc@std@@@exception_detail@boost@@@exception_detail@boost@@QAE@ABV012@@Z 0043e6c0 f i server.obj
 0001:0003d790       ??0?$clone_impl@U?$error_info_injector@Vbad_weak_ptr@boost@@@exception_detail@boost@@@exception_detail@boost@@AAE@ABV012@Uclone_tag@012@@Z 0043e790 f i server.obj
 0001:0003d880       ??0?$clone_impl@U?$error_info_injector@Vbad_weak_ptr@boost@@@exception_detail@boost@@@exception_detail@boost@@QAE@ABV012@@Z 0043e880 f i server.obj
 0001:0003d950       ??0?$completion_handler@V?$binder2@V?$bind_t@XV?$mf1@XVMysession@@ABVerror_code@system@boost@@@_mfi@boost@@V?$list2@V?$value@V?$shared_ptr@VMysession@@@boost@@@_bi@boost@@U?$arg@$00@3@@_bi@3@@_bi@boost@@Verror_code@system@3@I@detail@asio@boost@@@detail@asio@boost@@QAE@AAV?$binder2@V?$bind_t@XV?$mf1@XVMysession@@ABVerror_code@system@boost@@@_mfi@boost@@V?$list2@V?$value@V?$shared_ptr@VMysession@@@boost@@@_bi@boost@@U?$arg@$00@3@@_bi@3@@_bi@boost@@Verror_code@system@3@I@123@@Z 0043e950 f i server.obj
 0001:0003da00       ??0?$completion_handler@V?$rewrapped_handler@V?$binder2@V?$write_op@V?$basic_stream_socket@Vtcp@ip@asio@boost@@V?$stream_socket_service@Vtcp@ip@asio@boost@@@34@@asio@boost@@Vmutable_buffers_1@23@Vtransfer_all_t@detail@23@V?$wrapped_handler@Vstrand@io_service@asio@boost@@V?$bind_t@XV?$mf1@XVMysession@@ABVerror_code@system@boost@@@_mfi@boost@@V?$list2@V?$value@V?$shared_ptr@VMysession@@@boost@@@_bi@boost@@U?$arg@$00@3@@_bi@3@@_bi@4@Uis_continuation_if_running@detail@34@@623@@detail@asio@boost@@Verror_code@system@4@I@detail@asio@boost@@V?$bind_t@XV?$mf1@XVMysession@@ABVerror_code@system@boost@@@_mfi@boost@@V?$list2@V?$value@V?$shared_ptr@VMysession@@@boost@@@_bi@boost@@U?$arg@$00@3@@_bi@3@@_bi@4@@detail@asio@boost@@@detail@asio@boost@@QAE@AAV?$rewrapped_handler@V?$binder2@V?$write_op@V?$basic_stream_socket@Vtcp@ip@asio@boost@@V?$stream_socket_service@Vtcp@ip@asio@boost@@@34@@asio@boost@@Vmutable_buffers_1@23@Vtransfer_all_t@detail@23@V?$wrapped_handler@Vstrand@io_service@asio@boost@@V?$bind_t@XV?$mf1@XVMysession@@ABVerror_code@system@boost@@@_mfi@boost@@V?$list2@V?$value@V?$shared_ptr@VMysession@@@boost@@@_bi@boost@@U?$arg@$00@3@@_bi@3@@_bi@4@Uis_continuation_if_running@detail@34@@623@@detail@asio@boost@@Verror_code@system@4@I@detail@asio@boost@@V?$bind_t@XV?$mf1@XVMysession@@ABVerror_code@system@boost@@@_mfi@boost@@V?$list2@V?$value@V?$shared_ptr@VMysession@@@boost@@@_bi@boost@@U?$arg@$00@3@@_bi@3@@_bi@4@@123@@Z 0043ea00 f i server.obj
 0001:0003dab0       ??0?$error_info_injector@Vbad_alloc@std@@@exception_detail@boost@@QAE@ABU012@@Z 0043eab0 f i server.obj
 0001:0003db90       ??0?$error_info_injector@Vbad_weak_ptr@boost@@@exception_detail@boost@@QAE@ABU012@@Z 0043eb90 f i server.obj
 0001:0003dc70       ??0?$list1@V?$value@V?$shared_ptr@Vio_service@asio@boost@@@boost@@@_bi@boost@@@_bi@boost@@QAE@V?$value@V?$shared_ptr@Vio_service@asio@boost@@@boost@@@12@@Z 0043ec70 f i server.obj
 0001:0003dda0       ??0?$list2@V?$value@V?$shared_ptr@VMysession@@@boost@@@_bi@boost@@U?$arg@$00@3@@_bi@boost@@QAE@V?$value@V?$shared_ptr@VMysession@@@boost@@@12@U?$arg@$00@2@@Z 0043eda0 f i server.obj
 0001:0003de80       ??0?$list3@V?$value@PAVMyserver@@@_bi@boost@@V?$value@V?$shared_ptr@VMysession@@@boost@@@23@U?$arg@$00@3@@_bi@boost@@QAE@V?$value@PAVMyserver@@@12@V?$value@V?$shared_ptr@VMysession@@@boost@@@12@U?$arg@$00@2@@Z 0043ee80 f i server.obj
 0001:0003df60       ??0?$socket_acceptor_service@Vtcp@ip@asio@boost@@@asio@boost@@QAE@AAVio_service@12@@Z 0043ef60 f i server.obj
 0001:0003e050       ??0?$storage2@V?$value@PAVMyserver@@@_bi@boost@@V?$value@V?$shared_ptr@VMysession@@@boost@@@23@@_bi@boost@@QAE@V?$value@PAVMyserver@@@12@V?$value@V?$shared_ptr@VMysession@@@boost@@@12@@Z 0043f050 f i server.obj
 0001:0003e120       ??0?$storage2@V?$value@V?$shared_ptr@VMysession@@@boost@@@_bi@boost@@U?$arg@$00@3@@_bi@boost@@QAE@V?$value@V?$shared_ptr@VMysession@@@boost@@@12@U?$arg@$00@2@@Z 0043f120 f i server.obj
 0001:0003e250       ??0?$storage3@V?$value@PAVMyserver@@@_bi@boost@@V?$value@V?$shared_ptr@VMysession@@@boost@@@23@U?$arg@$00@3@@_bi@boost@@QAE@V?$value@PAVMyserver@@@12@V?$value@V?$shared_ptr@VMysession@@@boost@@@12@U?$arg@$00@2@@Z 0043f250 f i server.obj
 0001:0003e330       ??0?$win_iocp_socket_accept_op@V?$basic_socket@Vtcp@ip@asio@boost@@V?$stream_socket_service@Vtcp@ip@asio@boost@@@34@@asio@boost@@Vtcp@ip@23@V?$bind_t@XV?$mf2@XVMyserver@@AAV?$shared_ptr@VMysession@@@boost@@ABVerror_code@system@3@@_mfi@boost@@V?$list3@V?$value@PAVMyserver@@@_bi@boost@@V?$value@V?$shared_ptr@VMysession@@@boost@@@23@U?$arg@$00@3@@_bi@3@@_bi@3@@detail@asio@boost@@QAE@AAVwin_iocp_socket_service_base@123@IAAV?$basic_socket@Vtcp@ip@asio@boost@@V?$stream_socket_service@Vtcp@ip@asio@boost@@@34@@23@ABVtcp@ip@23@PAV?$basic_endpoint@Vtcp@ip@asio@boost@@@723@_NAAV?$bind_t@XV?$mf2@XVMyserver@@AAV?$shared_ptr@VMysession@@@boost@@ABVerror_code@system@3@@_mfi@boost@@V?$list3@V?$value@PAVMyserver@@@_bi@boost@@V?$value@V?$shared_ptr@VMysession@@@boost@@@23@U?$arg@$00@3@@_bi@3@@_bi@3@@Z 0043f330 f i server.obj
 0001:0003e420       ??0?$win_iocp_socket_send_op@Vmutable_buffers_1@asio@boost@@V?$write_op@V?$basic_stream_socket@Vtcp@ip@asio@boost@@V?$stream_socket_service@Vtcp@ip@asio@boost@@@34@@asio@boost@@Vmutable_buffers_1@23@Vtransfer_all_t@detail@23@V?$wrapped_handler@Vstrand@io_service@asio@boost@@V?$bind_t@XV?$mf1@XVMysession@@ABVerror_code@system@boost@@@_mfi@boost@@V?$list2@V?$value@V?$shared_ptr@VMysession@@@boost@@@_bi@boost@@U?$arg@$00@3@@_bi@3@@_bi@4@Uis_continuation_if_running@detail@34@@623@@detail@23@@detail@asio@boost@@QAE@V?$weak_ptr@X@std@@ABVmutable_buffers_1@23@AAV?$write_op@V?$basic_stream_socket@Vtcp@ip@asio@boost@@V?$stream_socket_service@Vtcp@ip@asio@boost@@@34@@asio@boost@@Vmutable_buffers_1@23@Vtransfer_all_t@detail@23@V?$wrapped_handler@Vstrand@io_service@asio@boost@@V?$bind_t@XV?$mf1@XVMysession@@ABVerror_code@system@boost@@@_mfi@boost@@V?$list2@V?$value@V?$shared_ptr@VMysession@@@boost@@@_bi@boost@@U?$arg@$00@3@@_bi@3@@_bi@4@Uis_continuation_if_running@detail@34@@623@@123@@Z 0043f420 f i server.obj
 0001:0003e5d0       ??0bad_weak_ptr@boost@@QAE@ABV01@@Z 0043f5d0 f i server.obj
 0001:0003e680       ??0endpoint@detail@ip@asio@boost@@QAE@HG@Z 0043f680 f i server.obj
 0001:0003e7b0       ??0io_service@asio@boost@@QAE@XZ 0043f7b0 f i server.obj
 0001:0003eab0       ??0io_service_pool@@QAE@I@Z 0043fab0 f i server.obj
 0001:0003ed10       ??0shared_count@detail@boost@@QAE@ABVweak_count@12@@Z 0043fd10 f i server.obj
 0001:0003edd0       ??0thread_data_base@detail@boost@@QAE@XZ 0043fdd0 f i server.obj
 0001:0003ef00       ??0win_fenced_block@detail@asio@boost@@QAE@W4full_t@0123@@Z 0043ff00 f i server.obj
 0001:0003ef20       ??0win_iocp_io_service@detail@asio@boost@@QAE@AAVio_service@23@I@Z 0043ff20 f i server.obj
 0001:0003f150       ??1?$QMap@VQString@@V?$shared_ptr@VMysession@@@boost@@@@QAE@XZ 00440150 f i server.obj
 0001:0003f1e0       ??1?$async_result_init@V?$bind_t@XV?$mf2@XVMyserver@@AAV?$shared_ptr@VMysession@@@boost@@ABVerror_code@system@3@@_mfi@boost@@V?$list3@V?$value@PAVMyserver@@@_bi@boost@@V?$value@V?$shared_ptr@VMysession@@@boost@@@23@U?$arg@$00@3@@_bi@3@@_bi@boost@@$$A6AXVerror_code@system@3@@Z@detail@asio@boost@@QAE@XZ 004401e0 f i server.obj
 0001:0003f270       ??1?$async_result_init@V?$binder2@V?$bind_t@XV?$mf1@XVMysession@@ABVerror_code@system@boost@@@_mfi@boost@@V?$list2@V?$value@V?$shared_ptr@VMysession@@@boost@@@_bi@boost@@U?$arg@$00@3@@_bi@3@@_bi@boost@@Verror_code@system@3@I@detail@asio@boost@@$$A6AXXZ@detail@asio@boost@@QAE@XZ 00440270 f i server.obj
 0001:0003f300       ??1?$async_result_init@V?$rewrapped_handler@V?$binder2@V?$write_op@V?$basic_stream_socket@Vtcp@ip@asio@boost@@V?$stream_socket_service@Vtcp@ip@asio@boost@@@34@@asio@boost@@Vmutable_buffers_1@23@Vtransfer_all_t@detail@23@V?$wrapped_handler@Vstrand@io_service@asio@boost@@V?$bind_t@XV?$mf1@XVMysession@@ABVerror_code@system@boost@@@_mfi@boost@@V?$list2@V?$value@V?$shared_ptr@VMysession@@@boost@@@_bi@boost@@U?$arg@$00@3@@_bi@3@@_bi@4@Uis_continuation_if_running@detail@34@@623@@detail@asio@boost@@Verror_code@system@4@I@detail@asio@boost@@V?$bind_t@XV?$mf1@XVMysession@@ABVerror_code@system@boost@@@_mfi@boost@@V?$list2@V?$value@V?$shared_ptr@VMysession@@@boost@@@_bi@boost@@U?$arg@$00@3@@_bi@3@@_bi@4@@detail@asio@boost@@$$A6AXXZ@detail@asio@boost@@QAE@XZ 00440300 f i server.obj
 0001:0003f310       ??1?$async_result_init@V?$wrapped_handler@Vstrand@io_service@asio@boost@@V?$bind_t@XV?$mf1@XVMysession@@ABVerror_code@system@boost@@@_mfi@boost@@V?$list2@V?$value@V?$shared_ptr@VMysession@@@boost@@@_bi@boost@@U?$arg@$00@3@@_bi@3@@_bi@4@Uis_continuation_if_running@detail@34@@detail@asio@boost@@$$A6AXVerror_code@system@4@I@Z@detail@asio@boost@@QAE@XZ 00440310 f i server.obj
 0001:0003f3a0       ??1?$async_result_init@V?$write_op@V?$basic_stream_socket@Vtcp@ip@asio@boost@@V?$stream_socket_service@Vtcp@ip@asio@boost@@@34@@asio@boost@@Vmutable_buffers_1@23@Vtransfer_all_t@detail@23@V?$wrapped_handler@Vstrand@io_service@asio@boost@@V?$bind_t@XV?$mf1@XVMysession@@ABVerror_code@system@boost@@@_mfi@boost@@V?$list2@V?$value@V?$shared_ptr@VMysession@@@boost@@@_bi@boost@@U?$arg@$00@3@@_bi@3@@_bi@4@Uis_continuation_if_running@detail@34@@623@@detail@asio@boost@@$$A6AXVerror_code@system@4@I@Z@detail@asio@boost@@QAE@XZ 004403a0 f i server.obj
 0001:0003f430       ??1?$basic_io_object@V?$socket_acceptor_service@Vtcp@ip@asio@boost@@@asio@boost@@$00@asio@boost@@IAE@XZ 00440430 f i server.obj
 0001:0003f510       ??1?$basic_socket_acceptor@Vtcp@ip@asio@boost@@V?$socket_acceptor_service@Vtcp@ip@asio@boost@@@34@@asio@boost@@QAE@XZ 00440510 f i server.obj
 0001:0003f520       ??1?$bind_t@IV?$mf0@IVio_service@asio@boost@@@_mfi@boost@@V?$list1@V?$value@V?$shared_ptr@Vio_service@asio@boost@@@boost@@@_bi@boost@@@_bi@3@@_bi@boost@@QAE@XZ 00440520 f i server.obj
 0001:0003f5b0       ??1?$bind_t@XV?$mf1@XVMysession@@ABVerror_code@system@boost@@@_mfi@boost@@V?$list2@V?$value@V?$shared_ptr@VMysession@@@boost@@@_bi@boost@@U?$arg@$00@3@@_bi@3@@_bi@boost@@QAE@XZ 004405b0 f i server.obj
 0001:0003f640       ??1?$bind_t@XV?$mf2@XVMyserver@@AAV?$shared_ptr@VMysession@@@boost@@ABVerror_code@system@3@@_mfi@boost@@V?$list3@V?$value@PAVMyserver@@@_bi@boost@@V?$value@V?$shared_ptr@VMysession@@@boost@@@23@U?$arg@$00@3@@_bi@3@@_bi@boost@@QAE@XZ 00440640 f i server.obj
 0001:0003f6d0       ??1?$binder1@V?$bind_t@XV?$mf2@XVMyserver@@AAV?$shared_ptr@VMysession@@@boost@@ABVerror_code@system@3@@_mfi@boost@@V?$list3@V?$value@PAVMyserver@@@_bi@boost@@V?$value@V?$shared_ptr@VMysession@@@boost@@@23@U?$arg@$00@3@@_bi@3@@_bi@boost@@Verror_code@system@3@@detail@asio@boost@@QAE@XZ 004406d0 f i server.obj
 0001:0003f760       ??1?$binder2@V?$bind_t@XV?$mf1@XVMysession@@ABVerror_code@system@boost@@@_mfi@boost@@V?$list2@V?$value@V?$shared_ptr@VMysession@@@boost@@@_bi@boost@@U?$arg@$00@3@@_bi@3@@_bi@boost@@Verror_code@system@3@I@detail@asio@boost@@QAE@XZ 00440760 f i server.obj
 0001:0003f7f0       ??1?$binder2@V?$write_op@V?$basic_stream_socket@Vtcp@ip@asio@boost@@V?$stream_socket_service@Vtcp@ip@asio@boost@@@34@@asio@boost@@Vmutable_buffers_1@23@Vtransfer_all_t@detail@23@V?$wrapped_handler@Vstrand@io_service@asio@boost@@V?$bind_t@XV?$mf1@XVMysession@@ABVerror_code@system@boost@@@_mfi@boost@@V?$list2@V?$value@V?$shared_ptr@VMysession@@@boost@@@_bi@boost@@U?$arg@$00@3@@_bi@3@@_bi@4@Uis_continuation_if_running@detail@34@@623@@detail@asio@boost@@Verror_code@system@4@I@detail@asio@boost@@QAE@XZ 004407f0 f i server.obj
 0001:0003f880       ??1?$clone_impl@U?$error_info_injector@Vbad_alloc@std@@@exception_detail@boost@@@exception_detail@boost@@UAE@XZ 00440880 f i server.obj
 0001:0003f950       ??1?$clone_impl@U?$error_info_injector@Vbad_weak_ptr@boost@@@exception_detail@boost@@@exception_detail@boost@@UAE@XZ 00440950 f i server.obj
 0001:0003fa20       ??1?$error_info_injector@Vbad_alloc@std@@@exception_detail@boost@@UAE@XZ 00440a20 f i server.obj
 0001:0003fac0       ??1?$error_info_injector@Vbad_weak_ptr@boost@@@exception_detail@boost@@UAE@XZ 00440ac0 f i server.obj
 0001:0003fb60       ??1?$intrusive_ptr@Uthread_data_base@detail@boost@@@boost@@QAE@XZ 00440b60 f i server.obj
 0001:0003fba0       ??1?$map@PBXUtss_data_node@detail@boost@@U?$less@PBX@std@@V?$allocator@U?$pair@QBXUtss_data_node@detail@boost@@@std@@@5@@std@@QAE@XZ 00440ba0 f i server.obj
 0001:0003fc10       ??1?$op_queue@Vreactor_op@detail@asio@boost@@@detail@asio@boost@@QAE@XZ 00440c10 f i server.obj
 0001:0003fcb0       ??1?$rewrapped_handler@V?$binder2@V?$write_op@V?$basic_stream_socket@Vtcp@ip@asio@boost@@V?$stream_socket_service@Vtcp@ip@asio@boost@@@34@@asio@boost@@Vmutable_buffers_1@23@Vtransfer_all_t@detail@23@V?$wrapped_handler@Vstrand@io_service@asio@boost@@V?$bind_t@XV?$mf1@XVMysession@@ABVerror_code@system@boost@@@_mfi@boost@@V?$list2@V?$value@V?$shared_ptr@VMysession@@@boost@@@_bi@boost@@U?$arg@$00@3@@_bi@3@@_bi@4@Uis_continuation_if_running@detail@34@@623@@detail@asio@boost@@Verror_code@system@4@I@detail@asio@boost@@V?$bind_t@XV?$mf1@XVMysession@@ABVerror_code@system@boost@@@_mfi@boost@@V?$list2@V?$value@V?$shared_ptr@VMysession@@@boost@@@_bi@boost@@U?$arg@$00@3@@_bi@3@@_bi@4@@detail@asio@boost@@QAE@XZ 00440cb0 f i server.obj
 0001:0003fd90       ??1?$scoped_lock@Vwin_mutex@detail@asio@boost@@@detail@asio@boost@@QAE@XZ 00440d90 f i server.obj
 0001:0003fdb0       ??1?$scoped_ptr@Vwin_thread@detail@asio@boost@@@detail@asio@boost@@QAE@XZ 00440db0 f i server.obj
 0001:0003fde0       ??1?$service_base@V?$socket_acceptor_service@Vtcp@ip@asio@boost@@@asio@boost@@@detail@asio@boost@@UAE@XZ 00440de0 f i server.obj
 0001:0003fdf0       ??1?$service_base@Vwin_iocp_io_service@detail@asio@boost@@@detail@asio@boost@@UAE@XZ 00440df0 f i server.obj
 0001:0003fe00       ??1?$shared_ptr@Vio_service@asio@boost@@@boost@@QAE@XZ 00440e00 f i server.obj
 0001:0003fe90       ??1?$shared_ptr@Vthread@boost@@@boost@@QAE@XZ 00440e90 f i server.obj
 0001:0003ff20       ??1?$shared_ptr@Vwork@io_service@asio@boost@@@boost@@QAE@XZ 00440f20 f i server.obj
 0001:0003ffb0       ??1?$value@V?$shared_ptr@VMysession@@@boost@@@_bi@boost@@QAE@XZ 00440fb0 f i server.obj
 0001:00040040       ??1?$vector@U?$pair@PAVcondition_variable@boost@@PAVmutex@2@@std@@V?$allocator@U?$pair@PAVcondition_variable@boost@@PAVmutex@2@@std@@@2@@std@@QAE@XZ 00441040 f i server.obj
 0001:00040080       ??1?$vector@V?$shared_ptr@Ushared_state_base@detail@boost@@@boost@@V?$allocator@V?$shared_ptr@Ushared_state_base@detail@boost@@@boost@@@std@@@std@@QAE@XZ 00441080 f i server.obj
 0001:00040110       ??1?$vector@V?$shared_ptr@Vio_service@asio@boost@@@boost@@V?$allocator@V?$shared_ptr@Vio_service@asio@boost@@@boost@@@std@@@std@@QAE@XZ 00441110 f i server.obj
 0001:000401a0       ??1?$vector@V?$shared_ptr@Vthread@boost@@@boost@@V?$allocator@V?$shared_ptr@Vthread@boost@@@boost@@@std@@@std@@QAE@XZ 004411a0 f i server.obj
 0001:00040230       ??1?$vector@V?$shared_ptr@Vwork@io_service@asio@boost@@@boost@@V?$allocator@V?$shared_ptr@Vwork@io_service@asio@boost@@@boost@@@std@@@std@@QAE@XZ 00441230 f i server.obj
 0001:000402c0       ??1?$win_iocp_socket_accept_op@V?$basic_socket@Vtcp@ip@asio@boost@@V?$stream_socket_service@Vtcp@ip@asio@boost@@@34@@asio@boost@@Vtcp@ip@23@V?$bind_t@XV?$mf2@XVMyserver@@AAV?$shared_ptr@VMysession@@@boost@@ABVerror_code@system@3@@_mfi@boost@@V?$list3@V?$value@PAVMyserver@@@_bi@boost@@V?$value@V?$shared_ptr@VMysession@@@boost@@@23@U?$arg@$00@3@@_bi@3@@_bi@3@@detail@asio@boost@@QAE@XZ 004412c0 f i server.obj
 0001:00040390       ??1?$winsock_init@$01$0A@@detail@asio@boost@@QAE@XZ 00441390 f i server.obj
 0001:000403b0       ??1?$wrapped_handler@Vstrand@io_service@asio@boost@@V?$bind_t@XV?$mf1@XVMysession@@ABVerror_code@system@boost@@@_mfi@boost@@V?$list2@V?$value@V?$shared_ptr@VMysession@@@boost@@@_bi@boost@@U?$arg@$00@3@@_bi@3@@_bi@4@Uis_continuation_if_running@detail@34@@detail@asio@boost@@QAE@XZ 004413b0 f i server.obj
 0001:00040440       ??1?$write_op@V?$basic_stream_socket@Vtcp@ip@asio@boost@@V?$stream_socket_service@Vtcp@ip@asio@boost@@@34@@asio@boost@@Vmutable_buffers_1@23@Vtransfer_all_t@detail@23@V?$wrapped_handler@Vstrand@io_service@asio@boost@@V?$bind_t@XV?$mf1@XVMysession@@ABVerror_code@system@boost@@@_mfi@boost@@V?$list2@V?$value@V?$shared_ptr@VMysession@@@boost@@@_bi@boost@@U?$arg@$00@3@@_bi@3@@_bi@4@Uis_continuation_if_running@detail@34@@623@@detail@asio@boost@@QAE@XZ 00441440 f i server.obj
 0001:000404d0       ??1Connections@@QAE@XZ     004414d0 f i server.obj
 0001:00040630       ??1_Ref_count_base@std@@UAE@XZ 00441630 f i server.obj
 0001:00040650       ??1auto_handle@win_iocp_io_service@detail@asio@boost@@QAE@XZ 00441650 f i server.obj
 0001:00040670       ??1bad_alloc@std@@UAE@XZ   00441670 f i server.obj
 0001:00040690       ??1bad_weak_ptr@boost@@UAE@XZ 00441690 f i server.obj
 0001:000406b0       ??1context@?$call_stack@Vstrand_impl@strand_service@detail@asio@boost@@E@detail@asio@boost@@QAE@XZ 004416b0 f i server.obj
 0001:000406d0       ??1context@?$call_stack@Vwin_iocp_io_service@detail@asio@boost@@Uwin_iocp_thread_info@234@@detail@asio@boost@@QAE@XZ 004416d0 f i server.obj
 0001:00040710       ??1implementation_type@?$win_iocp_socket_service@Vtcp@ip@asio@boost@@@detail@asio@boost@@QAE@XZ 00441710 f i server.obj
 0001:00040960       ??1ptr@?$completion_handler@V?$binder2@V?$bind_t@XV?$mf1@XVMysession@@ABVerror_code@system@boost@@@_mfi@boost@@V?$list2@V?$value@V?$shared_ptr@VMysession@@@boost@@@_bi@boost@@U?$arg@$00@3@@_bi@3@@_bi@boost@@Verror_code@system@3@I@detail@asio@boost@@@detail@asio@boost@@QAE@XZ 00441960 f i server.obj
 0001:000409b0       ??1ptr@?$completion_handler@V?$rewrapped_handler@V?$binder2@V?$write_op@V?$basic_stream_socket@Vtcp@ip@asio@boost@@V?$stream_socket_service@Vtcp@ip@asio@boost@@@34@@asio@boost@@Vmutable_buffers_1@23@Vtransfer_all_t@detail@23@V?$wrapped_handler@Vstrand@io_service@asio@boost@@V?$bind_t@XV?$mf1@XVMysession@@ABVerror_code@system@boost@@@_mfi@boost@@V?$list2@V?$value@V?$shared_ptr@VMysession@@@boost@@@_bi@boost@@U?$arg@$00@3@@_bi@3@@_bi@4@Uis_continuation_if_running@detail@34@@623@@detail@asio@boost@@Verror_code@system@4@I@detail@asio@boost@@V?$bind_t@XV?$mf1@XVMysession@@ABVerror_code@system@boost@@@_mfi@boost@@V?$list2@V?$value@V?$shared_ptr@VMysession@@@boost@@@_bi@boost@@U?$arg@$00@3@@_bi@3@@_bi@4@@detail@asio@boost@@@detail@asio@boost@@QAE@XZ 004419b0 f i server.obj
 0001:00040a00       ??1ptr@?$win_iocp_socket_accept_op@V?$basic_socket@Vtcp@ip@asio@boost@@V?$stream_socket_service@Vtcp@ip@asio@boost@@@34@@asio@boost@@Vtcp@ip@23@V?$bind_t@XV?$mf2@XVMyserver@@AAV?$shared_ptr@VMysession@@@boost@@ABVerror_code@system@3@@_mfi@boost@@V?$list3@V?$value@PAVMyserver@@@_bi@boost@@V?$value@V?$shared_ptr@VMysession@@@boost@@@23@U?$arg@$00@3@@_bi@3@@_bi@3@@detail@asio@boost@@QAE@XZ 00441a00 f i server.obj
 0001:00040a50       ??1ptr@?$win_iocp_socket_send_op@Vmutable_buffers_1@asio@boost@@V?$write_op@V?$basic_stream_socket@Vtcp@ip@asio@boost@@V?$stream_socket_service@Vtcp@ip@asio@boost@@@34@@asio@boost@@Vmutable_buffers_1@23@Vtransfer_all_t@detail@23@V?$wrapped_handler@Vstrand@io_service@asio@boost@@V?$bind_t@XV?$mf1@XVMysession@@ABVerror_code@system@boost@@@_mfi@boost@@V?$list2@V?$value@V?$shared_ptr@VMysession@@@boost@@@_bi@boost@@U?$arg@$00@3@@_bi@3@@_bi@4@Uis_continuation_if_running@detail@34@@623@@detail@23@@detail@asio@boost@@QAE@XZ 00441a50 f i server.obj
 0001:00040aa0       ??1service@io_service@asio@boost@@MAE@XZ 00441aa0 f i server.obj
 0001:00040ab0       ??1service_registry@detail@asio@boost@@QAE@XZ 00441ab0 f i server.obj
 0001:00040b50       ??1socket_holder@detail@asio@boost@@QAE@XZ 00441b50 f i server.obj
 0001:00040ba0       ??1win_iocp_thread_info@detail@asio@boost@@QAE@XZ 00441ba0 f i server.obj
 0001:00040bc0       ??1win_mutex@detail@asio@boost@@QAE@XZ 00441bc0 f i server.obj
 0001:00040bd0       ??1work_finished_on_block_exit@win_iocp_io_service@detail@asio@boost@@QAE@XZ 00441bd0 f i server.obj
 0001:00040c30       ??E?$_Tree_unchecked_const_iterator@V?$_Tree_val@U?$_Tree_simple_types@U?$pair@QBXUtss_data_node@detail@boost@@@std@@@std@@@std@@U_Iterator_base0@2@@std@@QAEAAV01@XZ 00441c30 f i server.obj
 0001:00040ca0       ??E?$_Tree_unchecked_const_iterator@V?$_Tree_val@U?$_Tree_simple_types@V?$shared_ptr@VMysession@@@boost@@@std@@@std@@U_Iterator_base0@2@@std@@QAEAAV01@XZ 00441ca0 f i server.obj
 0001:00040d10       ??R?$write_op@V?$basic_stream_socket@Vtcp@ip@asio@boost@@V?$stream_socket_service@Vtcp@ip@asio@boost@@@34@@asio@boost@@Vmutable_buffers_1@23@Vtransfer_all_t@detail@23@V?$wrapped_handler@Vstrand@io_service@asio@boost@@V?$bind_t@XV?$mf1@XVMysession@@ABVerror_code@system@boost@@@_mfi@boost@@V?$list2@V?$value@V?$shared_ptr@VMysession@@@boost@@@_bi@boost@@U?$arg@$00@3@@_bi@3@@_bi@4@Uis_continuation_if_running@detail@34@@623@@detail@asio@boost@@QAEXABVerror_code@system@3@IH@Z 00441d10 f i server.obj
 0001:00040de0       ??_D?$clone_impl@U?$error_info_injector@Vbad_alloc@std@@@exception_detail@boost@@@exception_detail@boost@@QAEXXZ 00441de0 f i server.obj
 0001:00040e00       ??_D?$clone_impl@U?$error_info_injector@Vbad_weak_ptr@boost@@@exception_detail@boost@@@exception_detail@boost@@QAEXXZ 00441e00 f i server.obj
 0001:00040e15       ??_E?$clone_impl@U?$error_info_injector@Vbad_alloc@std@@@exception_detail@boost@@@exception_detail@boost@@$4PPPPPPPM@CI@AEPAXI@Z 00441e15 f i server.obj
 0001:00040e22       ??_E?$clone_impl@U?$error_info_injector@Vbad_alloc@std@@@exception_detail@boost@@@exception_detail@boost@@WM@AEPAXI@Z 00441e22 f i server.obj
 0001:00040e2c       ??_E?$clone_impl@U?$error_info_injector@Vbad_weak_ptr@boost@@@exception_detail@boost@@@exception_detail@boost@@$4PPPPPPPM@CI@AEPAXI@Z 00441e2c f i server.obj
 0001:00040e39       ??_E?$clone_impl@U?$error_info_injector@Vbad_weak_ptr@boost@@@exception_detail@boost@@@exception_detail@boost@@WM@AEPAXI@Z 00441e39 f i server.obj
 0001:00040e43       ??_E?$error_info_injector@Vbad_alloc@std@@@exception_detail@boost@@WM@AEPAXI@Z 00441e43 f i server.obj
 0001:00040e4d       ??_E?$error_info_injector@Vbad_weak_ptr@boost@@@exception_detail@boost@@WM@AEPAXI@Z 00441e4d f i server.obj
 0001:00040e60       ??_G?$_Ref_count_del@XUnoop_deleter@socket_ops@detail@asio@boost@@@std@@UAEPAXI@Z 00441e60 f i server.obj
 0001:00040e60       ??_E?$_Ref_count_del@XUnoop_deleter@socket_ops@detail@asio@boost@@@std@@UAEPAXI@Z 00441e60 f i server.obj
 0001:00040e90       ??_E?$clone_impl@U?$error_info_injector@Vbad_alloc@std@@@exception_detail@boost@@@exception_detail@boost@@UAEPAXI@Z 00441e90 f i server.obj
 0001:00040e90       ??_G?$clone_impl@U?$error_info_injector@Vbad_alloc@std@@@exception_detail@boost@@@exception_detail@boost@@UAEPAXI@Z 00441e90 f i server.obj
 0001:00040ed0       ??_E?$clone_impl@U?$error_info_injector@Vbad_weak_ptr@boost@@@exception_detail@boost@@@exception_detail@boost@@UAEPAXI@Z 00441ed0 f i server.obj
 0001:00040ed0       ??_G?$clone_impl@U?$error_info_injector@Vbad_weak_ptr@boost@@@exception_detail@boost@@@exception_detail@boost@@UAEPAXI@Z 00441ed0 f i server.obj
 0001:00040f10       ??_G?$error_info_injector@Vbad_alloc@std@@@exception_detail@boost@@UAEPAXI@Z 00441f10 f i server.obj
 0001:00040f10       ??_E?$error_info_injector@Vbad_alloc@std@@@exception_detail@boost@@UAEPAXI@Z 00441f10 f i server.obj
 0001:00040fd0       ??_G?$error_info_injector@Vbad_weak_ptr@boost@@@exception_detail@boost@@UAEPAXI@Z 00441fd0 f i server.obj
 0001:00040fd0       ??_E?$error_info_injector@Vbad_weak_ptr@boost@@@exception_detail@boost@@UAEPAXI@Z 00441fd0 f i server.obj
 0001:00041090       ??_G?$service_base@V?$socket_acceptor_service@Vtcp@ip@asio@boost@@@asio@boost@@@detail@asio@boost@@UAEPAXI@Z 00442090 f i server.obj
 0001:00041090       ??_E?$service_base@V?$socket_acceptor_service@Vtcp@ip@asio@boost@@@asio@boost@@@detail@asio@boost@@UAEPAXI@Z 00442090 f i server.obj
 0001:000410c0       ??_E?$service_base@Vwin_iocp_io_service@detail@asio@boost@@@detail@asio@boost@@UAEPAXI@Z 004420c0 f i server.obj
 0001:000410c0       ??_G?$service_base@Vwin_iocp_io_service@detail@asio@boost@@@detail@asio@boost@@UAEPAXI@Z 004420c0 f i server.obj
 0001:000410f0       ??_E?$socket_acceptor_service@Vtcp@ip@asio@boost@@@asio@boost@@UAEPAXI@Z 004420f0 f i server.obj
 0001:000410f0       ??_G?$socket_acceptor_service@Vtcp@ip@asio@boost@@@asio@boost@@UAEPAXI@Z 004420f0 f i server.obj
 0001:00041130       ??_E?$sp_counted_impl_p@VMysession@@@detail@boost@@UAEPAXI@Z 00442130 f i server.obj
 0001:00041130       ??_G?$sp_counted_impl_p@VMysession@@@detail@boost@@UAEPAXI@Z 00442130 f i server.obj
 0001:00041160       ??_G?$sp_counted_impl_p@Vio_service@asio@boost@@@detail@boost@@UAEPAXI@Z 00442160 f i server.obj
 0001:00041160       ??_E?$sp_counted_impl_p@Vio_service@asio@boost@@@detail@boost@@UAEPAXI@Z 00442160 f i server.obj
 0001:00041190       ??_E?$sp_counted_impl_p@Vthread@boost@@@detail@boost@@UAEPAXI@Z 00442190 f i server.obj
 0001:00041190       ??_G?$sp_counted_impl_p@Vthread@boost@@@detail@boost@@UAEPAXI@Z 00442190 f i server.obj
 0001:000411c0       ??_G?$sp_counted_impl_p@Vwork@io_service@asio@boost@@@detail@boost@@UAEPAXI@Z 004421c0 f i server.obj
 0001:000411c0       ??_E?$sp_counted_impl_p@Vwork@io_service@asio@boost@@@detail@boost@@UAEPAXI@Z 004421c0 f i server.obj
 0001:000411f0       ??_G?$thread_data@V?$bind_t@IV?$mf0@IVio_service@asio@boost@@@_mfi@boost@@V?$list1@V?$value@V?$shared_ptr@Vio_service@asio@boost@@@boost@@@_bi@boost@@@_bi@3@@_bi@boost@@@detail@boost@@UAEPAXI@Z 004421f0 f i server.obj
 0001:000411f0       ??_E?$thread_data@V?$bind_t@IV?$mf0@IVio_service@asio@boost@@@_mfi@boost@@V?$list1@V?$value@V?$shared_ptr@Vio_service@asio@boost@@@boost@@@_bi@boost@@@_bi@3@@_bi@boost@@@detail@boost@@UAEPAXI@Z 004421f0 f i server.obj
 0001:000412b0       ??_G_Ref_count_base@std@@UAEPAXI@Z 004422b0 f i server.obj
 0001:000412b0       ??_E_Ref_count_base@std@@UAEPAXI@Z 004422b0 f i server.obj
 0001:000412e0       ??_Gbad_weak_ptr@boost@@UAEPAXI@Z 004422e0 f i server.obj
 0001:000412e0       ??_Ebad_weak_ptr@boost@@UAEPAXI@Z 004422e0 f i server.obj
 0001:00041320       ??_Eservice@io_service@asio@boost@@MAEPAXI@Z 00442320 f i server.obj
 0001:00041320       ??_Gservice@io_service@asio@boost@@MAEPAXI@Z 00442320 f i server.obj
 0001:00041350       ??_Gthread_data_base@detail@boost@@UAEPAXI@Z 00442350 f i server.obj
 0001:00041350       ??_Ethread_data_base@detail@boost@@UAEPAXI@Z 00442350 f i server.obj
 0001:00041380       ??_Gwin_iocp_io_service@detail@asio@boost@@UAEPAXI@Z 00442380 f i server.obj
 0001:00041380       ??_Ewin_iocp_io_service@detail@asio@boost@@UAEPAXI@Z 00442380 f i server.obj
 0001:00041410       ?_Buyheadnode@?$_Tree_comp_alloc@V?$_Tmap_traits@PBXUtss_data_node@detail@boost@@U?$less@PBX@std@@V?$allocator@U?$pair@QBXUtss_data_node@detail@boost@@@std@@@5@$0A@@std@@@std@@QAEPAU?$_Tree_node@U?$pair@QBXUtss_data_node@detail@boost@@@std@@PAX@2@XZ 00442410 f i server.obj
 0001:00041450       ?_Buyheadnode@?$_Tree_comp_alloc@V?$_Tset_traits@V?$shared_ptr@VMysession@@@boost@@U?$less@V?$shared_ptr@VMysession@@@boost@@@std@@V?$allocator@V?$shared_ptr@VMysession@@@boost@@@4@$0A@@std@@@std@@QAEPAU?$_Tree_node@V?$shared_ptr@VMysession@@@boost@@PAX@2@XZ 00442450 f i server.obj
 0001:00041490       ?_Delete_this@?$_Ref_count_del@XUnoop_deleter@socket_ops@detail@asio@boost@@@std@@EAEXXZ 00442490 f i server.obj
 0001:000414a0       ?_Destroy@?$_Ref_count_del@XUnoop_deleter@socket_ops@detail@asio@boost@@@std@@EAEXXZ 004424a0 f i server.obj
 0001:000414b0       ?_Erase@?$_Tree@V?$_Tmap_traits@PBXUtss_data_node@detail@boost@@U?$less@PBX@std@@V?$allocator@U?$pair@QBXUtss_data_node@detail@boost@@@std@@@5@$0A@@std@@@std@@IAEXPAU?$_Tree_node@U?$pair@QBXUtss_data_node@detail@boost@@@std@@PAX@2@@Z 004424b0 f i server.obj
 0001:00041590       ?_Erase@?$_Tree@V?$_Tset_traits@V?$shared_ptr@VMysession@@@boost@@U?$less@V?$shared_ptr@VMysession@@@boost@@@std@@V?$allocator@V?$shared_ptr@VMysession@@@boost@@@4@$0A@@std@@@std@@IAEXPAU?$_Tree_node@V?$shared_ptr@VMysession@@@boost@@PAX@2@@Z 00442590 f i server.obj
 0001:00041670       ?_Get_deleter@?$_Ref_count_del@XUnoop_deleter@socket_ops@detail@asio@boost@@@std@@UBEPAXABVtype_info@@@Z 00442670 f i server.obj
 0001:000416b0       ?_Get_deleter@_Ref_count_base@std@@UBEPAXABVtype_info@@@Z 004426b0 f i server.obj
 0001:000416c0       ?_Lrotate@?$_Tree@V?$_Tmap_traits@PBXUtss_data_node@detail@boost@@U?$less@PBX@std@@V?$allocator@U?$pair@QBXUtss_data_node@detail@boost@@@std@@@5@$0A@@std@@@std@@IAEXPAU?$_Tree_node@U?$pair@QBXUtss_data_node@detail@boost@@@std@@PAX@2@@Z 004426c0 f i server.obj
 0001:00041730       ?_Lrotate@?$_Tree@V?$_Tset_traits@V?$shared_ptr@VMysession@@@boost@@U?$less@V?$shared_ptr@VMysession@@@boost@@@std@@V?$allocator@V?$shared_ptr@VMysession@@@boost@@@4@$0A@@std@@@std@@IAEXPAU?$_Tree_node@V?$shared_ptr@VMysession@@@boost@@PAX@2@@Z 00442730 f i server.obj
 0001:000417a0       ?_Reallocate@?$vector@U?$pair@PAVcondition_variable@boost@@PAVmutex@2@@std@@V?$allocator@U?$pair@PAVcondition_variable@boost@@PAVmutex@2@@std@@@2@@std@@IAEXI@Z 004427a0 f i server.obj
 0001:00041890       ?_Reallocate@?$vector@V?$shared_ptr@Vio_service@asio@boost@@@boost@@V?$allocator@V?$shared_ptr@Vio_service@asio@boost@@@boost@@@std@@@std@@IAEXI@Z 00442890 f i server.obj
 0001:000419a0       ?_Reallocate@?$vector@V?$shared_ptr@Vthread@boost@@@boost@@V?$allocator@V?$shared_ptr@Vthread@boost@@@boost@@@std@@@std@@IAEXI@Z 004429a0 f i server.obj
 0001:00041ab0       ?_Reallocate@?$vector@V?$shared_ptr@Vwork@io_service@asio@boost@@@boost@@V?$allocator@V?$shared_ptr@Vwork@io_service@asio@boost@@@boost@@@std@@@std@@IAEXI@Z 00442ab0 f i server.obj
 0001:00041bc0       ?_Reserve@?$vector@U?$pair@PAVcondition_variable@boost@@PAVmutex@2@@std@@V?$allocator@U?$pair@PAVcondition_variable@boost@@PAVmutex@2@@std@@@2@@std@@IAEXI@Z 00442bc0 f i server.obj
 0001:00041c40       ?_Reserve@?$vector@V?$shared_ptr@Vio_service@asio@boost@@@boost@@V?$allocator@V?$shared_ptr@Vio_service@asio@boost@@@boost@@@std@@@std@@IAEXI@Z 00442c40 f i server.obj
 0001:00041cc0       ?_Reserve@?$vector@V?$shared_ptr@Vthread@boost@@@boost@@V?$allocator@V?$shared_ptr@Vthread@boost@@@boost@@@std@@@std@@IAEXI@Z 00442cc0 f i server.obj
 0001:00041d40       ?_Reserve@?$vector@V?$shared_ptr@Vwork@io_service@asio@boost@@@boost@@V?$allocator@V?$shared_ptr@Vwork@io_service@asio@boost@@@boost@@@std@@@std@@IAEXI@Z 00442d40 f i server.obj
 0001:00041dc0       ?_Rrotate@?$_Tree@V?$_Tmap_traits@PBXUtss_data_node@detail@boost@@U?$less@PBX@std@@V?$allocator@U?$pair@QBXUtss_data_node@detail@boost@@@std@@@5@$0A@@std@@@std@@IAEXPAU?$_Tree_node@U?$pair@QBXUtss_data_node@detail@boost@@@std@@PAX@2@@Z 00442dc0 f i server.obj
 0001:00041e30       ?_Rrotate@?$_Tree@V?$_Tset_traits@V?$shared_ptr@VMysession@@@boost@@U?$less@V?$shared_ptr@VMysession@@@boost@@@std@@V?$allocator@V?$shared_ptr@VMysession@@@boost@@@4@$0A@@std@@@std@@IAEXPAU?$_Tree_node@V?$shared_ptr@VMysession@@@boost@@PAX@2@@Z 00442e30 f i server.obj
 0001:00041ea0       ?_Splice_same@?$list@U?$pair@IUmapped_type@?$reactor_op_queue@I@detail@asio@boost@@@std@@V?$allocator@U?$pair@IUmapped_type@?$reactor_op_queue@I@detail@asio@boost@@@std@@@2@@std@@QAEXV?$_List_const_iterator@V?$_List_val@U?$_List_simple_types@U?$pair@IUmapped_type@?$reactor_op_queue@I@detail@asio@boost@@@std@@@std@@@std@@@2@AAV12@00I@Z 00442ea0 f i server.obj
 0001:00041f40       ?a2_@?$storage2@V?$value@V?$shared_ptr@VMysession@@@boost@@@_bi@boost@@U?$arg@$00@3@@_bi@boost@@SA?AU?$arg@$00@3@XZ 00442f40 f i server.obj
 0001:00041f50       ?a3_@?$storage3@V?$value@PAVMyserver@@@_bi@boost@@V?$value@V?$shared_ptr@VMysession@@@boost@@@23@U?$arg@$00@3@@_bi@boost@@SA?AU?$arg@$00@3@XZ 00442f50 f i server.obj
 0001:00041f60       ?allocate@?$allocator@U?$pair@PAVcondition_variable@boost@@PAVmutex@2@@std@@@std@@QAEPAU?$pair@PAVcondition_variable@boost@@PAVmutex@2@@2@I@Z 00442f60 f i server.obj
 0001:00041ff0       ?allocate@?$allocator@V?$shared_ptr@Vio_service@asio@boost@@@boost@@@std@@QAEPAV?$shared_ptr@Vio_service@asio@boost@@@boost@@I@Z 00442ff0 f i server.obj
 0001:00042080       ?allocate@?$allocator@V?$shared_ptr@Vthread@boost@@@boost@@@std@@QAEPAV?$shared_ptr@Vthread@boost@@@boost@@I@Z 00443080 f i server.obj
 0001:00042110       ?allocate@?$allocator@V?$shared_ptr@Vwork@io_service@asio@boost@@@boost@@@std@@QAEPAV?$shared_ptr@Vwork@io_service@asio@boost@@@boost@@I@Z 00443110 f i server.obj
 0001:000421a0       ?apc_function@detail@asio@boost@@YGXK@Z 004431a0 f i server.obj
 0001:000421b0       ?assign@?$basic_socket@Vtcp@ip@asio@boost@@V?$stream_socket_service@Vtcp@ip@asio@boost@@@34@@asio@boost@@QAE?AVerror_code@system@3@ABVtcp@ip@23@ABVnative_handle_type@?$win_iocp_socket_service@Vtcp@ip@asio@boost@@@detail@23@AAV453@@Z 004431b0 f i server.obj
 0001:00042230       ?bind@socket_ops@detail@asio@boost@@YAHIPBUsockaddr@@IAAVerror_code@system@4@@Z 00443230 f i server.obj
 0001:000422b0       ?cancel_operations@?$reactor_op_queue@I@detail@asio@boost@@QAE_NV?$_List_iterator@V?$_List_val@U?$_List_simple_types@U?$pair@IUmapped_type@?$reactor_op_queue@I@detail@asio@boost@@@std@@@std@@@std@@@std@@AAV?$op_queue@Vwin_iocp_operation@detail@asio@boost@@@234@ABVerror_code@system@4@@Z 004432b0 f i server.obj
 0001:00042360       ?cancel_ops_unlocked@select_reactor@detail@asio@boost@@AAEXIABVerror_code@system@4@@Z 00443360 f i server.obj
 0001:000424b5       ?clone@?$clone_impl@U?$error_info_injector@Vbad_alloc@std@@@exception_detail@boost@@@exception_detail@boost@@$0PPPPPPPM@A@BEPBVclone_base@23@XZ 004434b5 f i server.obj
 0001:000424c0       ?clone@?$clone_impl@U?$error_info_injector@Vbad_alloc@std@@@exception_detail@boost@@@exception_detail@boost@@EBEPBVclone_base@23@XZ 004434c0 f i server.obj
 0001:0004255e       ?clone@?$clone_impl@U?$error_info_injector@Vbad_weak_ptr@boost@@@exception_detail@boost@@@exception_detail@boost@@$0PPPPPPPM@A@BEPBVclone_base@23@XZ 0044355e f i server.obj
 0001:00042570       ?clone@?$clone_impl@U?$error_info_injector@Vbad_weak_ptr@boost@@@exception_detail@boost@@@exception_detail@boost@@EBEPBVclone_base@23@XZ 00443570 f i server.obj
 0001:00042610       ?close@socket_ops@detail@asio@boost@@YAHIAAE_NAAVerror_code@system@4@@Z 00443610 f i server.obj
 0001:00042770       ?close_for_destruction@win_iocp_socket_service_base@detail@asio@boost@@IAEXAAUbase_implementation_type@1234@@Z 00443770 f i server.obj
 0001:000428b0       ?complete_iocp_accept@socket_ops@detail@asio@boost@@YAXIPAXKPAUsockaddr@@PAIIAAVerror_code@system@4@@Z 004438b0 f i server.obj
 0001:00042a00       ?construct@win_iocp_socket_service_base@detail@asio@boost@@QAEXAAUbase_implementation_type@1234@@Z 00443a00 f i server.obj
 0001:00042ab0       ?dispose@?$sp_counted_impl_p@VMysession@@@detail@boost@@UAEXXZ 00443ab0 f i server.obj
 0001:00042ad0       ?dispose@?$sp_counted_impl_p@Vio_service@asio@boost@@@detail@boost@@UAEXXZ 00443ad0 f i server.obj
 0001:00042b30       ?dispose@?$sp_counted_impl_p@Vthread@boost@@@detail@boost@@UAEXXZ 00443b30 f i server.obj
 0001:00042bd0       ?dispose@?$sp_counted_impl_p@Vwork@io_service@asio@boost@@@detail@boost@@UAEXXZ 00443bd0 f i server.obj
 0001:00042c50       ?do_assign@win_iocp_socket_service_base@detail@asio@boost@@IAE?AVerror_code@system@4@AAUbase_implementation_type@1234@HIAAV564@@Z 00443c50 f i server.obj
 0001:00042d30       ?do_complete@?$completion_handler@V?$binder2@V?$bind_t@XV?$mf1@XVMysession@@ABVerror_code@system@boost@@@_mfi@boost@@V?$list2@V?$value@V?$shared_ptr@VMysession@@@boost@@@_bi@boost@@U?$arg@$00@3@@_bi@3@@_bi@boost@@Verror_code@system@3@I@detail@asio@boost@@@detail@asio@boost@@SAXPAVwin_iocp_io_service@234@PAVwin_iocp_operation@234@ABVerror_code@system@4@I@Z 00443d30 f i server.obj
 0001:00042e60       ?do_complete@?$completion_handler@V?$rewrapped_handler@V?$binder2@V?$write_op@V?$basic_stream_socket@Vtcp@ip@asio@boost@@V?$stream_socket_service@Vtcp@ip@asio@boost@@@34@@asio@boost@@Vmutable_buffers_1@23@Vtransfer_all_t@detail@23@V?$wrapped_handler@Vstrand@io_service@asio@boost@@V?$bind_t@XV?$mf1@XVMysession@@ABVerror_code@system@boost@@@_mfi@boost@@V?$list2@V?$value@V?$shared_ptr@VMysession@@@boost@@@_bi@boost@@U?$arg@$00@3@@_bi@3@@_bi@4@Uis_continuation_if_running@detail@34@@623@@detail@asio@boost@@Verror_code@system@4@I@detail@asio@boost@@V?$bind_t@XV?$mf1@XVMysession@@ABVerror_code@system@boost@@@_mfi@boost@@V?$list2@V?$value@V?$shared_ptr@VMysession@@@boost@@@_bi@boost@@U?$arg@$00@3@@_bi@3@@_bi@4@@detail@asio@boost@@@detail@asio@boost@@SAXPAVwin_iocp_io_service@234@PAVwin_iocp_operation@234@ABVerror_code@system@4@I@Z 00443e60 f i server.obj
 0001:00042f90       ?do_complete@?$win_iocp_socket_accept_op@V?$basic_socket@Vtcp@ip@asio@boost@@V?$stream_socket_service@Vtcp@ip@asio@boost@@@34@@asio@boost@@Vtcp@ip@23@V?$bind_t@XV?$mf2@XVMyserver@@AAV?$shared_ptr@VMysession@@@boost@@ABVerror_code@system@3@@_mfi@boost@@V?$list3@V?$value@PAVMyserver@@@_bi@boost@@V?$value@V?$shared_ptr@VMysession@@@boost@@@23@U?$arg@$00@3@@_bi@3@@_bi@3@@detail@asio@boost@@SAXPAVwin_iocp_io_service@234@PAVwin_iocp_operation@234@ABVerror_code@system@4@I@Z 00443f90 f i server.obj
 0001:000432b0       ?do_complete@?$win_iocp_socket_send_op@Vmutable_buffers_1@asio@boost@@V?$write_op@V?$basic_stream_socket@Vtcp@ip@asio@boost@@V?$stream_socket_service@Vtcp@ip@asio@boost@@@34@@asio@boost@@Vmutable_buffers_1@23@Vtransfer_all_t@detail@23@V?$wrapped_handler@Vstrand@io_service@asio@boost@@V?$bind_t@XV?$mf1@XVMysession@@ABVerror_code@system@boost@@@_mfi@boost@@V?$list2@V?$value@V?$shared_ptr@VMysession@@@boost@@@_bi@boost@@U?$arg@$00@3@@_bi@3@@_bi@4@Uis_continuation_if_running@detail@34@@623@@detail@23@@detail@asio@boost@@SAXPAVwin_iocp_io_service@234@PAVwin_iocp_operation@234@ABVerror_code@system@4@I@Z 004442b0 f i server.obj
 0001:00043470       ?do_dispatch@strand_service@detail@asio@boost@@AAE_NAAPAVstrand_impl@1234@PAVwin_iocp_operation@234@@Z 00444470 f i server.obj
 0001:000435b0       ?do_init@win_mutex@detail@asio@boost@@AAEHXZ 004445b0 f i server.obj
 0001:000436a0       ?do_one@win_iocp_io_service@detail@asio@boost@@AAEI_NAAVerror_code@system@4@@Z 004446a0 f i server.obj
 0001:00043a20       ?do_open@win_iocp_socket_service_base@detail@asio@boost@@IAE?AVerror_code@system@4@AAUbase_implementation_type@1234@HHHAAV564@@Z 00444a20 f i server.obj
 0001:00043bd0       ?do_use_service@service_registry@detail@asio@boost@@AAEPAVservice@io_service@34@ABUkey@5634@P6APAV5634@AAV634@@Z@Z 00444bd0 f i server.obj
 0001:00043d60       ?erase@?$_Tree@V?$_Tmap_traits@PBXUtss_data_node@detail@boost@@U?$less@PBX@std@@V?$allocator@U?$pair@QBXUtss_data_node@detail@boost@@@std@@@5@$0A@@std@@@std@@QAE?AV?$_Tree_iterator@V?$_Tree_val@U?$_Tree_simple_types@U?$pair@QBXUtss_data_node@detail@boost@@@std@@@std@@@std@@@2@V?$_Tree_const_iterator@V?$_Tree_val@U?$_Tree_simple_types@U?$pair@QBXUtss_data_node@detail@boost@@@std@@@std@@@std@@@2@0@Z 00444d60 f i server.obj
 0001:00043e90       ?erase@?$_Tree@V?$_Tmap_traits@PBXUtss_data_node@detail@boost@@U?$less@PBX@std@@V?$allocator@U?$pair@QBXUtss_data_node@detail@boost@@@std@@@5@$0A@@std@@@std@@QAE?AV?$_Tree_iterator@V?$_Tree_val@U?$_Tree_simple_types@U?$pair@QBXUtss_data_node@detail@boost@@@std@@@std@@@std@@@2@V?$_Tree_const_iterator@V?$_Tree_val@U?$_Tree_simple_types@U?$pair@QBXUtss_data_node@detail@boost@@@std@@@std@@@std@@@2@@Z 00444e90 f i server.obj
 0001:00044240       ?erase@?$_Tree@V?$_Tset_traits@V?$shared_ptr@VMysession@@@boost@@U?$less@V?$shared_ptr@VMysession@@@boost@@@std@@V?$allocator@V?$shared_ptr@VMysession@@@boost@@@4@$0A@@std@@@std@@QAE?AV?$_Tree_const_iterator@V?$_Tree_val@U?$_Tree_simple_types@V?$shared_ptr@VMysession@@@boost@@@std@@@std@@@2@V32@0@Z 00445240 f i server.obj
 0001:00044370       ?erase@?$_Tree@V?$_Tset_traits@V?$shared_ptr@VMysession@@@boost@@U?$less@V?$shared_ptr@VMysession@@@boost@@@std@@V?$allocator@V?$shared_ptr@VMysession@@@boost@@@4@$0A@@std@@@std@@QAE?AV?$_Tree_const_iterator@V?$_Tree_val@U?$_Tree_simple_types@V?$shared_ptr@VMysession@@@boost@@@std@@@std@@@2@V32@@Z 00445370 f i server.obj
 0001:00044720       ?erase@?$hash_map@IUmapped_type@?$reactor_op_queue@I@detail@asio@boost@@@detail@asio@boost@@QAEXV?$_List_iterator@V?$_List_val@U?$_List_simple_types@U?$pair@IUmapped_type@?$reactor_op_queue@I@detail@asio@boost@@@std@@@std@@@std@@@std@@@Z 00445720 f i server.obj
 0001:000447f0       ?fork_service@service@io_service@asio@boost@@EAEXW4fork_event@234@@Z 004457f0 f i server.obj
 0001:00044800       ?free_raw_heap_memory@detail@boost@@YAXPAX@Z 00445800 f i server.obj
 0001:00044820       ?getInstance@Myserver@@SAPAV1@FH@Z 00445820 f   server.obj
 0001:000448d0       ?get_deleter@?$sp_counted_impl_p@VMysession@@@detail@boost@@UAEPAXABVtype_info@@@Z 004458d0 f i server.obj
 0001:000448e0       ?get_deleter@?$sp_counted_impl_p@Vio_service@asio@boost@@@detail@boost@@UAEPAXABVtype_info@@@Z 004458e0 f i server.obj
 0001:000448f0       ?get_deleter@?$sp_counted_impl_p@Vthread@boost@@@detail@boost@@UAEPAXABVtype_info@@@Z 004458f0 f i server.obj
 0001:00044900       ?get_deleter@?$sp_counted_impl_p@Vwork@io_service@asio@boost@@@detail@boost@@UAEPAXABVtype_info@@@Z 00445900 f i server.obj
 0001:00044910       ?get_io_service@io_service_pool@@QAEAAVio_service@asio@boost@@XZ 00445910 f i server.obj
 0001:000449e0       ?get_untyped_deleter@?$sp_counted_impl_p@VMysession@@@detail@boost@@UAEPAXXZ 004459e0 f i server.obj
 0001:000449f0       ?get_untyped_deleter@?$sp_counted_impl_p@Vio_service@asio@boost@@@detail@boost@@UAEPAXXZ 004459f0 f i server.obj
 0001:00044a00       ?get_untyped_deleter@?$sp_counted_impl_p@Vthread@boost@@@detail@boost@@UAEPAXXZ 00445a00 f i server.obj
 0001:00044a10       ?get_untyped_deleter@?$sp_counted_impl_p@Vwork@io_service@asio@boost@@@detail@boost@@UAEPAXXZ 00445a10 f i server.obj
 0001:00044a20       ?handle_accept@Myserver@@QAEXAAV?$shared_ptr@VMysession@@@boost@@ABVerror_code@system@3@@Z 00445a20 f   server.obj
 0001:00044f40       ?join@win_thread@detail@asio@boost@@QAEXXZ 00445f40 f i server.obj
 0001:00044fd0       ?notify_all_at_thread_exit@thread_data_base@detail@boost@@UAEXPAVcondition_variable@3@PAVmutex@3@@Z 00445fd0 f i server.obj
 0001:00045000       ?on_completion@win_iocp_io_service@detail@asio@boost@@QAEXPAVwin_iocp_operation@234@ABVerror_code@system@4@K@Z 00446000 f i server.obj
 0001:00045090       ?post_immediate_completion@win_iocp_io_service@detail@asio@boost@@QAEXPAVwin_iocp_operation@234@_N@Z 00446090 f i server.obj
 0001:00045110       ?push_back@?$vector@U?$pair@PAVcondition_variable@boost@@PAVmutex@2@@std@@V?$allocator@U?$pair@PAVcondition_variable@boost@@PAVmutex@2@@std@@@2@@std@@QAEX$$QAU?$pair@PAVcondition_variable@boost@@PAVmutex@2@@2@@Z 00446110 f i server.obj
 0001:000451a0       ?push_back@?$vector@V?$shared_ptr@Vio_service@asio@boost@@@boost@@V?$allocator@V?$shared_ptr@Vio_service@asio@boost@@@boost@@@std@@@std@@QAEXABV?$shared_ptr@Vio_service@asio@boost@@@boost@@@Z 004461a0 f i server.obj
 0001:00045250       ?push_back@?$vector@V?$shared_ptr@Vthread@boost@@@boost@@V?$allocator@V?$shared_ptr@Vthread@boost@@@boost@@@std@@@std@@QAEXABV?$shared_ptr@Vthread@boost@@@boost@@@Z 00446250 f i server.obj
 0001:00045300       ?push_back@?$vector@V?$shared_ptr@Vwork@io_service@asio@boost@@@boost@@V?$allocator@V?$shared_ptr@Vwork@io_service@asio@boost@@@boost@@@std@@@std@@QAEXABV?$shared_ptr@Vwork@io_service@asio@boost@@@boost@@@Z 00446300 f i server.obj
 0001:000453b0       ?recordUserDL@Myserver@@QAEXABVQString@@0H@Z 004463b0 f   server.obj
 0001:00045780       ?register_handle@win_iocp_io_service@detail@asio@boost@@QAE?AVerror_code@system@4@PAXAAV564@@Z 00446780 f i server.obj
 0001:00045800       ?reset@ptr@?$completion_handler@V?$binder2@V?$bind_t@XV?$mf1@XVMysession@@ABVerror_code@system@boost@@@_mfi@boost@@V?$list2@V?$value@V?$shared_ptr@VMysession@@@boost@@@_bi@boost@@U?$arg@$00@3@@_bi@3@@_bi@boost@@Verror_code@system@3@I@detail@asio@boost@@@detail@asio@boost@@QAEXXZ 00446800 f i server.obj
 0001:000458d0       ?reset@ptr@?$win_iocp_socket_send_op@Vmutable_buffers_1@asio@boost@@V?$write_op@V?$basic_stream_socket@Vtcp@ip@asio@boost@@V?$stream_socket_service@Vtcp@ip@asio@boost@@@34@@asio@boost@@Vmutable_buffers_1@23@Vtransfer_all_t@detail@23@V?$wrapped_handler@Vstrand@io_service@asio@boost@@V?$bind_t@XV?$mf1@XVMysession@@ABVerror_code@system@boost@@@_mfi@boost@@V?$list2@V?$value@V?$shared_ptr@VMysession@@@boost@@@_bi@boost@@U?$arg@$00@3@@_bi@3@@_bi@4@Uis_continuation_if_running@detail@34@@623@@detail@23@@detail@asio@boost@@QAEXXZ 004468d0 f i server.obj
 0001:000459c0       ?restart_accept_op@win_iocp_socket_service_base@detail@asio@boost@@QAEXIAAVsocket_holder@234@HHHPAXKPAVwin_iocp_operation@234@@Z 004469c0 f i server.obj
 0001:00045b2a       ?rethrow@?$clone_impl@U?$error_info_injector@Vbad_alloc@std@@@exception_detail@boost@@@exception_detail@boost@@$0PPPPPPPM@A@BEXXZ 00446b2a f i server.obj
 0001:00045b40       ?rethrow@?$clone_impl@U?$error_info_injector@Vbad_alloc@std@@@exception_detail@boost@@@exception_detail@boost@@EBEXXZ 00446b40 f i server.obj
 0001:00045bf9       ?rethrow@?$clone_impl@U?$error_info_injector@Vbad_weak_ptr@boost@@@exception_detail@boost@@@exception_detail@boost@@$0PPPPPPPM@A@BEXXZ 00446bf9 f i server.obj
 0001:00045c10       ?rethrow@?$clone_impl@U?$error_info_injector@Vbad_weak_ptr@boost@@@exception_detail@boost@@@exception_detail@boost@@EBEXXZ 00446c10 f i server.obj
 0001:00045cd0       ?run@?$thread_data@V?$bind_t@IV?$mf0@IVio_service@asio@boost@@@_mfi@boost@@V?$list1@V?$value@V?$shared_ptr@Vio_service@asio@boost@@@boost@@@_bi@boost@@@_bi@3@@_bi@boost@@@detail@boost@@UAEXXZ 00446cd0 f i server.obj
 0001:00045ce0       ?run@io_service@asio@boost@@QAEIXZ 00446ce0 f i server.obj
 0001:00045d30       ?run@win_iocp_io_service@detail@asio@boost@@QAEIAAVerror_code@system@4@@Z 00446d30 f i server.obj
 0001:00045e70       ?run_server@Myserver@@QAEXXZ 00446e70 f   server.obj
 0001:00045ed0       ?send@socket_ops@detail@asio@boost@@YAHIPBU_WSABUF@@IHAAVerror_code@system@4@@Z 00446ed0 f i server.obj
 0001:00045f90       ?sendData@Mysession@@QAE_NPADH@Z 00446f90 f i server.obj
 0001:000460a0       ?shared_from_this@?$enable_shared_from_this@VMysession@@@boost@@QAE?AV?$shared_ptr@VMysession@@@2@XZ 004470a0 f i server.obj
 0001:000460e0       ?shutdown_service@?$socket_acceptor_service@Vtcp@ip@asio@boost@@@asio@boost@@EAEXXZ 004470e0 f i server.obj
 0001:000460f0       ?shutdown_service@win_iocp_io_service@detail@asio@boost@@UAEXXZ 004470f0 f i server.obj
 0001:00046320       ?shutdown_service@win_iocp_socket_service_base@detail@asio@boost@@QAEXXZ 00447320 f i server.obj
 0001:000464b0       ?socket@socket_ops@detail@asio@boost@@YAIHHHAAVerror_code@system@4@@Z 004474b0 f i server.obj
 0001:00046550       ?start@io_service_pool@@QAEXXZ 00447550 f i server.obj
 0001:000467c0       ?start_accept_op@win_iocp_socket_service_base@detail@asio@boost@@IAEXAAUbase_implementation_type@1234@_NAAVsocket_holder@234@HHHPAXKPAVwin_iocp_operation@234@@Z 004477c0 f i server.obj
 0001:00046940       ?start_send_op@win_iocp_socket_service_base@detail@asio@boost@@IAEXAAUbase_implementation_type@1234@PAU_WSABUF@@IH_NPAVwin_iocp_operation@234@@Z 00447940 f i server.obj
 0001:00046a20       ?stop@io_service_pool@@QAEXXZ 00447a20 f i server.obj
 0001:00046ae0       ?stop@win_iocp_io_service@detail@asio@boost@@QAEXXZ 00447ae0 f i server.obj
 0001:00046b60       ?stop_server@Myserver@@QAEXXZ 00447b60 f   server.obj
 0001:00046b90       ?update_timeout@win_iocp_io_service@detail@asio@boost@@AAEXXZ 00447b90 f i server.obj
 0001:00046c10       ?what@bad_weak_ptr@boost@@UBEPBDXZ 00447c10 f i server.obj
 0001:00046c20       ?writeToDevice@Myserver@@QAE_NVQString@@PADH@Z 00447c20 f   server.obj
 0001:00046ce0       ??$?0Utimer_thread_function@win_iocp_io_service@detail@asio@boost@@@win_thread@detail@asio@boost@@QAE@Utimer_thread_function@win_iocp_io_service@123@I@Z 00447ce0 f i session.obj
 0001:00046d60       ??$?G_J@?$int_adapter@_J@date_time@boost@@QBE?AV012@ABV012@@Z 00447d60 f i session.obj
 0001:00046f10       ??$?RVerror_code@system@boost@@I@?$wrapped_handler@Vstrand@io_service@asio@boost@@V?$bind_t@XV?$mf2@XVMysession@@ABVerror_code@system@boost@@I@_mfi@boost@@V?$list3@V?$value@V?$shared_ptr@VMysession@@@boost@@@_bi@boost@@U?$arg@$00@3@U?$arg@$01@3@@_bi@3@@_bi@4@Uis_continuation_if_running@detail@34@@detail@asio@boost@@QAEXABVerror_code@system@3@ABI@Z 00447f10 f i session.obj
 0001:00047010       ??$add_timer_queue@U?$time_traits@Vptime@posix_time@boost@@@asio@boost@@@win_iocp_io_service@detail@asio@boost@@QAEXAAV?$timer_queue@U?$time_traits@Vptime@posix_time@boost@@@asio@boost@@@123@@Z 00448010 f i session.obj
 0001:00047020       ??$asio_handler_invoke@V?$bind_t@XV?$mf0@XVMysession@@@_mfi@boost@@V?$list1@V?$value@V?$shared_ptr@VMysession@@@boost@@@_bi@boost@@@_bi@3@@_bi@boost@@@asio@boost@@YAXAAV?$bind_t@XV?$mf0@XVMysession@@@_mfi@boost@@V?$list1@V?$value@V?$shared_ptr@VMysession@@@boost@@@_bi@boost@@@_bi@3@@_bi@1@ZZ 00448020 f i session.obj
 0001:00047040       ??$asio_handler_invoke@V?$binder2@V?$bind_t@XV?$mf2@XVMysession@@ABVerror_code@system@boost@@I@_mfi@boost@@V?$list3@V?$value@V?$shared_ptr@VMysession@@@boost@@@_bi@boost@@U?$arg@$00@3@U?$arg@$01@3@@_bi@3@@_bi@boost@@Verror_code@system@3@I@detail@asio@boost@@@asio@boost@@YAXAAV?$binder2@V?$bind_t@XV?$mf2@XVMysession@@ABVerror_code@system@boost@@I@_mfi@boost@@V?$list3@V?$value@V?$shared_ptr@VMysession@@@boost@@@_bi@boost@@U?$arg@$00@3@U?$arg@$01@3@@_bi@3@@_bi@boost@@Verror_code@system@3@I@detail@01@ZZ 00448040 f i session.obj
 0001:00047060       ??$asio_handler_invoke@V?$rewrapped_handler@V?$binder2@V?$wrapped_handler@Vstrand@io_service@asio@boost@@V?$bind_t@XV?$mf2@XVMysession@@ABVerror_code@system@boost@@I@_mfi@boost@@V?$list3@V?$value@V?$shared_ptr@VMysession@@@boost@@@_bi@boost@@U?$arg@$00@3@U?$arg@$01@3@@_bi@3@@_bi@4@Uis_continuation_if_running@detail@34@@detail@asio@boost@@Verror_code@system@4@I@detail@asio@boost@@V?$bind_t@XV?$mf2@XVMysession@@ABVerror_code@system@boost@@I@_mfi@boost@@V?$list3@V?$value@V?$shared_ptr@VMysession@@@boost@@@_bi@boost@@U?$arg@$00@3@U?$arg@$01@3@@_bi@3@@_bi@4@@detail@asio@boost@@@asio@boost@@YAXAAV?$rewrapped_handler@V?$binder2@V?$wrapped_handler@Vstrand@io_service@asio@boost@@V?$bind_t@XV?$mf2@XVMysession@@ABVerror_code@system@boost@@I@_mfi@boost@@V?$list3@V?$value@V?$shared_ptr@VMysession@@@boost@@@_bi@boost@@U?$arg@$00@3@U?$arg@$01@3@@_bi@3@@_bi@4@Uis_continuation_if_running@detail@34@@detail@asio@boost@@Verror_code@system@4@I@detail@asio@boost@@V?$bind_t@XV?$mf2@XVMysession@@ABVerror_code@system@boost@@I@_mfi@boost@@V?$list3@V?$value@V?$shared_ptr@VMysession@@@boost@@@_bi@boost@@U?$arg@$00@3@U?$arg@$01@3@@_bi@3@@_bi@4@@detail@01@ZZ 00448060 f i session.obj
 0001:00047080       ??$async_receive@Vmutable_buffers_1@asio@boost@@V?$wrapped_handler@Vstrand@io_service@asio@boost@@V?$bind_t@XV?$mf2@XVMysession@@ABVerror_code@system@boost@@I@_mfi@boost@@V?$list3@V?$value@V?$shared_ptr@VMysession@@@boost@@@_bi@boost@@U?$arg@$00@3@U?$arg@$01@3@@_bi@3@@_bi@4@Uis_continuation_if_running@detail@34@@detail@23@@?$stream_socket_service@Vtcp@ip@asio@boost@@@asio@boost@@QAEXAAUimplementation_type@?$win_iocp_socket_service@Vtcp@ip@asio@boost@@@detail@12@ABVmutable_buffers_1@12@H$$QAV?$wrapped_handler@Vstrand@io_service@asio@boost@@V?$bind_t@XV?$mf2@XVMysession@@ABVerror_code@system@boost@@I@_mfi@boost@@V?$list3@V?$value@V?$shared_ptr@VMysession@@@boost@@@_bi@boost@@U?$arg@$00@3@U?$arg@$01@3@@_bi@3@@_bi@4@Uis_continuation_if_running@detail@34@@512@@Z 00448080 f i session.obj
 0001:00047180       ??$async_receive@Vmutable_buffers_1@asio@boost@@V?$wrapped_handler@Vstrand@io_service@asio@boost@@V?$bind_t@XV?$mf2@XVMysession@@ABVerror_code@system@boost@@I@_mfi@boost@@V?$list3@V?$value@V?$shared_ptr@VMysession@@@boost@@@_bi@boost@@U?$arg@$00@3@U?$arg@$01@3@@_bi@3@@_bi@4@Uis_continuation_if_running@detail@34@@detail@23@@win_iocp_socket_service_base@detail@asio@boost@@QAEXAAUbase_implementation_type@0123@ABVmutable_buffers_1@23@HAAV?$wrapped_handler@Vstrand@io_service@asio@boost@@V?$bind_t@XV?$mf2@XVMysession@@ABVerror_code@system@boost@@I@_mfi@boost@@V?$list3@V?$value@V?$shared_ptr@VMysession@@@boost@@@_bi@boost@@U?$arg@$00@3@U?$arg@$01@3@@_bi@3@@_bi@4@Uis_continuation_if_running@detail@34@@123@@Z 00448180 f i session.obj
 0001:000472d0       ??$bind@XVMysession@@ABVerror_code@system@boost@@IV?$shared_ptr@VMysession@@@4@U?$arg@$00@4@U?$arg@$01@4@@boost@@YA?AV?$bind_t@XV?$mf2@XVMysession@@ABVerror_code@system@boost@@I@_mfi@boost@@V?$list3@V?$value@V?$shared_ptr@VMysession@@@boost@@@_bi@boost@@U?$arg@$00@3@U?$arg@$01@3@@_bi@3@@_bi@0@P8Mysession@@AEXABVerror_code@system@0@I@ZV?$shared_ptr@VMysession@@@0@U?$arg@$00@0@U?$arg@$01@0@@Z 004482d0 f i session.obj
 0001:00047430       ??$bind@XVMysession@@V?$shared_ptr@VMysession@@@boost@@@boost@@YA?AV?$bind_t@XV?$mf0@XVMysession@@@_mfi@boost@@V?$list1@V?$value@V?$shared_ptr@VMysession@@@boost@@@_bi@boost@@@_bi@3@@_bi@0@P8Mysession@@AEXXZV?$shared_ptr@VMysession@@@0@@Z 00448430 f i session.obj
 0001:00047590       ??$bind_handler@V?$bind_t@XV?$mf2@XVMysession@@ABVerror_code@system@boost@@I@_mfi@boost@@V?$list3@V?$value@V?$shared_ptr@VMysession@@@boost@@@_bi@boost@@U?$arg@$00@3@U?$arg@$01@3@@_bi@3@@_bi@boost@@Verror_code@system@3@I@detail@asio@boost@@YA?AV?$binder2@V?$bind_t@XV?$mf2@XVMysession@@ABVerror_code@system@boost@@I@_mfi@boost@@V?$list3@V?$value@V?$shared_ptr@VMysession@@@boost@@@_bi@boost@@U?$arg@$00@3@U?$arg@$01@3@@_bi@3@@_bi@boost@@Verror_code@system@3@I@012@V?$bind_t@XV?$mf2@XVMysession@@ABVerror_code@system@boost@@I@_mfi@boost@@V?$list3@V?$value@V?$shared_ptr@VMysession@@@boost@@@_bi@boost@@U?$arg@$00@3@U?$arg@$01@3@@_bi@3@@_bi@2@ABVerror_code@system@2@ABI@Z 00448590 f i session.obj
 0001:00047690       ??$cancel_timer@U?$time_traits@Vptime@posix_time@boost@@@asio@boost@@@win_iocp_io_service@detail@asio@boost@@QAEIAAV?$timer_queue@U?$time_traits@Vptime@posix_time@boost@@@asio@boost@@@123@AAVper_timer_data@?$timer_queue@Uforwarding_posix_time_traits@detail@asio@boost@@@123@I@Z 00448690 f i session.obj
 0001:00047730       ??$create@V?$deadline_timer_service@Vptime@posix_time@boost@@U?$time_traits@Vptime@posix_time@boost@@@asio@3@@asio@boost@@@service_registry@detail@asio@boost@@CAPAVservice@io_service@23@AAV523@@Z 00448730 f i session.obj
 0001:000477b0       ??$create@V?$stream_socket_service@Vtcp@ip@asio@boost@@@asio@boost@@@service_registry@detail@asio@boost@@CAPAVservice@io_service@23@AAV523@@Z 004487b0 f i session.obj
 0001:00047830       ??$create@Vstrand_service@detail@asio@boost@@@service_registry@detail@asio@boost@@CAPAVservice@io_service@23@AAV523@@Z 00448830 f i session.obj
 0001:000478c0       ??$dispatch@V?$binder2@V?$bind_t@XV?$mf2@XVMysession@@ABVerror_code@system@boost@@I@_mfi@boost@@V?$list3@V?$value@V?$shared_ptr@VMysession@@@boost@@@_bi@boost@@U?$arg@$00@3@U?$arg@$01@3@@_bi@3@@_bi@boost@@Verror_code@system@3@I@detail@asio@boost@@@strand@io_service@asio@boost@@QAEX$$QAV?$binder2@V?$bind_t@XV?$mf2@XVMysession@@ABVerror_code@system@boost@@I@_mfi@boost@@V?$list3@V?$value@V?$shared_ptr@VMysession@@@boost@@@_bi@boost@@U?$arg@$00@3@U?$arg@$01@3@@_bi@3@@_bi@boost@@Verror_code@system@3@I@detail@23@@Z 004488c0 f i session.obj
 0001:000479c0       ??$dispatch@V?$binder2@V?$bind_t@XV?$mf2@XVMysession@@ABVerror_code@system@boost@@I@_mfi@boost@@V?$list3@V?$value@V?$shared_ptr@VMysession@@@boost@@@_bi@boost@@U?$arg@$00@3@U?$arg@$01@3@@_bi@3@@_bi@boost@@Verror_code@system@3@I@detail@asio@boost@@@strand_service@detail@asio@boost@@QAEXAAPAVstrand_impl@0123@AAV?$binder2@V?$bind_t@XV?$mf2@XVMysession@@ABVerror_code@system@boost@@I@_mfi@boost@@V?$list3@V?$value@V?$shared_ptr@VMysession@@@boost@@@_bi@boost@@U?$arg@$00@3@U?$arg@$01@3@@_bi@3@@_bi@boost@@Verror_code@system@3@I@123@@Z 004489c0 f i session.obj
 0001:00047b80       ??$dispatch@V?$rewrapped_handler@V?$binder2@V?$wrapped_handler@Vstrand@io_service@asio@boost@@V?$bind_t@XV?$mf2@XVMysession@@ABVerror_code@system@boost@@I@_mfi@boost@@V?$list3@V?$value@V?$shared_ptr@VMysession@@@boost@@@_bi@boost@@U?$arg@$00@3@U?$arg@$01@3@@_bi@3@@_bi@4@Uis_continuation_if_running@detail@34@@detail@asio@boost@@Verror_code@system@4@I@detail@asio@boost@@V?$bind_t@XV?$mf2@XVMysession@@ABVerror_code@system@boost@@I@_mfi@boost@@V?$list3@V?$value@V?$shared_ptr@VMysession@@@boost@@@_bi@boost@@U?$arg@$00@3@U?$arg@$01@3@@_bi@3@@_bi@4@@detail@asio@boost@@@strand_service@detail@asio@boost@@QAEXAAPAVstrand_impl@0123@AAV?$rewrapped_handler@V?$binder2@V?$wrapped_handler@Vstrand@io_service@asio@boost@@V?$bind_t@XV?$mf2@XVMysession@@ABVerror_code@system@boost@@I@_mfi@boost@@V?$list3@V?$value@V?$shared_ptr@VMysession@@@boost@@@_bi@boost@@U?$arg@$00@3@U?$arg@$01@3@@_bi@3@@_bi@4@Uis_continuation_if_running@detail@34@@detail@asio@boost@@Verror_code@system@4@I@detail@asio@boost@@V?$bind_t@XV?$mf2@XVMysession@@ABVerror_code@system@boost@@I@_mfi@boost@@V?$list3@V?$value@V?$shared_ptr@VMysession@@@boost@@@_bi@boost@@U?$arg@$00@3@U?$arg@$01@3@@_bi@3@@_bi@4@@123@@Z 00448b80 f i session.obj
 0001:00047d30       ??$enable_current_exception@U?$error_info_injector@Ubad_day_of_month@gregorian@boost@@@exception_detail@boost@@@boost@@YA?AV?$clone_impl@U?$error_info_injector@Ubad_day_of_month@gregorian@boost@@@exception_detail@boost@@@exception_detail@0@ABU?$error_info_injector@Ubad_day_of_month@gregorian@boost@@@20@@Z 00448d30 f i session.obj
 0001:00047e10       ??$enable_current_exception@U?$error_info_injector@Ubad_month@gregorian@boost@@@exception_detail@boost@@@boost@@YA?AV?$clone_impl@U?$error_info_injector@Ubad_month@gregorian@boost@@@exception_detail@boost@@@exception_detail@0@ABU?$error_info_injector@Ubad_month@gregorian@boost@@@20@@Z 00448e10 f i session.obj
 0001:00047ef0       ??$enable_current_exception@U?$error_info_injector@Ubad_year@gregorian@boost@@@exception_detail@boost@@@boost@@YA?AV?$clone_impl@U?$error_info_injector@Ubad_year@gregorian@boost@@@exception_detail@boost@@@exception_detail@0@ABU?$error_info_injector@Ubad_year@gregorian@boost@@@20@@Z 00448ef0 f i session.obj
 0001:00047fd0       ??$enable_current_exception@U?$error_info_injector@Vruntime_error@std@@@exception_detail@boost@@@boost@@YA?AV?$clone_impl@U?$error_info_injector@Vruntime_error@std@@@exception_detail@boost@@@exception_detail@0@ABU?$error_info_injector@Vruntime_error@std@@@20@@Z 00448fd0 f i session.obj
 0001:000480b0       ??$enable_error_info@Ubad_day_of_month@gregorian@boost@@@boost@@YA?AU?$error_info_injector@Ubad_day_of_month@gregorian@boost@@@exception_detail@0@ABUbad_day_of_month@gregorian@0@@Z 004490b0 f i session.obj
 0001:00048130       ??$enable_error_info@Ubad_month@gregorian@boost@@@boost@@YA?AU?$error_info_injector@Ubad_month@gregorian@boost@@@exception_detail@0@ABUbad_month@gregorian@0@@Z 00449130 f i session.obj
 0001:000481b0       ??$enable_error_info@Ubad_year@gregorian@boost@@@boost@@YA?AU?$error_info_injector@Ubad_year@gregorian@boost@@@exception_detail@0@ABUbad_year@gregorian@0@@Z 004491b0 f i session.obj
 0001:00048230       ??$enable_error_info@Vruntime_error@std@@@boost@@YA?AU?$error_info_injector@Vruntime_error@std@@@exception_detail@0@ABVruntime_error@std@@@Z 00449230 f i session.obj
 0001:000482b0       ??$init_key@V?$deadline_timer_service@Vptime@posix_time@boost@@U?$time_traits@Vptime@posix_time@boost@@@asio@3@@asio@boost@@@service_registry@detail@asio@boost@@CAXAAUkey@service@io_service@23@ABV?$service_id@V?$deadline_timer_service@Vptime@posix_time@boost@@U?$time_traits@Vptime@posix_time@boost@@@asio@3@@asio@boost@@@123@@Z 004492b0 f i session.obj
 0001:000482d0       ??$init_key@V?$stream_socket_service@Vtcp@ip@asio@boost@@@asio@boost@@@service_registry@detail@asio@boost@@CAXAAUkey@service@io_service@23@ABV?$service_id@V?$stream_socket_service@Vtcp@ip@asio@boost@@@asio@boost@@@123@@Z 004492d0 f i session.obj
 0001:000482f0       ??$init_key@Vstrand_service@detail@asio@boost@@@service_registry@detail@asio@boost@@CAXAAUkey@service@io_service@23@ABV?$service_id@Vstrand_service@detail@asio@boost@@@123@@Z 004492f0 f i session.obj
 0001:00048310       ??$post@V?$bind_t@XV?$mf0@XVMysession@@@_mfi@boost@@V?$list1@V?$value@V?$shared_ptr@VMysession@@@boost@@@_bi@boost@@@_bi@3@@_bi@boost@@@strand@io_service@asio@boost@@QAEX$$QAV?$bind_t@XV?$mf0@XVMysession@@@_mfi@boost@@V?$list1@V?$value@V?$shared_ptr@VMysession@@@boost@@@_bi@boost@@@_bi@3@@_bi@3@@Z 00449310 f i session.obj
 0001:00048450       ??$post@V?$bind_t@XV?$mf0@XVMysession@@@_mfi@boost@@V?$list1@V?$value@V?$shared_ptr@VMysession@@@boost@@@_bi@boost@@@_bi@3@@_bi@boost@@@strand_service@detail@asio@boost@@QAEXAAPAVstrand_impl@0123@AAV?$bind_t@XV?$mf0@XVMysession@@@_mfi@boost@@V?$list1@V?$value@V?$shared_ptr@VMysession@@@boost@@@_bi@boost@@@_bi@3@@_bi@3@@Z 00449450 f i session.obj
 0001:00048510       ??$remove_timer_queue@U?$time_traits@Vptime@posix_time@boost@@@asio@boost@@@win_iocp_io_service@detail@asio@boost@@QAEXAAV?$timer_queue@U?$time_traits@Vptime@posix_time@boost@@@asio@boost@@@123@@Z 00449510 f i session.obj
 0001:00048550       ??$throw_exception@Ubad_day_of_month@gregorian@boost@@@boost@@YAXABUbad_day_of_month@gregorian@0@@Z 00449550 f i session.obj
 0001:000485c0       ??$throw_exception@Ubad_month@gregorian@boost@@@boost@@YAXABUbad_month@gregorian@0@@Z 004495c0 f i session.obj
 0001:00048630       ??$throw_exception@Ubad_year@gregorian@boost@@@boost@@YAXABUbad_year@gregorian@0@@Z 00449630 f i session.obj
 0001:000486a0       ??$throw_exception@Vruntime_error@std@@@boost@@YAXABVruntime_error@std@@@Z 004496a0 f i session.obj
 0001:00048710       ??$to_msec@Vtime_duration@posix_time@boost@@@?$timer_queue@Uforwarding_posix_time_traits@detail@asio@boost@@@detail@asio@boost@@ABEJABVtime_duration@posix_time@3@J@Z 00449710 f i session.obj
 0001:00048790       ??$use_service@V?$deadline_timer_service@Vptime@posix_time@boost@@U?$time_traits@Vptime@posix_time@boost@@@asio@3@@asio@boost@@@service_registry@detail@asio@boost@@QAEAAV?$deadline_timer_service@Vptime@posix_time@boost@@U?$time_traits@Vptime@posix_time@boost@@@asio@3@@23@XZ 00449790 f i session.obj
 0001:000487c0       ??$use_service@V?$stream_socket_service@Vtcp@ip@asio@boost@@@asio@boost@@@service_registry@detail@asio@boost@@QAEAAV?$stream_socket_service@Vtcp@ip@asio@boost@@@23@XZ 004497c0 f i session.obj
 0001:000487f0       ??$use_service@Vstrand_service@detail@asio@boost@@@service_registry@detail@asio@boost@@QAEAAVstrand_service@123@XZ 004497f0 f i session.obj
 0001:00048820       ??$wrap@V?$bind_t@XV?$mf2@XVMysession@@ABVerror_code@system@boost@@I@_mfi@boost@@V?$list3@V?$value@V?$shared_ptr@VMysession@@@boost@@@_bi@boost@@U?$arg@$00@3@U?$arg@$01@3@@_bi@3@@_bi@boost@@@strand@io_service@asio@boost@@QAE?AV?$wrapped_handler@Vstrand@io_service@asio@boost@@V?$bind_t@XV?$mf2@XVMysession@@ABVerror_code@system@boost@@I@_mfi@boost@@V?$list3@V?$value@V?$shared_ptr@VMysession@@@boost@@@_bi@boost@@U?$arg@$00@3@U?$arg@$01@3@@_bi@3@@_bi@4@Uis_continuation_if_running@detail@34@@detail@23@V?$bind_t@XV?$mf2@XVMysession@@ABVerror_code@system@boost@@I@_mfi@boost@@V?$list3@V?$value@V?$shared_ptr@VMysession@@@boost@@@_bi@boost@@U?$arg@$00@3@U?$arg@$01@3@@_bi@3@@_bi@3@@Z 00449820 f i session.obj
 0001:00048910       ??0?$basic_io_object@V?$deadline_timer_service@Vptime@posix_time@boost@@U?$time_traits@Vptime@posix_time@boost@@@asio@3@@asio@boost@@$0A@@asio@boost@@IAE@AAVio_service@12@@Z 00449910 f i session.obj
 0001:00048a30       ??0?$basic_io_object@V?$stream_socket_service@Vtcp@ip@asio@boost@@@asio@boost@@$00@asio@boost@@IAE@AAVio_service@12@@Z 00449a30 f i session.obj
 0001:00048b10       ??0?$clone_impl@U?$error_info_injector@Vruntime_error@std@@@exception_detail@boost@@@exception_detail@boost@@AAE@ABV012@Uclone_tag@012@@Z 00449b10 f i session.obj
 0001:00048c00       ??0?$clone_impl@U?$error_info_injector@Vruntime_error@std@@@exception_detail@boost@@@exception_detail@boost@@QAE@ABV012@@Z 00449c00 f i session.obj
 0001:00048cd0       ??0?$completion_handler@V?$bind_t@XV?$mf0@XVMysession@@@_mfi@boost@@V?$list1@V?$value@V?$shared_ptr@VMysession@@@boost@@@_bi@boost@@@_bi@3@@_bi@boost@@@detail@asio@boost@@QAE@AAV?$bind_t@XV?$mf0@XVMysession@@@_mfi@boost@@V?$list1@V?$value@V?$shared_ptr@VMysession@@@boost@@@_bi@boost@@@_bi@3@@_bi@3@@Z 00449cd0 f i session.obj
 0001:00048d70       ??0?$completion_handler@V?$binder2@V?$bind_t@XV?$mf2@XVMysession@@ABVerror_code@system@boost@@I@_mfi@boost@@V?$list3@V?$value@V?$shared_ptr@VMysession@@@boost@@@_bi@boost@@U?$arg@$00@3@U?$arg@$01@3@@_bi@3@@_bi@boost@@Verror_code@system@3@I@detail@asio@boost@@@detail@asio@boost@@QAE@AAV?$binder2@V?$bind_t@XV?$mf2@XVMysession@@ABVerror_code@system@boost@@I@_mfi@boost@@V?$list3@V?$value@V?$shared_ptr@VMysession@@@boost@@@_bi@boost@@U?$arg@$00@3@U?$arg@$01@3@@_bi@3@@_bi@boost@@Verror_code@system@3@I@123@@Z 00449d70 f i session.obj
 0001:00048e20       ??0?$completion_handler@V?$rewrapped_handler@V?$binder2@V?$wrapped_handler@Vstrand@io_service@asio@boost@@V?$bind_t@XV?$mf2@XVMysession@@ABVerror_code@system@boost@@I@_mfi@boost@@V?$list3@V?$value@V?$shared_ptr@VMysession@@@boost@@@_bi@boost@@U?$arg@$00@3@U?$arg@$01@3@@_bi@3@@_bi@4@Uis_continuation_if_running@detail@34@@detail@asio@boost@@Verror_code@system@4@I@detail@asio@boost@@V?$bind_t@XV?$mf2@XVMysession@@ABVerror_code@system@boost@@I@_mfi@boost@@V?$list3@V?$value@V?$shared_ptr@VMysession@@@boost@@@_bi@boost@@U?$arg@$00@3@U?$arg@$01@3@@_bi@3@@_bi@4@@detail@asio@boost@@@detail@asio@boost@@QAE@AAV?$rewrapped_handler@V?$binder2@V?$wrapped_handler@Vstrand@io_service@asio@boost@@V?$bind_t@XV?$mf2@XVMysession@@ABVerror_code@system@boost@@I@_mfi@boost@@V?$list3@V?$value@V?$shared_ptr@VMysession@@@boost@@@_bi@boost@@U?$arg@$00@3@U?$arg@$01@3@@_bi@3@@_bi@4@Uis_continuation_if_running@detail@34@@detail@asio@boost@@Verror_code@system@4@I@detail@asio@boost@@V?$bind_t@XV?$mf2@XVMysession@@ABVerror_code@system@boost@@I@_mfi@boost@@V?$list3@V?$value@V?$shared_ptr@VMysession@@@boost@@@_bi@boost@@U?$arg@$00@3@U?$arg@$01@3@@_bi@3@@_bi@4@@123@@Z 00449e20 f i session.obj
 0001:00048e90       ??0?$constrained_value@V?$simple_exception_policy@G$00$0BP@Ubad_day_of_month@gregorian@boost@@@CV@boost@@@CV@boost@@QAE@G@Z 00449e90 f i session.obj
 0001:00048f30       ??0?$constrained_value@V?$simple_exception_policy@G$00$0M@Ubad_month@gregorian@boost@@@CV@boost@@@CV@boost@@QAE@G@Z 00449f30 f i session.obj
 0001:00048fd0       ??0?$deadline_timer_service@Vptime@posix_time@boost@@U?$time_traits@Vptime@posix_time@boost@@@asio@3@@asio@boost@@QAE@AAVio_service@12@@Z 00449fd0 f i session.obj
 0001:000490b0       ??0?$error_info_injector@Vruntime_error@std@@@exception_detail@boost@@QAE@ABU012@@Z 0044a0b0 f i session.obj
 0001:00049190       ??0?$list1@V?$value@V?$shared_ptr@VMysession@@@boost@@@_bi@boost@@@_bi@boost@@QAE@V?$value@V?$shared_ptr@VMysession@@@boost@@@12@@Z 0044a190 f i session.obj
 0001:000492c0       ??0?$list3@V?$value@V?$shared_ptr@VMysession@@@boost@@@_bi@boost@@U?$arg@$00@3@U?$arg@$01@3@@_bi@boost@@QAE@V?$value@V?$shared_ptr@VMysession@@@boost@@@12@U?$arg@$00@2@U?$arg@$01@2@@Z 0044a2c0 f i session.obj
 0001:000493a0       ??0?$rewrapped_handler@V?$binder2@V?$wrapped_handler@Vstrand@io_service@asio@boost@@V?$bind_t@XV?$mf2@XVMysession@@ABVerror_code@system@boost@@I@_mfi@boost@@V?$list3@V?$value@V?$shared_ptr@VMysession@@@boost@@@_bi@boost@@U?$arg@$00@3@U?$arg@$01@3@@_bi@3@@_bi@4@Uis_continuation_if_running@detail@34@@detail@asio@boost@@Verror_code@system@4@I@detail@asio@boost@@V?$bind_t@XV?$mf2@XVMysession@@ABVerror_code@system@boost@@I@_mfi@boost@@V?$list3@V?$value@V?$shared_ptr@VMysession@@@boost@@@_bi@boost@@U?$arg@$00@3@U?$arg@$01@3@@_bi@3@@_bi@4@@detail@asio@boost@@QAE@$$QAV0123@@Z 0044a3a0 f i session.obj
 0001:00049450       ??0?$rewrapped_handler@V?$binder2@V?$wrapped_handler@Vstrand@io_service@asio@boost@@V?$bind_t@XV?$mf2@XVMysession@@ABVerror_code@system@boost@@I@_mfi@boost@@V?$list3@V?$value@V?$shared_ptr@VMysession@@@boost@@@_bi@boost@@U?$arg@$00@3@U?$arg@$01@3@@_bi@3@@_bi@4@Uis_continuation_if_running@detail@34@@detail@asio@boost@@Verror_code@system@4@I@detail@asio@boost@@V?$bind_t@XV?$mf2@XVMysession@@ABVerror_code@system@boost@@I@_mfi@boost@@V?$list3@V?$value@V?$shared_ptr@VMysession@@@boost@@@_bi@boost@@U?$arg@$00@3@U?$arg@$01@3@@_bi@3@@_bi@4@@detail@asio@boost@@QAE@AAV?$binder2@V?$wrapped_handler@Vstrand@io_service@asio@boost@@V?$bind_t@XV?$mf2@XVMysession@@ABVerror_code@system@boost@@I@_mfi@boost@@V?$list3@V?$value@V?$shared_ptr@VMysession@@@boost@@@_bi@boost@@U?$arg@$00@3@U?$arg@$01@3@@_bi@3@@_bi@4@Uis_continuation_if_running@detail@34@@detail@asio@boost@@Verror_code@system@4@I@123@ABV?$bind_t@XV?$mf2@XVMysession@@ABVerror_code@system@boost@@I@_mfi@boost@@V?$list3@V?$value@V?$shared_ptr@VMysession@@@boost@@@_bi@boost@@U?$arg@$00@3@U?$arg@$01@3@@_bi@3@@_bi@3@@Z 0044a450 f i session.obj
 0001:00049500       ??0?$service_id@V?$deadline_timer_service@Vptime@posix_time@boost@@U?$time_traits@Vptime@posix_time@boost@@@asio@3@@asio@boost@@@detail@asio@boost@@QAE@XZ 0044a500 f i session.obj
 0001:00049510       ??0?$service_id@V?$stream_socket_service@Vtcp@ip@asio@boost@@@asio@boost@@@detail@asio@boost@@QAE@XZ 0044a510 f i session.obj
 0001:00049520       ??0?$storage3@V?$value@V?$shared_ptr@VMysession@@@boost@@@_bi@boost@@U?$arg@$00@3@U?$arg@$01@3@@_bi@boost@@QAE@V?$value@V?$shared_ptr@VMysession@@@boost@@@12@U?$arg@$00@2@U?$arg@$01@2@@Z 0044a520 f i session.obj
 0001:00049600       ??0?$stream_socket_service@Vtcp@ip@asio@boost@@@asio@boost@@QAE@AAVio_service@12@@Z 0044a600 f i session.obj
 0001:000496f0       ??0?$win_iocp_socket_recv_op@Vmutable_buffers_1@asio@boost@@V?$wrapped_handler@Vstrand@io_service@asio@boost@@V?$bind_t@XV?$mf2@XVMysession@@ABVerror_code@system@boost@@I@_mfi@boost@@V?$list3@V?$value@V?$shared_ptr@VMysession@@@boost@@@_bi@boost@@U?$arg@$00@3@U?$arg@$01@3@@_bi@3@@_bi@4@Uis_continuation_if_running@detail@34@@detail@23@@detail@asio@boost@@QAE@EV?$weak_ptr@X@std@@ABVmutable_buffers_1@23@AAV?$wrapped_handler@Vstrand@io_service@asio@boost@@V?$bind_t@XV?$mf2@XVMysession@@ABVerror_code@system@boost@@I@_mfi@boost@@V?$list3@V?$value@V?$shared_ptr@VMysession@@@boost@@@_bi@boost@@U?$arg@$00@3@U?$arg@$01@3@@_bi@3@@_bi@4@Uis_continuation_if_running@detail@34@@123@@Z 0044a6f0 f i session.obj
 0001:00049830       ??0Mysession@@QAE@AAVio_service@asio@boost@@AAVConnections@@@Z 0044a830 f   session.obj
 0001:000499a0       ??0bad_day_of_month@gregorian@boost@@QAE@XZ 0044a9a0 f i session.obj
 0001:00049a70       ??0bad_month@gregorian@boost@@QAE@XZ 0044aa70 f i session.obj
 0001:00049b40       ??0bad_year@gregorian@boost@@QAE@XZ 0044ab40 f i session.obj
 0001:00049c10       ??0date@gregorian@boost@@QAE@Vgreg_year@12@Vgreg_month@12@Vgreg_day@12@@Z 0044ac10 f i session.obj
 0001:00049d40       ??0strand_impl@strand_service@detail@asio@boost@@QAE@XZ 0044ad40 f i session.obj
 0001:00049df0       ??0strand_service@detail@asio@boost@@QAE@AAVio_service@23@@Z 0044adf0 f i session.obj
 0001:00049ef0       ??1?$QList@UMessage@@@@QAE@XZ 0044aef0 f i session.obj
 0001:00049f60       ??1?$async_result_init@V?$bind_t@XV?$mf0@XVMysession@@@_mfi@boost@@V?$list1@V?$value@V?$shared_ptr@VMysession@@@boost@@@_bi@boost@@@_bi@3@@_bi@boost@@$$A6AXXZ@detail@asio@boost@@QAE@XZ 0044af60 f i session.obj
 0001:00049ff0       ??1?$async_result_init@V?$binder2@V?$bind_t@XV?$mf2@XVMysession@@ABVerror_code@system@boost@@I@_mfi@boost@@V?$list3@V?$value@V?$shared_ptr@VMysession@@@boost@@@_bi@boost@@U?$arg@$00@3@U?$arg@$01@3@@_bi@3@@_bi@boost@@Verror_code@system@3@I@detail@asio@boost@@$$A6AXXZ@detail@asio@boost@@QAE@XZ 0044aff0 f i session.obj
 0001:0004a080       ??1?$async_result_init@V?$rewrapped_handler@V?$binder2@V?$wrapped_handler@Vstrand@io_service@asio@boost@@V?$bind_t@XV?$mf2@XVMysession@@ABVerror_code@system@boost@@I@_mfi@boost@@V?$list3@V?$value@V?$shared_ptr@VMysession@@@boost@@@_bi@boost@@U?$arg@$00@3@U?$arg@$01@3@@_bi@3@@_bi@4@Uis_continuation_if_running@detail@34@@detail@asio@boost@@Verror_code@system@4@I@detail@asio@boost@@V?$bind_t@XV?$mf2@XVMysession@@ABVerror_code@system@boost@@I@_mfi@boost@@V?$list3@V?$value@V?$shared_ptr@VMysession@@@boost@@@_bi@boost@@U?$arg@$00@3@U?$arg@$01@3@@_bi@3@@_bi@4@@detail@asio@boost@@$$A6AXXZ@detail@asio@boost@@QAE@XZ 0044b080 f i session.obj
 0001:0004a090       ??1?$async_result_init@V?$wrapped_handler@Vstrand@io_service@asio@boost@@V?$bind_t@XV?$mf2@XVMysession@@ABVerror_code@system@boost@@I@_mfi@boost@@V?$list3@V?$value@V?$shared_ptr@VMysession@@@boost@@@_bi@boost@@U?$arg@$00@3@U?$arg@$01@3@@_bi@3@@_bi@4@Uis_continuation_if_running@detail@34@@detail@asio@boost@@$$A6AXVerror_code@system@4@I@Z@detail@asio@boost@@QAE@XZ 0044b090 f i session.obj
 0001:0004a120       ??1?$basic_io_object@V?$stream_socket_service@Vtcp@ip@asio@boost@@@asio@boost@@$00@asio@boost@@IAE@XZ 0044b120 f i session.obj
 0001:0004a200       ??1?$basic_stream_socket@Vtcp@ip@asio@boost@@V?$stream_socket_service@Vtcp@ip@asio@boost@@@34@@asio@boost@@QAE@XZ 0044b200 f i session.obj
 0001:0004a210       ??1?$bind_t@XV?$mf0@XVMysession@@@_mfi@boost@@V?$list1@V?$value@V?$shared_ptr@VMysession@@@boost@@@_bi@boost@@@_bi@3@@_bi@boost@@QAE@XZ 0044b210 f i session.obj
 0001:0004a2a0       ??1?$bind_t@XV?$mf2@XVMysession@@ABVerror_code@system@boost@@I@_mfi@boost@@V?$list3@V?$value@V?$shared_ptr@VMysession@@@boost@@@_bi@boost@@U?$arg@$00@3@U?$arg@$01@3@@_bi@3@@_bi@boost@@QAE@XZ 0044b2a0 f i session.obj
 0001:0004a330       ??1?$binder2@V?$bind_t@XV?$mf2@XVMysession@@ABVerror_code@system@boost@@I@_mfi@boost@@V?$list3@V?$value@V?$shared_ptr@VMysession@@@boost@@@_bi@boost@@U?$arg@$00@3@U?$arg@$01@3@@_bi@3@@_bi@boost@@Verror_code@system@3@I@detail@asio@boost@@QAE@XZ 0044b330 f i session.obj
 0001:0004a3c0       ??1?$binder2@V?$wrapped_handler@Vstrand@io_service@asio@boost@@V?$bind_t@XV?$mf2@XVMysession@@ABVerror_code@system@boost@@I@_mfi@boost@@V?$list3@V?$value@V?$shared_ptr@VMysession@@@boost@@@_bi@boost@@U?$arg@$00@3@U?$arg@$01@3@@_bi@3@@_bi@4@Uis_continuation_if_running@detail@34@@detail@asio@boost@@Verror_code@system@4@I@detail@asio@boost@@QAE@XZ 0044b3c0 f i session.obj
 0001:0004a450       ??1?$clone_impl@U?$error_info_injector@Vruntime_error@std@@@exception_detail@boost@@@exception_detail@boost@@UAE@XZ 0044b450 f i session.obj
 0001:0004a520       ??1?$deadline_timer_service@U?$time_traits@Vptime@posix_time@boost@@@asio@boost@@@detail@asio@boost@@QAE@XZ 0044b520 f i session.obj
 0001:0004a5b0       ??1?$enable_shared_from_this@VMysession@@@boost@@IAE@XZ 0044b5b0 f i session.obj
 0001:0004a620       ??1?$error_info_injector@Vruntime_error@std@@@exception_detail@boost@@UAE@XZ 0044b620 f i session.obj
 0001:0004a6c0       ??1?$op_queue@Vwait_op@detail@asio@boost@@@detail@asio@boost@@QAE@XZ 0044b6c0 f i session.obj
 0001:0004a760       ??1?$rewrapped_handler@V?$binder2@V?$wrapped_handler@Vstrand@io_service@asio@boost@@V?$bind_t@XV?$mf2@XVMysession@@ABVerror_code@system@boost@@I@_mfi@boost@@V?$list3@V?$value@V?$shared_ptr@VMysession@@@boost@@@_bi@boost@@U?$arg@$00@3@U?$arg@$01@3@@_bi@3@@_bi@4@Uis_continuation_if_running@detail@34@@detail@asio@boost@@Verror_code@system@4@I@detail@asio@boost@@V?$bind_t@XV?$mf2@XVMysession@@ABVerror_code@system@boost@@I@_mfi@boost@@V?$list3@V?$value@V?$shared_ptr@VMysession@@@boost@@@_bi@boost@@U?$arg@$00@3@U?$arg@$01@3@@_bi@3@@_bi@4@@detail@asio@boost@@QAE@XZ 0044b760 f i session.obj
 0001:0004a840       ??1?$scoped_ptr@Vstrand_impl@strand_service@detail@asio@boost@@@detail@asio@boost@@QAE@XZ 0044b840 f i session.obj
 0001:0004a880       ??1?$service_base@V?$deadline_timer_service@Vptime@posix_time@boost@@U?$time_traits@Vptime@posix_time@boost@@@asio@3@@asio@boost@@@detail@asio@boost@@UAE@XZ 0044b880 f i session.obj
 0001:0004a890       ??1?$service_base@V?$stream_socket_service@Vtcp@ip@asio@boost@@@asio@boost@@@detail@asio@boost@@UAE@XZ 0044b890 f i session.obj
 0001:0004a8a0       ??1?$service_base@Vstrand_service@detail@asio@boost@@@detail@asio@boost@@UAE@XZ 0044b8a0 f i session.obj
 0001:0004a8b0       ??1?$service_id@V?$deadline_timer_service@Vptime@posix_time@boost@@U?$time_traits@Vptime@posix_time@boost@@@asio@3@@asio@boost@@@detail@asio@boost@@QAE@XZ 0044b8b0 f i session.obj
 0001:0004a8c0       ??1?$service_id@V?$stream_socket_service@Vtcp@ip@asio@boost@@@asio@boost@@@detail@asio@boost@@QAE@XZ 0044b8c0 f i session.obj
 0001:0004a8d0       ??1?$timer_queue@U?$time_traits@Vptime@posix_time@boost@@@asio@boost@@@detail@asio@boost@@UAE@XZ 0044b8d0 f i session.obj
 0001:0004a930       ??1?$wrapped_handler@Vstrand@io_service@asio@boost@@V?$bind_t@XV?$mf2@XVMysession@@ABVerror_code@system@boost@@I@_mfi@boost@@V?$list3@V?$value@V?$shared_ptr@VMysession@@@boost@@@_bi@boost@@U?$arg@$00@3@U?$arg@$01@3@@_bi@3@@_bi@4@Uis_continuation_if_running@detail@34@@detail@asio@boost@@QAE@XZ 0044b930 f i session.obj
 0001:0004a9c0       ??1Mysession@@UAE@XZ       0044b9c0 f   session.obj
 0001:0004ab50       ??1auto_func_base_ptr@win_thread@detail@asio@boost@@QAE@XZ 0044bb50 f i session.obj
 0001:0004ab60       ??1func_base@win_thread@detail@asio@boost@@UAE@XZ 0044bb60 f i session.obj
 0001:0004ab70       ??1implementation_type@?$deadline_timer_service@U?$time_traits@Vptime@posix_time@boost@@@asio@boost@@@detail@asio@boost@@QAE@XZ 0044bb70 f i session.obj
 0001:0004ab80       ??1on_do_complete_exit@strand_service@detail@asio@boost@@QAE@XZ 0044bb80 f i session.obj
 0001:0004ac10       ??1ptr@?$completion_handler@V?$bind_t@XV?$mf0@XVMysession@@@_mfi@boost@@V?$list1@V?$value@V?$shared_ptr@VMysession@@@boost@@@_bi@boost@@@_bi@3@@_bi@boost@@@detail@asio@boost@@QAE@XZ 0044bc10 f i session.obj
 0001:0004ac60       ??1ptr@?$completion_handler@V?$binder2@V?$bind_t@XV?$mf2@XVMysession@@ABVerror_code@system@boost@@I@_mfi@boost@@V?$list3@V?$value@V?$shared_ptr@VMysession@@@boost@@@_bi@boost@@U?$arg@$00@3@U?$arg@$01@3@@_bi@3@@_bi@boost@@Verror_code@system@3@I@detail@asio@boost@@@detail@asio@boost@@QAE@XZ 0044bc60 f i session.obj
 0001:0004acb0       ??1ptr@?$completion_handler@V?$rewrapped_handler@V?$binder2@V?$wrapped_handler@Vstrand@io_service@asio@boost@@V?$bind_t@XV?$mf2@XVMysession@@ABVerror_code@system@boost@@I@_mfi@boost@@V?$list3@V?$value@V?$shared_ptr@VMysession@@@boost@@@_bi@boost@@U?$arg@$00@3@U?$arg@$01@3@@_bi@3@@_bi@4@Uis_continuation_if_running@detail@34@@detail@asio@boost@@Verror_code@system@4@I@detail@asio@boost@@V?$bind_t@XV?$mf2@XVMysession@@ABVerror_code@system@boost@@I@_mfi@boost@@V?$list3@V?$value@V?$shared_ptr@VMysession@@@boost@@@_bi@boost@@U?$arg@$00@3@U?$arg@$01@3@@_bi@3@@_bi@4@@detail@asio@boost@@@detail@asio@boost@@QAE@XZ 0044bcb0 f i session.obj
 0001:0004ad00       ??1ptr@?$win_iocp_socket_recv_op@Vmutable_buffers_1@asio@boost@@V?$wrapped_handler@Vstrand@io_service@asio@boost@@V?$bind_t@XV?$mf2@XVMysession@@ABVerror_code@system@boost@@I@_mfi@boost@@V?$list3@V?$value@V?$shared_ptr@VMysession@@@boost@@@_bi@boost@@U?$arg@$00@3@U?$arg@$01@3@@_bi@3@@_bi@4@Uis_continuation_if_running@detail@34@@detail@23@@detail@asio@boost@@QAE@XZ 0044bd00 f i session.obj
 0001:0004ad50       ??1timer_queue_base@detail@asio@boost@@UAE@XZ 0044bd50 f i session.obj
 0001:0004ad60       ??Rtimer_thread_function@win_iocp_io_service@detail@asio@boost@@QAEXXZ 0044bd60 f i session.obj
 0001:0004add0       ??_D?$clone_impl@U?$error_info_injector@Vruntime_error@std@@@exception_detail@boost@@@exception_detail@boost@@QAEXXZ 0044bdd0 f i session.obj
 0001:0004ade5       ??_E?$clone_impl@U?$error_info_injector@Vruntime_error@std@@@exception_detail@boost@@@exception_detail@boost@@$4PPPPPPPM@CI@AEPAXI@Z 0044bde5 f i session.obj
 0001:0004adf2       ??_E?$clone_impl@U?$error_info_injector@Vruntime_error@std@@@exception_detail@boost@@@exception_detail@boost@@WM@AEPAXI@Z 0044bdf2 f i session.obj
 0001:0004adfc       ??_E?$error_info_injector@Vruntime_error@std@@@exception_detail@boost@@WM@AEPAXI@Z 0044bdfc f i session.obj
 0001:0004ae10       ??_F?$scoped_ptr@Vstrand_impl@strand_service@detail@asio@boost@@@detail@asio@boost@@QAEXXZ 0044be10 f i session.obj
 0001:0004ae20       ??_G?$clone_impl@U?$error_info_injector@Vruntime_error@std@@@exception_detail@boost@@@exception_detail@boost@@UAEPAXI@Z 0044be20 f i session.obj
 0001:0004ae20       ??_E?$clone_impl@U?$error_info_injector@Vruntime_error@std@@@exception_detail@boost@@@exception_detail@boost@@UAEPAXI@Z 0044be20 f i session.obj
 0001:0004ae60       ??_G?$deadline_timer_service@Vptime@posix_time@boost@@U?$time_traits@Vptime@posix_time@boost@@@asio@3@@asio@boost@@UAEPAXI@Z 0044be60 f i session.obj
 0001:0004ae60       ??_E?$deadline_timer_service@Vptime@posix_time@boost@@U?$time_traits@Vptime@posix_time@boost@@@asio@3@@asio@boost@@UAEPAXI@Z 0044be60 f i session.obj
 0001:0004aea0       ??_E?$error_info_injector@Vruntime_error@std@@@exception_detail@boost@@UAEPAXI@Z 0044bea0 f i session.obj
 0001:0004aea0       ??_G?$error_info_injector@Vruntime_error@std@@@exception_detail@boost@@UAEPAXI@Z 0044bea0 f i session.obj
 0001:0004af60       ??_E?$func@Utimer_thread_function@win_iocp_io_service@detail@asio@boost@@@win_thread@detail@asio@boost@@UAEPAXI@Z 0044bf60 f i session.obj
 0001:0004af60       ??_G?$func@Utimer_thread_function@win_iocp_io_service@detail@asio@boost@@@win_thread@detail@asio@boost@@UAEPAXI@Z 0044bf60 f i session.obj
 0001:0004af90       ??_G?$service_base@V?$deadline_timer_service@Vptime@posix_time@boost@@U?$time_traits@Vptime@posix_time@boost@@@asio@3@@asio@boost@@@detail@asio@boost@@UAEPAXI@Z 0044bf90 f i session.obj
 0001:0004af90       ??_E?$service_base@V?$deadline_timer_service@Vptime@posix_time@boost@@U?$time_traits@Vptime@posix_time@boost@@@asio@3@@asio@boost@@@detail@asio@boost@@UAEPAXI@Z 0044bf90 f i session.obj
 0001:0004afc0       ??_E?$service_base@V?$stream_socket_service@Vtcp@ip@asio@boost@@@asio@boost@@@detail@asio@boost@@UAEPAXI@Z 0044bfc0 f i session.obj
 0001:0004afc0       ??_G?$service_base@V?$stream_socket_service@Vtcp@ip@asio@boost@@@asio@boost@@@detail@asio@boost@@UAEPAXI@Z 0044bfc0 f i session.obj
 0001:0004aff0       ??_E?$service_base@Vstrand_service@detail@asio@boost@@@detail@asio@boost@@UAEPAXI@Z 0044bff0 f i session.obj
 0001:0004aff0       ??_G?$service_base@Vstrand_service@detail@asio@boost@@@detail@asio@boost@@UAEPAXI@Z 0044bff0 f i session.obj
 0001:0004b020       ??_G?$stream_socket_service@Vtcp@ip@asio@boost@@@asio@boost@@UAEPAXI@Z 0044c020 f i session.obj
 0001:0004b020       ??_E?$stream_socket_service@Vtcp@ip@asio@boost@@@asio@boost@@UAEPAXI@Z 0044c020 f i session.obj
 0001:0004b060       ??_G?$timer_queue@U?$time_traits@Vptime@posix_time@boost@@@asio@boost@@@detail@asio@boost@@UAEPAXI@Z 0044c060 f i session.obj
 0001:0004b060       ??_E?$timer_queue@U?$time_traits@Vptime@posix_time@boost@@@asio@boost@@@detail@asio@boost@@UAEPAXI@Z 0044c060 f i session.obj
 0001:0004b0e0       ??_G?$timer_queue@Uforwarding_posix_time_traits@detail@asio@boost@@@detail@asio@boost@@UAEPAXI@Z 0044c0e0 f i session.obj
 0001:0004b0e0       ??_E?$timer_queue@Uforwarding_posix_time_traits@detail@asio@boost@@@detail@asio@boost@@UAEPAXI@Z 0044c0e0 f i session.obj
 0001:0004b150       ??_EMysession@@UAEPAXI@Z   0044c150 f i session.obj
 0001:0004b150       ??_GMysession@@UAEPAXI@Z   0044c150 f i session.obj
 0001:0004b180       ??_GSendThread@@UAEPAXI@Z  0044c180 f i session.obj
 0001:0004b180       ??_ESendThread@@UAEPAXI@Z  0044c180 f i session.obj
 0001:0004b1c0       ??_Gfunc_base@win_thread@detail@asio@boost@@UAEPAXI@Z 0044c1c0 f i session.obj
 0001:0004b1c0       ??_Efunc_base@win_thread@detail@asio@boost@@UAEPAXI@Z 0044c1c0 f i session.obj
 0001:0004b1f0       ??_Gstrand_service@detail@asio@boost@@UAEPAXI@Z 0044c1f0 f i session.obj
 0001:0004b1f0       ??_Estrand_service@detail@asio@boost@@UAEPAXI@Z 0044c1f0 f i session.obj
 0001:0004b290       ??_Etimer_queue_base@detail@asio@boost@@UAEPAXI@Z 0044c290 f i session.obj
 0001:0004b290       ??_Gtimer_queue_base@detail@asio@boost@@UAEPAXI@Z 0044c290 f i session.obj
 0001:0004b2c0       ?CloseSocket@Mysession@@QAEXXZ 0044c2c0 f i session.obj
 0001:0004b3d0       ?a3_@?$storage3@V?$value@V?$shared_ptr@VMysession@@@boost@@@_bi@boost@@U?$arg@$00@3@U?$arg@$01@3@@_bi@boost@@SA?AU?$arg@$01@3@XZ 0044c3d0 f i session.obj
 0001:0004b3e0       ?asio_handler_is_continuation@asio@boost@@YA_NZZ 0044c3e0 f i session.obj
 0001:0004b3f0       ?assign@?$constrained_value@V?$simple_exception_policy@G$0FHI@$0CHBA@Ubad_year@gregorian@boost@@@CV@boost@@@CV@boost@@AAEXG@Z 0044c3f0 f i session.obj
 0001:0004b490       ?cancel_timer@?$timer_queue@Uforwarding_posix_time_traits@detail@asio@boost@@@detail@asio@boost@@QAEIAAVper_timer_data@1234@AAV?$op_queue@Vwin_iocp_operation@detail@asio@boost@@@234@I@Z 0044c490 f i session.obj
 0001:0004b546       ?clone@?$clone_impl@U?$error_info_injector@Vruntime_error@std@@@exception_detail@boost@@@exception_detail@boost@@$0PPPPPPPM@A@BEPBVclone_base@23@XZ 0044c546 f i session.obj
 0001:0004b550       ?clone@?$clone_impl@U?$error_info_injector@Vruntime_error@std@@@exception_detail@boost@@@exception_detail@boost@@EBEPBVclone_base@23@XZ 0044c550 f i session.obj
 0001:0004b5f0       ?close@win_iocp_socket_service_base@detail@asio@boost@@QAE?AVerror_code@system@4@AAUbase_implementation_type@1234@AAV564@@Z 0044c5f0 f i session.obj
 0001:0004b730       ?construct@strand_service@detail@asio@boost@@QAEXAAPAVstrand_impl@1234@@Z 0044c730 f i session.obj
 0001:0004b880       ?create_time@?$microsec_clock@Vptime@posix_time@boost@@@date_time@boost@@CA?AVptime@posix_time@3@P6APAUtm@@PB_JPAU6@@Z@Z 0044c880 f i session.obj
 0001:0004b9b0       ?day_number@?$gregorian_calendar_base@U?$year_month_day_base@Vgreg_year@gregorian@boost@@Vgreg_month@23@Vgreg_day@23@@date_time@boost@@I@date_time@boost@@SAIABU?$year_month_day_base@Vgreg_year@gregorian@boost@@Vgreg_month@23@Vgreg_day@23@@23@@Z 0044c9b0 f i session.obj
 0001:0004ba70       ?dealloc@?$QList@UMessage@@@@AAEXPAUData@QListData@@@Z 0044ca70 f i session.obj
 0001:0004bad0       ?do_add_timer_queue@win_iocp_io_service@detail@asio@boost@@AAEXAAVtimer_queue_base@234@@Z 0044cad0 f i session.obj
 0001:0004bc50       ?do_close@Mysession@@QAEXXZ 0044cc50 f i session.obj
 0001:0004bd30       ?do_complete@?$completion_handler@V?$bind_t@XV?$mf0@XVMysession@@@_mfi@boost@@V?$list1@V?$value@V?$shared_ptr@VMysession@@@boost@@@_bi@boost@@@_bi@3@@_bi@boost@@@detail@asio@boost@@SAXPAVwin_iocp_io_service@234@PAVwin_iocp_operation@234@ABVerror_code@system@4@I@Z 0044cd30 f i session.obj
 0001:0004be50       ?do_complete@?$completion_handler@V?$binder2@V?$bind_t@XV?$mf2@XVMysession@@ABVerror_code@system@boost@@I@_mfi@boost@@V?$list3@V?$value@V?$shared_ptr@VMysession@@@boost@@@_bi@boost@@U?$arg@$00@3@U?$arg@$01@3@@_bi@3@@_bi@boost@@Verror_code@system@3@I@detail@asio@boost@@@detail@asio@boost@@SAXPAVwin_iocp_io_service@234@PAVwin_iocp_operation@234@ABVerror_code@system@4@I@Z 0044ce50 f i session.obj
 0001:0004bf80       ?do_complete@?$completion_handler@V?$rewrapped_handler@V?$binder2@V?$wrapped_handler@Vstrand@io_service@asio@boost@@V?$bind_t@XV?$mf2@XVMysession@@ABVerror_code@system@boost@@I@_mfi@boost@@V?$list3@V?$value@V?$shared_ptr@VMysession@@@boost@@@_bi@boost@@U?$arg@$00@3@U?$arg@$01@3@@_bi@3@@_bi@4@Uis_continuation_if_running@detail@34@@detail@asio@boost@@Verror_code@system@4@I@detail@asio@boost@@V?$bind_t@XV?$mf2@XVMysession@@ABVerror_code@system@boost@@I@_mfi@boost@@V?$list3@V?$value@V?$shared_ptr@VMysession@@@boost@@@_bi@boost@@U?$arg@$00@3@U?$arg@$01@3@@_bi@3@@_bi@4@@detail@asio@boost@@@detail@asio@boost@@SAXPAVwin_iocp_io_service@234@PAVwin_iocp_operation@234@ABVerror_code@system@4@I@Z 0044cf80 f i session.obj
 0001:0004c080       ?do_complete@?$win_iocp_socket_recv_op@Vmutable_buffers_1@asio@boost@@V?$wrapped_handler@Vstrand@io_service@asio@boost@@V?$bind_t@XV?$mf2@XVMysession@@ABVerror_code@system@boost@@I@_mfi@boost@@V?$list3@V?$value@V?$shared_ptr@VMysession@@@boost@@@_bi@boost@@U?$arg@$00@3@U?$arg@$01@3@@_bi@3@@_bi@4@Uis_continuation_if_running@detail@34@@detail@23@@detail@asio@boost@@SAXPAVwin_iocp_io_service@234@PAVwin_iocp_operation@234@ABVerror_code@system@4@I@Z 0044d080 f i session.obj
 0001:0004c250       ?do_complete@strand_service@detail@asio@boost@@CAXPAVwin_iocp_io_service@234@PAVwin_iocp_operation@234@ABVerror_code@system@4@I@Z 0044d250 f i session.obj
 0001:0004c360       ?do_post@strand_service@detail@asio@boost@@AAEXAAPAVstrand_impl@1234@PAVwin_iocp_operation@234@_N@Z 0044d360 f i session.obj
 0001:0004c430       ?down_heap@?$timer_queue@Uforwarding_posix_time_traits@detail@asio@boost@@@detail@asio@boost@@AAEXI@Z 0044d430 f i session.obj
 0001:0004c520       ?empty@?$timer_queue@U?$time_traits@Vptime@posix_time@boost@@@asio@boost@@@detail@asio@boost@@UBE_NXZ 0044d520 f i session.obj
 0001:0004c530       ?empty@?$timer_queue@Uforwarding_posix_time_traits@detail@asio@boost@@@detail@asio@boost@@UBE_NXZ 0044d530 f i session.obj
 0001:0004c540       ?end_of_month_day@?$gregorian_calendar_base@U?$year_month_day_base@Vgreg_year@gregorian@boost@@Vgreg_month@23@Vgreg_day@23@@date_time@boost@@I@date_time@boost@@SAGVgreg_year@gregorian@3@Vgreg_month@53@@Z 0044d540 f i session.obj
 0001:0004c5c0       ?erase@timer_queue_set@detail@asio@boost@@QAEXPAVtimer_queue_base@234@@Z 0044d5c0 f i session.obj
 0001:0004c630       ?from_special@?$int_adapter@_J@date_time@boost@@SA?AV123@W4special_values@23@@Z 0044d630 f i session.obj
 0001:0004c6d0       ?get_all_timers@?$timer_queue@U?$time_traits@Vptime@posix_time@boost@@@asio@boost@@@detail@asio@boost@@UAEXAAV?$op_queue@Vwin_iocp_operation@detail@asio@boost@@@234@@Z 0044d6d0 f i session.obj
 0001:0004c6e0       ?get_all_timers@?$timer_queue@Uforwarding_posix_time_traits@detail@asio@boost@@@detail@asio@boost@@UAEXAAV?$op_queue@Vwin_iocp_operation@detail@asio@boost@@@234@@Z 0044d6e0 f i session.obj
 0001:0004c760       ?get_ready_timers@?$timer_queue@U?$time_traits@Vptime@posix_time@boost@@@asio@boost@@@detail@asio@boost@@UAEXAAV?$op_queue@Vwin_iocp_operation@detail@asio@boost@@@234@@Z 0044d760 f i session.obj
 0001:0004c770       ?get_ready_timers@?$timer_queue@Uforwarding_posix_time_traits@detail@asio@boost@@@detail@asio@boost@@UAEXAAV?$op_queue@Vwin_iocp_operation@detail@asio@boost@@@234@@Z 0044d770 f i session.obj
 0001:0004c820       ?gmtime@c_time@date_time@boost@@SAPAUtm@@PB_JPAU4@@Z 0044d820 f i session.obj
 0001:0004c8d0       ?handle_read@Mysession@@QAEXABVerror_code@system@boost@@I@Z 0044d8d0 f   session.obj
 0001:0004cb00       ?handle_write@Mysession@@QAEXABVerror_code@system@boost@@@Z 0044db00 f   session.obj
 0001:0004cb10       ?is_leap_year@?$gregorian_calendar_base@U?$year_month_day_base@Vgreg_year@gregorian@boost@@Vgreg_month@23@Vgreg_day@23@@date_time@boost@@I@date_time@boost@@SA_NVgreg_year@gregorian@3@@Z 0044db10 f i session.obj
 0001:0004cb50       ?is_neg_inf@?$int_adapter@_J@date_time@boost@@SA_N_J@Z 0044db50 f i session.obj
 0001:0004cb70       ?poll_write@socket_ops@detail@asio@boost@@YAHIEAAVerror_code@system@4@@Z 0044db70 f i session.obj
 0001:0004cce0       ?remove_timer@?$timer_queue@Uforwarding_posix_time_traits@detail@asio@boost@@@detail@asio@boost@@AAEXAAVper_timer_data@1234@@Z 0044dce0 f i session.obj
 0001:0004ce40       ?reset@ptr@?$completion_handler@V?$bind_t@XV?$mf0@XVMysession@@@_mfi@boost@@V?$list1@V?$value@V?$shared_ptr@VMysession@@@boost@@@_bi@boost@@@_bi@3@@_bi@boost@@@detail@asio@boost@@QAEXXZ 0044de40 f i session.obj
 0001:0004cf10       ?reset@ptr@?$completion_handler@V?$binder2@V?$bind_t@XV?$mf2@XVMysession@@ABVerror_code@system@boost@@I@_mfi@boost@@V?$list3@V?$value@V?$shared_ptr@VMysession@@@boost@@@_bi@boost@@U?$arg@$00@3@U?$arg@$01@3@@_bi@3@@_bi@boost@@Verror_code@system@3@I@detail@asio@boost@@@detail@asio@boost@@QAEXXZ 0044df10 f i session.obj
 0001:0004cfe0       ?reset@ptr@?$win_iocp_socket_recv_op@Vmutable_buffers_1@asio@boost@@V?$wrapped_handler@Vstrand@io_service@asio@boost@@V?$bind_t@XV?$mf2@XVMysession@@ABVerror_code@system@boost@@I@_mfi@boost@@V?$list3@V?$value@V?$shared_ptr@VMysession@@@boost@@@_bi@boost@@U?$arg@$00@3@U?$arg@$01@3@@_bi@3@@_bi@4@Uis_continuation_if_running@detail@34@@detail@23@@detail@asio@boost@@QAEXXZ 0044dfe0 f i session.obj
 0001:0004d0cb       ?rethrow@?$clone_impl@U?$error_info_injector@Vruntime_error@std@@@exception_detail@boost@@@exception_detail@boost@@$0PPPPPPPM@A@BEXXZ 0044e0cb f i session.obj
 0001:0004d0e0       ?rethrow@?$clone_impl@U?$error_info_injector@Vruntime_error@std@@@exception_detail@boost@@@exception_detail@boost@@EBEXXZ 0044e0e0 f i session.obj
 0001:0004d1a0       ?run@?$func@Utimer_thread_function@win_iocp_io_service@detail@asio@boost@@@win_thread@detail@asio@boost@@UAEXXZ 0044e1a0 f i session.obj
 0001:0004d1b0       ?run@SendThread@@UAEXXZ    0044e1b0 f i session.obj
 0001:0004d380       ?sendNewestData@Mysession@@QAE_NXZ 0044e380 f   session.obj
 0001:0004d9c0       ?sendNewestDhData@Mysession@@QAE_NXZ 0044e9c0 f   session.obj
 0001:0004db30       ?shutdown_service@?$deadline_timer_service@Vptime@posix_time@boost@@U?$time_traits@Vptime@posix_time@boost@@@asio@3@@asio@boost@@EAEXXZ 0044eb30 f i session.obj
 0001:0004db40       ?shutdown_service@?$stream_socket_service@Vtcp@ip@asio@boost@@@asio@boost@@EAEXXZ 0044eb40 f i session.obj
 0001:0004db50       ?shutdown_service@strand_service@detail@asio@boost@@UAEXXZ 0044eb50 f i session.obj
 0001:0004dc20       ?start@Mysession@@QAEXXZ   0044ec20 f   session.obj
 0001:0004dde0       ?start_thread@win_thread@detail@asio@boost@@AAEXPAVfunc_base@1234@I@Z 0044ede0 f i session.obj
 0001:0004df70       ?subtract_times@?$counted_time_system@U?$counted_time_rep@Vmillisec_posix_time_system_config@posix_time@boost@@@date_time@boost@@@date_time@boost@@SA?AVtime_duration@posix_time@3@ABU?$counted_time_rep@Vmillisec_posix_time_system_config@posix_time@boost@@@23@0@Z 0044ef70 f i session.obj
 0001:0004e1b0       ?sync_send@socket_ops@detail@asio@boost@@YAIIEPBU_WSABUF@@IH_NAAVerror_code@system@4@@Z 0044f1b0 f i session.obj
 0001:0004e2b0       ?to_tick_count@?$time_resolution_traits@Utime_resolution_traits_adapted64_impl@date_time@boost@@$04$0PECEA@$05H@date_time@boost@@SA_JHHH_J@Z 0044f2b0 f i session.obj
 0001:0004e3c0       ?up_heap@?$timer_queue@Uforwarding_posix_time_traits@detail@asio@boost@@@detail@asio@boost@@AAEXI@Z 0044f3c0 f i session.obj
 0001:0004e470       ?wait_duration_msec@?$timer_queue@U?$time_traits@Vptime@posix_time@boost@@@asio@boost@@@detail@asio@boost@@UBEJJ@Z 0044f470 f i session.obj
 0001:0004e480       ?wait_duration_msec@?$timer_queue@Uforwarding_posix_time_traits@detail@asio@boost@@@detail@asio@boost@@UBEJJ@Z 0044f480 f i session.obj
 0001:0004e500       ?wait_duration_usec@?$timer_queue@U?$time_traits@Vptime@posix_time@boost@@@asio@boost@@@detail@asio@boost@@UBEJJ@Z 0044f500 f i session.obj
 0001:0004e510       ?wait_duration_usec@?$timer_queue@Uforwarding_posix_time_traits@detail@asio@boost@@@detail@asio@boost@@UBEJJ@Z 0044f510 f i session.obj
 0001:0004e5a0       ?win_thread_function@detail@asio@boost@@YGIPAX@Z 0044f5a0 f i session.obj
 0001:0004e630       ??0CTaskService@@AAE@XZ    0044f630 f   task_service.obj
 0001:0004e670       ??1CTaskService@@EAE@XZ    0044f670 f   task_service.obj
 0001:0004e690       ??1IInternalService@@UAE@XZ 0044f690 f i task_service.obj
 0001:0004e6f0       ??_ECTaskService@@EAEPAXI@Z 0044f6f0 f i task_service.obj
 0001:0004e6f0       ??_GCTaskService@@EAEPAXI@Z 0044f6f0 f i task_service.obj
 0001:0004e730       ??_GIInternalService@@UAEPAXI@Z 0044f730 f i task_service.obj
 0001:0004e730       ??_EIInternalService@@UAEPAXI@Z 0044f730 f i task_service.obj
 0001:0004e770       ?CommitTask@CTaskService@@QAEXPAVQRunnable@@@Z 0044f770 f   task_service.obj
 0001:0004e7a0       ?DestroyInstance@CTaskService@@SAXXZ 0044f7a0 f   task_service.obj
 0001:0004e7d0       ?GetInstance@CTaskService@@SAPAV1@XZ 0044f7d0 f   task_service.obj
 0001:0004e870       ?GetServiceName@CTaskService@@UAE?AVQString@@XZ 0044f870 f   task_service.obj
 0001:0004e8a0       ?GetServiceName@IInternalService@@UAE?AVQString@@XZ 0044f8a0 f i task_service.obj
 0001:0004e8d0       ?IsStopSingalTriggered@IInternalService@@UAE_NXZ 0044f8d0 f i task_service.obj
 0001:0004e8e0       ?NotifyServiceToStop@CTaskService@@UAEHXZ 0044f8e0 f   task_service.obj
 0001:0004e8f0       ?NotifyServiceToStop@IInternalService@@UAEHXZ 0044f8f0 f i task_service.obj
 0001:0004e900       ?StartInternalService@CTaskService@@UAEHXZ 0044f900 f   task_service.obj
 0001:0004e9a0       ?StopInternalService@CTaskService@@UAEHXZ 0044f9a0 f   task_service.obj
 0001:0004e9c0       ??0server_manager@@AAE@XZ  0044f9c0 f   server_manager.obj
 0001:0004e9d0       ?GetInstance@server_manager@@SAPAV1@XZ 0044f9d0 f   server_manager.obj
 0001:0004ea20       ?run@MyQuitThread@@UAEXXZ  0044fa20 f   server_manager.obj
 0001:0004ea50       ?start_server@server_manager@@QAE_NXZ 0044fa50 f   server_manager.obj
 0001:0004ef10       ?stop_server@server_manager@@QAEXXZ 0044ff10 f   server_manager.obj
 0001:0004efea       ??0QMessageLogger@@QAE@PBDH0@Z 0044ffea f   Qt5Core:Qt5Core.dll
 0001:0004eff0       ?debug@QMessageLogger@@QBAXPBDZZ 0044fff0 f   Qt5Core:Qt5Core.dll
 0001:0004eff6       ?debug@QMessageLogger@@QBE?AVQDebug@@XZ 0044fff6 f   Qt5Core:Qt5Core.dll
 0001:0004effc       ??0QChar@@QAE@UQLatin1Char@@@Z 0044fffc f   Qt5Core:Qt5Core.dll
 0001:0004f002       ??0QString@@QAE@XZ         00450002 f   Qt5Core:Qt5Core.dll
 0001:0004f008       ??0QString@@QAE@ABV0@@Z    00450008 f   Qt5Core:Qt5Core.dll
 0001:0004f00e       ??1QString@@QAE@XZ         0045000e f   Qt5Core:Qt5Core.dll
 0001:0004f014       ??4QString@@QAEAAV0@ABV0@@Z 00450014 f   Qt5Core:Qt5Core.dll
 0001:0004f01a       ??0QString@@QAE@$$QAV0@@Z  0045001a f   Qt5Core:Qt5Core.dll
 0001:0004f020       ??4QString@@QAEAAV0@$$QAV0@@Z 00450020 f   Qt5Core:Qt5Core.dll
 0001:0004f026       ?arg@QString@@QBE?AV1@ABV1@HVQChar@@@Z 00450026 f   Qt5Core:Qt5Core.dll
 0001:0004f02c       ?right@QString@@QBE?AV1@H@Z 0045002c f   Qt5Core:Qt5Core.dll
 0001:0004f032       ?mid@QString@@QBE?AV1@HH@Z 00450032 f   Qt5Core:Qt5Core.dll
 0001:0004f038       ?append@QString@@QAEAAV1@ABV1@@Z 00450038 f   Qt5Core:Qt5Core.dll
 0001:0004f03e       ?fromUtf8@QString@@SA?AV1@PBDH@Z 0045003e f   Qt5Core:Qt5Core.dll
 0001:0004f044       ?toInt@QString@@QBEHPA_NH@Z 00450044 f   Qt5Core:Qt5Core.dll
 0001:0004f04a       ??8@YA_NABVQString@@0@Z    0045004a f   Qt5Core:Qt5Core.dll
 0001:0004f050       ??M@YA_NABVQString@@0@Z    00450050 f   Qt5Core:Qt5Core.dll
 0001:0004f056       ??4QString@@QAEAAV0@PBD@Z  00450056 f   Qt5Core:Qt5Core.dll
 0001:0004f05c       ??4QString@@QAEAAV0@D@Z    0045005c f   Qt5Core:Qt5Core.dll
 0001:0004f062       ??8QString@@QBE_NPBD@Z     00450062 f   Qt5Core:Qt5Core.dll
 0001:0004f068       ?fromAscii_helper@QString@@CAPAU?$QTypedArrayData@G@@PBDH@Z 00450068 f   Qt5Core:Qt5Core.dll
 0001:0004f06e       ?detach@QListData@@QAEPAUData@1@H@Z 0045006e f   Qt5Core:Qt5Core.dll
 0001:0004f074       ?detach_grow@QListData@@QAEPAUData@1@PAHH@Z 00450074 f   Qt5Core:Qt5Core.dll
 0001:0004f07a       ?dispose@QListData@@SAXPAUData@1@@Z 0045007a f   Qt5Core:Qt5Core.dll
 0001:0004f080       ?erase@QListData@@QAEPAPAXPAPAX@Z 00450080 f   Qt5Core:Qt5Core.dll
 0001:0004f086       ?append@QListData@@QAEPAPAXXZ 00450086 f   Qt5Core:Qt5Core.dll
 0001:0004f08c       ?size@QListData@@QBEHXZ    0045008c f   Qt5Core:Qt5Core.dll
 0001:0004f092       ?isEmpty@QListData@@QBE_NXZ 00450092 f   Qt5Core:Qt5Core.dll
 0001:0004f098       ?at@QListData@@QBEPAPAXH@Z 00450098 f   Qt5Core:Qt5Core.dll
 0001:0004f09e       ?begin@QListData@@QBEPAPAXXZ 0045009e f   Qt5Core:Qt5Core.dll
 0001:0004f0a4       ?end@QListData@@QBEPAPAXXZ 004500a4 f   Qt5Core:Qt5Core.dll
 0001:0004f0aa       ??1QDateTime@@QAE@XZ       004500aa f   Qt5Core:Qt5Core.dll
 0001:0004f0b0       ?toString@QDateTime@@QBE?AVQString@@ABV2@@Z 004500b0 f   Qt5Core:Qt5Core.dll
 0001:0004f0b6       ?currentDateTime@QDateTime@@SA?AV1@XZ 004500b6 f   Qt5Core:Qt5Core.dll
 0001:0004f0bc       ?nextNode@QMapNodeBase@@QBEPBU1@XZ 004500bc f   Qt5Core:Qt5Core.dll
 0001:0004f0c2       ?freeNodeAndRebalance@QMapDataBase@@QAEXPAUQMapNodeBase@@@Z 004500c2 f   Qt5Core:Qt5Core.dll
 0001:0004f0c8       ?recalcMostLeftNode@QMapDataBase@@QAEXXZ 004500c8 f   Qt5Core:Qt5Core.dll
 0001:0004f0ce       ?createNode@QMapDataBase@@QAEPAUQMapNodeBase@@HHPAU2@_N@Z 004500ce f   Qt5Core:Qt5Core.dll
 0001:0004f0d4       ?freeTree@QMapDataBase@@QAEXPAUQMapNodeBase@@H@Z 004500d4 f   Qt5Core:Qt5Core.dll
 0001:0004f0da       ?createData@QMapDataBase@@SAPAU1@XZ 004500da f   Qt5Core:Qt5Core.dll
 0001:0004f0e0       ?freeData@QMapDataBase@@SAXPAU1@@Z 004500e0 f   Qt5Core:Qt5Core.dll
 0001:0004f0e6       ??1QDebug@@QAE@XZ          004500e6 f   Qt5Core:Qt5Core.dll
 0001:0004f0ec       ??6QDebug@@QAEAAV0@H@Z     004500ec f   Qt5Core:Qt5Core.dll
 0001:0004f0f2       ?activate@QMetaObject@@SAXPAVQObject@@PBU1@HPAPAX@Z 004500f2 f   Qt5Core:Qt5Core.dll
 0001:0004f0f8       ?dynamicMetaObject@QObjectData@@QBEPAUQMetaObject@@XZ 004500f8 f   Qt5Core:Qt5Core.dll
 0001:0004f0fe       ?qt_metacast@QThread@@UAEPAXPBD@Z 004500fe f   Qt5Core:Qt5Core.dll
 0001:0004f104       ?qt_metacall@QThread@@UAEHW4Call@QMetaObject@@HPAPAX@Z 00450104 f   Qt5Core:Qt5Core.dll
 0001:0004f10a       ?qt_metacast@QObject@@UAEPAXPBD@Z 0045010a f   Qt5Core:Qt5Core.dll
 0001:0004f110       ?qt_metacall@QObject@@UAEHW4Call@QMetaObject@@HPAPAX@Z 00450110 f   Qt5Core:Qt5Core.dll
 0001:0004f116       ?connectSlotsByName@QMetaObject@@SAXPAVQObject@@@Z 00450116 f   Qt5Core:Qt5Core.dll
 0001:0004f11c       ??1Connection@QMetaObject@@QAE@XZ 0045011c f   Qt5Core:Qt5Core.dll
 0001:0004f122       ?objectName@QObject@@QBE?AVQString@@XZ 00450122 f   Qt5Core:Qt5Core.dll
 0001:0004f128       ?setObjectName@QObject@@QAEXABVQString@@@Z 00450128 f   Qt5Core:Qt5Core.dll
 0001:0004f12e       ?connectImpl@QObject@@CA?AVConnection@QMetaObject@@PBV1@PAPAX01PAVQSlotObjectBase@QtPrivate@@W4ConnectionType@Qt@@PBHPBU3@@Z 0045012e f   Qt5Core:Qt5Core.dll
 0001:0004f134       ??0QSize@@QAE@HH@Z         00450134 f   Qt5Core:Qt5Core.dll
 0001:0004f13a       ??0QRect@@QAE@HHHH@Z       0045013a f   Qt5Core:Qt5Core.dll
 0001:0004f140       ??1QVariant@@QAE@XZ        00450140 f   Qt5Core:Qt5Core.dll
 0001:0004f146       ??0QVariant@@QAE@ABVQString@@@Z 00450146 f   Qt5Core:Qt5Core.dll
 0001:0004f14c       ??0QEventLoop@@QAE@PAVQObject@@@Z 0045014c f   Qt5Core:Qt5Core.dll
 0001:0004f152       ??1QEventLoop@@UAE@XZ      00450152 f   Qt5Core:Qt5Core.dll
 0001:0004f158       ?exec@QEventLoop@@QAEHV?$QFlags@W4ProcessEventsFlag@QEventLoop@@@@@Z 00450158 f   Qt5Core:Qt5Core.dll
 0001:0004f15e       ?quit@QEventLoop@@QAEXXZ   0045015e f   Qt5Core:Qt5Core.dll
 0001:0004f164       ?translate@QCoreApplication@@SA?AVQString@@PBD00H@Z 00450164 f   Qt5Core:Qt5Core.dll
 0001:0004f16a       ??0QModelIndex@@QAE@XZ     0045016a f   Qt5Core:Qt5Core.dll
 0001:0004f170       ?row@QModelIndex@@QBEHXZ   00450170 f   Qt5Core:Qt5Core.dll
 0001:0004f176       ?removeRow@QAbstractItemModel@@QAE_NHABVQModelIndex@@@Z 00450176 f   Qt5Core:Qt5Core.dll
 0001:0004f17c       ??0QThread@@QAE@PAVQObject@@@Z 0045017c f   Qt5Core:Qt5Core.dll
 0001:0004f182       ??1QThread@@UAE@XZ         00450182 f   Qt5Core:Qt5Core.dll
 0001:0004f188       ?start@QThread@@QAEXW4Priority@1@@Z 00450188 f   Qt5Core:Qt5Core.dll
 0001:0004f18e       ?wait@QThread@@QAE_NK@Z    0045018e f   Qt5Core:Qt5Core.dll
 0001:0004f194       ?finished@QThread@@QAEXUQPrivateSignal@1@@Z 00450194 f   Qt5Core:Qt5Core.dll
 0001:0004f19a       ??0QStringListModel@@QAE@PAVQObject@@@Z 0045019a f   Qt5Core:Qt5Core.dll
 0001:0004f1a0       ??1QStringListModel@@UAE@XZ 004501a0 f   Qt5Core:Qt5Core.dll
 0001:0004f1a6       ?buddy@QAbstractItemModel@@UBE?AVQModelIndex@@ABV2@@Z 004501a6 f   Qt5Core:Qt5Core.dll
 0001:0004f1ac       ?canDropMimeData@QAbstractItemModel@@UBE_NPBVQMimeData@@W4DropAction@Qt@@HHABVQModelIndex@@@Z 004501ac f   Qt5Core:Qt5Core.dll
 0001:0004f1b2       ?canFetchMore@QAbstractItemModel@@UBE_NABVQModelIndex@@@Z 004501b2 f   Qt5Core:Qt5Core.dll
 0001:0004f1b8       ?childEvent@QObject@@MAEXPAVQChildEvent@@@Z 004501b8 f   Qt5Core:Qt5Core.dll
 0001:0004f1be       ?columnCount@QAbstractListModel@@EBEHABVQModelIndex@@@Z 004501be f   Qt5Core:Qt5Core.dll
 0001:0004f1c4       ?connectNotify@QObject@@MAEXABVQMetaMethod@@@Z 004501c4 f   Qt5Core:Qt5Core.dll
 0001:0004f1ca       ?customEvent@QObject@@MAEXPAVQEvent@@@Z 004501ca f   Qt5Core:Qt5Core.dll
 0001:0004f1d0       ?data@QStringListModel@@UBE?AVQVariant@@ABVQModelIndex@@H@Z 004501d0 f   Qt5Core:Qt5Core.dll
 0001:0004f1d6       ?disconnectNotify@QObject@@MAEXABVQMetaMethod@@@Z 004501d6 f   Qt5Core:Qt5Core.dll
 0001:0004f1dc       ?dropMimeData@QAbstractListModel@@UAE_NPBVQMimeData@@W4DropAction@Qt@@HHABVQModelIndex@@@Z 004501dc f   Qt5Core:Qt5Core.dll
 0001:0004f1e2       ?event@QObject@@UAE_NPAVQEvent@@@Z 004501e2 f   Qt5Core:Qt5Core.dll
 0001:0004f1e8       ?event@QThread@@UAE_NPAVQEvent@@@Z 004501e8 f   Qt5Core:Qt5Core.dll
 0001:0004f1ee       ?eventFilter@QObject@@UAE_NPAV1@PAVQEvent@@@Z 004501ee f   Qt5Core:Qt5Core.dll
 0001:0004f1f4       ?fetchMore@QAbstractItemModel@@UAEXABVQModelIndex@@@Z 004501f4 f   Qt5Core:Qt5Core.dll
 0001:0004f1fa       ?flags@QStringListModel@@UBE?AV?$QFlags@W4ItemFlag@Qt@@@@ABVQModelIndex@@@Z 004501fa f   Qt5Core:Qt5Core.dll
 0001:0004f200       ?hasChildren@QAbstractListModel@@EBE_NABVQModelIndex@@@Z 00450200 f   Qt5Core:Qt5Core.dll
 0001:0004f206       ?headerData@QAbstractItemModel@@UBE?AVQVariant@@HW4Orientation@Qt@@H@Z 00450206 f   Qt5Core:Qt5Core.dll
 0001:0004f20c       ?index@QAbstractListModel@@UBE?AVQModelIndex@@HHABV2@@Z 0045020c f   Qt5Core:Qt5Core.dll
 0001:0004f212       ?insertColumns@QAbstractItemModel@@UAE_NHHABVQModelIndex@@@Z 00450212 f   Qt5Core:Qt5Core.dll
 0001:0004f218       ?insertRows@QStringListModel@@UAE_NHHABVQModelIndex@@@Z 00450218 f   Qt5Core:Qt5Core.dll
 0001:0004f21e       ?itemData@QAbstractItemModel@@UBE?AV?$QMap@HVQVariant@@@@ABVQModelIndex@@@Z 0045021e f   Qt5Core:Qt5Core.dll
 0001:0004f224       ?match@QAbstractItemModel@@UBE?AV?$QList@VQModelIndex@@@@ABVQModelIndex@@HABVQVariant@@HV?$QFlags@W4MatchFlag@Qt@@@@@Z 00450224 f   Qt5Core:Qt5Core.dll
 0001:0004f22a       ?metaObject@QStringListModel@@UBEPBUQMetaObject@@XZ 0045022a f   Qt5Core:Qt5Core.dll
 0001:0004f230       ?mimeData@QAbstractItemModel@@UBEPAVQMimeData@@ABV?$QList@VQModelIndex@@@@@Z 00450230 f   Qt5Core:Qt5Core.dll
 0001:0004f236       ?mimeTypes@QAbstractItemModel@@UBE?AVQStringList@@XZ 00450236 f   Qt5Core:Qt5Core.dll
 0001:0004f23c       ?moveColumns@QAbstractItemModel@@UAE_NABVQModelIndex@@HH0H@Z 0045023c f   Qt5Core:Qt5Core.dll
 0001:0004f242       ?moveRows@QAbstractItemModel@@UAE_NABVQModelIndex@@HH0H@Z 00450242 f   Qt5Core:Qt5Core.dll
 0001:0004f248       ?parent@QAbstractListModel@@EBE?AVQModelIndex@@ABV2@@Z 00450248 f   Qt5Core:Qt5Core.dll
 0001:0004f24e       ?qt_metacall@QStringListModel@@UAEHW4Call@QMetaObject@@HPAPAX@Z 0045024e f   Qt5Core:Qt5Core.dll
 0001:0004f254       ?qt_metacast@QStringListModel@@UAEPAXPBD@Z 00450254 f   Qt5Core:Qt5Core.dll
 0001:0004f25a       ?removeColumns@QAbstractItemModel@@UAE_NHHABVQModelIndex@@@Z 0045025a f   Qt5Core:Qt5Core.dll
 0001:0004f260       ?removeRows@QStringListModel@@UAE_NHHABVQModelIndex@@@Z 00450260 f   Qt5Core:Qt5Core.dll
 0001:0004f266       ?revert@QAbstractItemModel@@UAEXXZ 00450266 f   Qt5Core:Qt5Core.dll
 0001:0004f26c       ?roleNames@QAbstractItemModel@@UBE?AV?$QHash@HVQByteArray@@@@XZ 0045026c f   Qt5Core:Qt5Core.dll
 0001:0004f272       ?rowCount@QStringListModel@@UBEHABVQModelIndex@@@Z 00450272 f   Qt5Core:Qt5Core.dll
 0001:0004f278       ?setData@QStringListModel@@UAE_NABVQModelIndex@@ABVQVariant@@H@Z 00450278 f   Qt5Core:Qt5Core.dll
 0001:0004f27e       ?setHeaderData@QAbstractItemModel@@UAE_NHW4Orientation@Qt@@ABVQVariant@@H@Z 0045027e f   Qt5Core:Qt5Core.dll
 0001:0004f284       ?setItemData@QAbstractItemModel@@UAE_NABVQModelIndex@@ABV?$QMap@HVQVariant@@@@@Z 00450284 f   Qt5Core:Qt5Core.dll
 0001:0004f28a       ?sibling@QStringListModel@@UBE?AVQModelIndex@@HHABV2@@Z 0045028a f   Qt5Core:Qt5Core.dll
 0001:0004f290       ?sort@QStringListModel@@UAEXHW4SortOrder@Qt@@@Z 00450290 f   Qt5Core:Qt5Core.dll
 0001:0004f296       ?span@QAbstractItemModel@@UBE?AVQSize@@ABVQModelIndex@@@Z 00450296 f   Qt5Core:Qt5Core.dll
 0001:0004f29c       ?submit@QAbstractItemModel@@UAE_NXZ 0045029c f   Qt5Core:Qt5Core.dll
 0001:0004f2a2       ?supportedDragActions@QAbstractItemModel@@UBE?AV?$QFlags@W4DropAction@Qt@@@@XZ 004502a2 f   Qt5Core:Qt5Core.dll
 0001:0004f2a8       ?supportedDropActions@QStringListModel@@UBE?AV?$QFlags@W4DropAction@Qt@@@@XZ 004502a8 f   Qt5Core:Qt5Core.dll
 0001:0004f2ae       ?timerEvent@QObject@@MAEXPAVQTimerEvent@@@Z 004502ae f   Qt5Core:Qt5Core.dll
 0001:0004f2b4       ?constData@QString@@QBEPBVQChar@@XZ 004502b4 f   Qt5Core:Qt5Core.dll
 0001:0004f2ba       ?arg@QString@@QBE?AV1@KHHVQChar@@@Z 004502ba f   Qt5Core:Qt5Core.dll
 0001:0004f2c0       ?arg@QString@@QBE?AV1@HHHVQChar@@@Z 004502c0 f   Qt5Core:Qt5Core.dll
 0001:0004f2c6       ?fromLocal8Bit@QString@@SA?AV1@PBDH@Z 004502c6 f   Qt5Core:Qt5Core.dll
 0001:0004f2cc       ?toWCharArray@QString@@QBEHPA_W@Z 004502cc f   Qt5Core:Qt5Core.dll
 0001:0004f2d2       ?compare_helper@QString@@CAHPBVQChar@@HPBDHW4CaseSensitivity@Qt@@@Z 004502d2 f   Qt5Core:Qt5Core.dll
 0001:0004f2d8       ??6QDebug@@QAEAAV0@ABVQString@@@Z 004502d8 f   Qt5Core:Qt5Core.dll
 0001:0004f2de       ??0QDir@@QAE@ABVQString@@@Z 004502de f   Qt5Core:Qt5Core.dll
 0001:0004f2e4       ??1QDir@@QAE@XZ            004502e4 f   Qt5Core:Qt5Core.dll
 0001:0004f2ea       ?mkdir@QDir@@QBE_NABVQString@@@Z 004502ea f   Qt5Core:Qt5Core.dll
 0001:0004f2f0       ?exists@QDir@@QBE_NXZ      004502f0 f   Qt5Core:Qt5Core.dll
 0001:0004f2f6       ?arg@QString@@QBE?AV1@IHHVQChar@@@Z 004502f6 f   Qt5Core:Qt5Core.dll
 0001:0004f2fc       ?arg@QString@@QBE?AV1@NHDHVQChar@@@Z 004502fc f   Qt5Core:Qt5Core.dll
 0001:0004f302       ?arg@QString@@QBE?AV1@ABV1@00@Z 00450302 f   Qt5Core:Qt5Core.dll
 0001:0004f308       ?split@QString@@QBE?AVQStringList@@ABV1@W4SplitBehavior@1@W4CaseSensitivity@Qt@@@Z 00450308 f   Qt5Core:Qt5Core.dll
 0001:0004f30e       ?toDouble@QString@@QBENPA_N@Z 0045030e f   Qt5Core:Qt5Core.dll
 0001:0004f314       ?number@QString@@SA?AV1@NDH@Z 00450314 f   Qt5Core:Qt5Core.dll
 0001:0004f31a       ??6QDebug@@QAEAAV0@PBD@Z   0045031a f   Qt5Core:Qt5Core.dll
 0001:0004f320       ?toString@QTime@@QBE?AVQString@@ABV2@@Z 00450320 f   Qt5Core:Qt5Core.dll
 0001:0004f326       ?currentTime@QTime@@SA?AV1@XZ 00450326 f   Qt5Core:Qt5Core.dll
 0001:0004f32c       ?start@QTime@@QAEXXZ       0045032c f   Qt5Core:Qt5Core.dll
 0001:0004f332       ?elapsed@QTime@@QBEHXZ     00450332 f   Qt5Core:Qt5Core.dll
 0001:0004f338       ?toTime_t@QDateTime@@QBEIXZ 00450338 f   Qt5Core:Qt5Core.dll
 0001:0004f33e       ?metaObject@QThread@@UBEPBUQMetaObject@@XZ 0045033e f   Qt5Core:Qt5Core.dll
 0001:0004f344       ?arg@QString@@QBE?AV1@GHHVQChar@@@Z 00450344 f   Qt5Core:Qt5Core.dll
 0001:0004f34a       ?toStdString@QString@@QBE?AV?$basic_string@DU?$char_traits@D@std@@V?$allocator@D@2@@std@@XZ 0045034a f   Qt5Core:Qt5Core.dll
 0001:0004f350       ?quit@QThread@@QAEXXZ      00450350 f   Qt5Core:Qt5Core.dll
 0001:0004f356       ?msleep@QThread@@SAXK@Z    00450356 f   Qt5Core:Qt5Core.dll
 0001:0004f35c       ??0QLibrary@@QAE@ABVQString@@PAVQObject@@@Z 0045035c f   Qt5Core:Qt5Core.dll
 0001:0004f362       ??1QLibrary@@UAE@XZ        00450362 f   Qt5Core:Qt5Core.dll
 0001:0004f368       ?resolve@QLibrary@@QAEP6AXXZPBD@Z 00450368 f   Qt5Core:Qt5Core.dll
 0001:0004f36e       ?load@QLibrary@@QAE_NXZ    0045036e f   Qt5Core:Qt5Core.dll
 0001:0004f374       ?errorString@QLibrary@@QBE?AVQString@@XZ 00450374 f   Qt5Core:Qt5Core.dll
 0001:0004f37a       ??0QMutex@@QAE@W4RecursionMode@0@@Z 0045037a f   Qt5Core:Qt5Core.dll
 0001:0004f380       ??1QMutex@@QAE@XZ          00450380 f   Qt5Core:Qt5Core.dll
 0001:0004f386       ??0QWaitCondition@@QAE@XZ  00450386 f   Qt5Core:Qt5Core.dll
 0001:0004f38c       ??1QWaitCondition@@QAE@XZ  0045038c f   Qt5Core:Qt5Core.dll
 0001:0004f392       ?wakeAll@QWaitCondition@@QAEXXZ 00450392 f   Qt5Core:Qt5Core.dll
 0001:0004f398       ?metaObject@QLibrary@@UBEPBUQMetaObject@@XZ 00450398 f   Qt5Core:Qt5Core.dll
 0001:0004f39e       ?qt_metacall@QLibrary@@UAEHW4Call@QMetaObject@@HPAPAX@Z 0045039e f   Qt5Core:Qt5Core.dll
 0001:0004f3a4       ?qt_metacast@QLibrary@@UAEPAXPBD@Z 004503a4 f   Qt5Core:Qt5Core.dll
 0001:0004f3aa       ?left@QString@@QBE?AV1@H@Z 004503aa f   Qt5Core:Qt5Core.dll
 0001:0004f3b0       ??0QVariant@@QAE@XZ        004503b0 f   Qt5Core:Qt5Core.dll
 0001:0004f3b6       ?toInt@QVariant@@QBEHPA_N@Z 004503b6 f   Qt5Core:Qt5Core.dll
 0001:0004f3bc       ?toString@QVariant@@QBE?AVQString@@XZ 004503bc f   Qt5Core:Qt5Core.dll
 0001:0004f3c2       ??0QSettings@@QAE@ABVQString@@W4Format@0@PAVQObject@@@Z 004503c2 f   Qt5Core:Qt5Core.dll
 0001:0004f3c8       ??1QSettings@@UAE@XZ       004503c8 f   Qt5Core:Qt5Core.dll
 0001:0004f3ce       ?value@QSettings@@QBE?AVQVariant@@ABVQString@@ABV2@@Z 004503ce f   Qt5Core:Qt5Core.dll
 0001:0004f3d4       ?realloc@QListData@@QAEXH@Z 004503d4 f   Qt5Core:Qt5Core.dll
 0001:0004f3da       ?fromStdString@QString@@SA?AV1@ABV?$basic_string@DU?$char_traits@D@std@@V?$allocator@D@2@@std@@@Z 004503da f   Qt5Core:Qt5Core.dll
 0001:0004f3e0       ?remove@QListData@@QAEXH@Z 004503e0 f   Qt5Core:Qt5Core.dll
 0001:0004f3e6       ?lock@QMutex@@QAEXXZ       004503e6 f   Qt5Core:Qt5Core.dll
 0001:0004f3ec       ??1QMutexLocker@@QAE@XZ    004503ec f   Qt5Core:Qt5Core.dll
 0001:0004f3f2       ?wait@QWaitCondition@@QAE_NPAVQMutex@@K@Z 004503f2 f   Qt5Core:Qt5Core.dll
 0001:0004f3f8       ?wakeOne@QWaitCondition@@QAEXXZ 004503f8 f   Qt5Core:Qt5Core.dll
 0001:0004f3fe       ??1QByteArray@@QAE@XZ      004503fe f   Qt5Core:Qt5Core.dll
 0001:0004f404       ?toLocal8Bit@QString@@QHAE?AVQByteArray@@XZ 00450404 f   Qt5Core:Qt5Core.dll
 0001:0004f40a       ??0QString@@QAE@ABVQByteArray@@@Z 0045040a f   Qt5Core:Qt5Core.dll
 0001:0004f410       ??0QObject@@QAE@PAV0@@Z    00450410 f   Qt5Core:Qt5Core.dll
 0001:0004f416       ??1QObject@@UAE@XZ         00450416 f   Qt5Core:Qt5Core.dll
 0001:0004f41c       ??6QTextStream@@QAEAAV0@D@Z 0045041c f   Qt5Core:Qt5Core.dll
 0001:0004f422       ??6QDebug@@QAEAAV0@D@Z     00450422 f   Qt5Core:Qt5Core.dll
 0001:0004f428       ??6QDebug@@QAEAAV0@PBX@Z   00450428 f   Qt5Core:Qt5Core.dll
 0001:0004f42e       ?currentThreadId@QThread@@SAPAXXZ 0045042e f   Qt5Core:Qt5Core.dll
 0001:0004f434       ??0QTimer@@QAE@PAVQObject@@@Z 00450434 f   Qt5Core:Qt5Core.dll
 0001:0004f43a       ??1QTimer@@UAE@XZ          0045043a f   Qt5Core:Qt5Core.dll
 0001:0004f440       ?start@QTimer@@QAEXH@Z     00450440 f   Qt5Core:Qt5Core.dll
 0001:0004f446       ?timeout@QTimer@@QAEXUQPrivateSignal@1@@Z 00450446 f   Qt5Core:Qt5Core.dll
 0001:0004f44c       ?libraryPaths@QCoreApplication@@SA?AVQStringList@@XZ 0045044c f   Qt5Core:Qt5Core.dll
 0001:0004f452       ?qInstallMessageHandler@@YAP6AXW4QtMsgType@@ABVQMessageLogContext@@ABVQString@@@ZP6AX012@Z@Z 00450452 f   Qt5Core:Qt5Core.dll
 0001:0004f458       ?unlock@QMutex@@QAEXXZ     00450458 f   Qt5Core:Qt5Core.dll
 0001:0004f45e       ?close@QFileDevice@@UAEXXZ 0045045e f   Qt5Core:Qt5Core.dll
 0001:0004f464       ?flush@QFileDevice@@QAE_NXZ 00450464 f   Qt5Core:Qt5Core.dll
 0001:0004f46a       ??0QFile@@QAE@ABVQString@@@Z 0045046a f   Qt5Core:Qt5Core.dll
 0001:0004f470       ??1QFile@@UAE@XZ           00450470 f   Qt5Core:Qt5Core.dll
 0001:0004f476       ?exists@QFile@@QBE_NXZ     00450476 f   Qt5Core:Qt5Core.dll
 0001:0004f47c       ?open@QFile@@UAE_NV?$QFlags@W4OpenModeFlag@QIODevice@@@@@Z 0045047c f   Qt5Core:Qt5Core.dll
 0001:0004f482       ??0QTextStream@@QAE@PAVQIODevice@@@Z 00450482 f   Qt5Core:Qt5Core.dll
 0001:0004f488       ??1QTextStream@@UAE@XZ     00450488 f   Qt5Core:Qt5Core.dll
 0001:0004f48e       ??6QTextStream@@QAEAAV0@ABVQString@@@Z 0045048e f   Qt5Core:Qt5Core.dll
 0001:0004f494       ??6QTextStream@@QAEAAV0@PBD@Z 00450494 f   Qt5Core:Qt5Core.dll
 0001:0004f49a       ?mkpath@QDir@@QBE_NABVQString@@@Z 0045049a f   Qt5Core:Qt5Core.dll
 0001:0004f4a0       ??0QByteArray@@QAE@XZ      004504a0 f   Qt5Core:Qt5Core.dll
 0001:0004f4a6       ??4QByteArray@@QAEAAV0@$$QAV0@@Z 004504a6 f   Qt5Core:Qt5Core.dll
 0001:0004f4ac       ?data@QByteArray@@QAEPADXZ 004504ac f   Qt5Core:Qt5Core.dll
 0001:0004f4b2       ?toLatin1@QString@@QGBE?AVQByteArray@@XZ 004504b2 f   Qt5Core:Qt5Core.dll
 0001:0004f4b8       ?qsrand@@YAXI@Z            004504b8 f   Qt5Core:Qt5Core.dll
 0001:0004f4be       ?globalInstance@QThreadPool@@SAPAV1@XZ 004504be f   Qt5Core:Qt5Core.dll
 0001:0004f4c4       ?start@QThreadPool@@QAEXPAVQRunnable@@H@Z 004504c4 f   Qt5Core:Qt5Core.dll
 0001:0004f4ca       ?setExpiryTimeout@QThreadPool@@QAEXH@Z 004504ca f   Qt5Core:Qt5Core.dll
 0001:0004f4d0       ?maxThreadCount@QThreadPool@@QBEHXZ 004504d0 f   Qt5Core:Qt5Core.dll
 0001:0004f4d6       ?setMaxThreadCount@QThreadPool@@QAEXH@Z 004504d6 f   Qt5Core:Qt5Core.dll
 0001:0004f4dc       ?waitForDone@QThreadPool@@QAE_NH@Z 004504dc f   Qt5Core:Qt5Core.dll
 0001:0004f4e2       ?second@QTime@@QBEHXZ      004504e2 f   Qt5Core:Qt5Core.dll
 0001:0004f4e8       ?msec@QTime@@QBEHXZ        004504e8 f   Qt5Core:Qt5Core.dll
 0001:0004f4ee       ?applicationDirPath@QCoreApplication@@SA?AVQString@@XZ 004504ee f   Qt5Core:Qt5Core.dll
 0001:0004f4f4       ?qt_metacast@QMainWindow@@UAEPAXPBD@Z 004504f4 f   Qt5Widgets:Qt5Widgets.dll
 0001:0004f4fa       ?qt_metacall@QMainWindow@@UAEHW4Call@QMetaObject@@HPAPAX@Z 004504fa f   Qt5Widgets:Qt5Widgets.dll
 0001:0004f500       ??0QWidget@@QAE@PAV0@V?$QFlags@W4WindowType@Qt@@@@@Z 00450500 f   Qt5Widgets:Qt5Widgets.dll
 0001:0004f506       ??1QWidget@@UAE@XZ         00450506 f   Qt5Widgets:Qt5Widgets.dll
 0001:0004f50c       ?setMaximumSize@QWidget@@QAEXABVQSize@@@Z 0045050c f   Qt5Widgets:Qt5Widgets.dll
 0001:0004f512       ?setWindowTitle@QWidget@@QAEXABVQString@@@Z 00450512 f   Qt5Widgets:Qt5Widgets.dll
 0001:0004f518       ?close@QWidget@@QAE_NXZ    00450518 f   Qt5Widgets:Qt5Widgets.dll
 0001:0004f51e       ?resize@QWidget@@QAEXHH@Z  0045051e f   Qt5Widgets:Qt5Widgets.dll
 0001:0004f524       ?setGeometry@QWidget@@QAEXABVQRect@@@Z 00450524 f   Qt5Widgets:Qt5Widgets.dll
 0001:0004f52a       ??0QMainWindow@@QAE@PAVQWidget@@V?$QFlags@W4WindowType@Qt@@@@@Z 0045052a f   Qt5Widgets:Qt5Widgets.dll
 0001:0004f530       ??1QMainWindow@@UAE@XZ     00450530 f   Qt5Widgets:Qt5Widgets.dll
 0001:0004f536       ?setMenuBar@QMainWindow@@QAEXPAVQMenuBar@@@Z 00450536 f   Qt5Widgets:Qt5Widgets.dll
 0001:0004f53c       ?setStatusBar@QMainWindow@@QAEXPAVQStatusBar@@@Z 0045053c f   Qt5Widgets:Qt5Widgets.dll
 0001:0004f542       ?setCentralWidget@QMainWindow@@QAEXPAVQWidget@@@Z 00450542 f   Qt5Widgets:Qt5Widgets.dll
 0001:0004f548       ?addToolBar@QMainWindow@@QAEXW4ToolBarArea@Qt@@PAVQToolBar@@@Z 00450548 f   Qt5Widgets:Qt5Widgets.dll
 0001:0004f54e       ?currentIndex@QAbstractItemView@@QBE?AVQModelIndex@@XZ 0045054e f   Qt5Widgets:Qt5Widgets.dll
 0001:0004f554       ?setCurrentIndex@QAbstractItemView@@QAEXABVQModelIndex@@@Z 00450554 f   Qt5Widgets:Qt5Widgets.dll
 0001:0004f55a       ??0QListView@@QAE@PAVQWidget@@@Z 0045055a f   Qt5Widgets:Qt5Widgets.dll
 0001:0004f560       ??1QListView@@UAE@XZ       00450560 f   Qt5Widgets:Qt5Widgets.dll
 0001:0004f566       ??0QMenuBar@@QAE@PAVQWidget@@@Z 00450566 f   Qt5Widgets:Qt5Widgets.dll
 0001:0004f56c       ??1QMenuBar@@UAE@XZ        0045056c f   Qt5Widgets:Qt5Widgets.dll
 0001:0004f572       ?setText@QAbstractButton@@QAEXABVQString@@@Z 00450572 f   Qt5Widgets:Qt5Widgets.dll
 0001:0004f578       ??0QPushButton@@QAE@PAVQWidget@@@Z 00450578 f   Qt5Widgets:Qt5Widgets.dll
 0001:0004f57e       ??1QPushButton@@UAE@XZ     0045057e f   Qt5Widgets:Qt5Widgets.dll
 0001:0004f584       ??0QStatusBar@@QAE@PAVQWidget@@@Z 00450584 f   Qt5Widgets:Qt5Widgets.dll
 0001:0004f58a       ??1QStatusBar@@UAE@XZ      0045058a f   Qt5Widgets:Qt5Widgets.dll
 0001:0004f590       ??0QToolBar@@QAE@PAVQWidget@@@Z 00450590 f   Qt5Widgets:Qt5Widgets.dll
 0001:0004f596       ??1QToolBar@@UAE@XZ        00450596 f   Qt5Widgets:Qt5Widgets.dll
 0001:0004f59c       ?actionEvent@QMenuBar@@MAEXPAVQActionEvent@@@Z 0045059c f   Qt5Widgets:Qt5Widgets.dll
 0001:0004f5a2       ?actionEvent@QToolBar@@MAEXPAVQActionEvent@@@Z 004505a2 f   Qt5Widgets:Qt5Widgets.dll
 0001:0004f5a8       ?actionEvent@QWidget@@MAEXPAVQActionEvent@@@Z 004505a8 f   Qt5Widgets:Qt5Widgets.dll
 0001:0004f5ae       ?changeEvent@QAbstractButton@@MAEXPAVQEvent@@@Z 004505ae f   Qt5Widgets:Qt5Widgets.dll
 0001:0004f5b4       ?changeEvent@QFrame@@MAEXPAVQEvent@@@Z 004505b4 f   Qt5Widgets:Qt5Widgets.dll
 0001:0004f5ba       ?changeEvent@QMenuBar@@MAEXPAVQEvent@@@Z 004505ba f   Qt5Widgets:Qt5Widgets.dll
 0001:0004f5c0       ?changeEvent@QToolBar@@MAEXPAVQEvent@@@Z 004505c0 f   Qt5Widgets:Qt5Widgets.dll
 0001:0004f5c6       ?changeEvent@QWidget@@MAEXPAVQEvent@@@Z 004505c6 f   Qt5Widgets:Qt5Widgets.dll
 0001:0004f5cc       ?checkStateSet@QAbstractButton@@MAEXXZ 004505cc f   Qt5Widgets:Qt5Widgets.dll
 0001:0004f5d2       ?closeEditor@QAbstractItemView@@MAEXPAVQWidget@@W4EndEditHint@QAbstractItemDelegate@@@Z 004505d2 f   Qt5Widgets:Qt5Widgets.dll
 0001:0004f5d8       ?closeEvent@QWidget@@MAEXPAVQCloseEvent@@@Z 004505d8 f   Qt5Widgets:Qt5Widgets.dll
 0001:0004f5de       ?commitData@QAbstractItemView@@MAEXPAVQWidget@@@Z 004505de f   Qt5Widgets:Qt5Widgets.dll
 0001:0004f5e4       ?contextMenuEvent@QAbstractScrollArea@@MAEXPAVQContextMenuEvent@@@Z 004505e4 f   Qt5Widgets:Qt5Widgets.dll
 0001:0004f5ea       ?contextMenuEvent@QMainWindow@@MAEXPAVQContextMenuEvent@@@Z 004505ea f   Qt5Widgets:Qt5Widgets.dll
 0001:0004f5f0       ?contextMenuEvent@QWidget@@MAEXPAVQContextMenuEvent@@@Z 004505f0 f   Qt5Widgets:Qt5Widgets.dll
 0001:0004f5f6       ?createPopupMenu@QMainWindow@@UAEPAVQMenu@@XZ 004505f6 f   Qt5Widgets:Qt5Widgets.dll
 0001:0004f5fc       ?currentChanged@QListView@@MAEXABVQModelIndex@@0@Z 004505fc f   Qt5Widgets:Qt5Widgets.dll
 0001:0004f602       ?dataChanged@QListView@@MAEXABVQModelIndex@@0ABV?$QVector@H@@@Z 00450602 f   Qt5Widgets:Qt5Widgets.dll
 0001:0004f608       ?devType@QWidget@@UBEHXZ   00450608 f   Qt5Widgets:Qt5Widgets.dll
 0001:0004f60e       ?doItemsLayout@QListView@@UAEXXZ 0045060e f   Qt5Widgets:Qt5Widgets.dll
 0001:0004f614       ?dragEnterEvent@QAbstractItemView@@MAEXPAVQDragEnterEvent@@@Z 00450614 f   Qt5Widgets:Qt5Widgets.dll
 0001:0004f61a       ?dragEnterEvent@QWidget@@MAEXPAVQDragEnterEvent@@@Z 0045061a f   Qt5Widgets:Qt5Widgets.dll
 0001:0004f620       ?dragLeaveEvent@QListView@@MAEXPAVQDragLeaveEvent@@@Z 00450620 f   Qt5Widgets:Qt5Widgets.dll
 0001:0004f626       ?dragLeaveEvent@QWidget@@MAEXPAVQDragLeaveEvent@@@Z 00450626 f   Qt5Widgets:Qt5Widgets.dll
 0001:0004f62c       ?dragMoveEvent@QListView@@MAEXPAVQDragMoveEvent@@@Z 0045062c f   Qt5Widgets:Qt5Widgets.dll
 0001:0004f632       ?dragMoveEvent@QWidget@@MAEXPAVQDragMoveEvent@@@Z 00450632 f   Qt5Widgets:Qt5Widgets.dll
 0001:0004f638       ?dropEvent@QListView@@MAEXPAVQDropEvent@@@Z 00450638 f   Qt5Widgets:Qt5Widgets.dll
 0001:0004f63e       ?dropEvent@QWidget@@MAEXPAVQDropEvent@@@Z 0045063e f   Qt5Widgets:Qt5Widgets.dll
 0001:0004f644       ?edit@QAbstractItemView@@MAE_NABVQModelIndex@@W4EditTrigger@1@PAVQEvent@@@Z 00450644 f   Qt5Widgets:Qt5Widgets.dll
 0001:0004f64a       ?editorDestroyed@QAbstractItemView@@MAEXPAVQObject@@@Z 0045064a f   Qt5Widgets:Qt5Widgets.dll
 0001:0004f650       ?enterEvent@QWidget@@MAEXPAVQEvent@@@Z 00450650 f   Qt5Widgets:Qt5Widgets.dll
 0001:0004f656       ?event@QListView@@MAE_NPAVQEvent@@@Z 00450656 f   Qt5Widgets:Qt5Widgets.dll
 0001:0004f65c       ?event@QMainWindow@@MAE_NPAVQEvent@@@Z 0045065c f   Qt5Widgets:Qt5Widgets.dll
 0001:0004f662       ?event@QMenuBar@@MAE_NPAVQEvent@@@Z 00450662 f   Qt5Widgets:Qt5Widgets.dll
 0001:0004f668       ?event@QPushButton@@MAE_NPAVQEvent@@@Z 00450668 f   Qt5Widgets:Qt5Widgets.dll
 0001:0004f66e       ?event@QStatusBar@@MAE_NPAVQEvent@@@Z 0045066e f   Qt5Widgets:Qt5Widgets.dll
 0001:0004f674       ?event@QToolBar@@MAE_NPAVQEvent@@@Z 00450674 f   Qt5Widgets:Qt5Widgets.dll
 0001:0004f67a       ?event@QWidget@@MAE_NPAVQEvent@@@Z 0045067a f   Qt5Widgets:Qt5Widgets.dll
 0001:0004f680       ?eventFilter@QAbstractScrollArea@@MAE_NPAVQObject@@PAVQEvent@@@Z 00450680 f   Qt5Widgets:Qt5Widgets.dll
 0001:0004f686       ?eventFilter@QMenuBar@@MAE_NPAVQObject@@PAVQEvent@@@Z 00450686 f   Qt5Widgets:Qt5Widgets.dll
 0001:0004f68c       ?focusInEvent@QAbstractItemView@@MAEXPAVQFocusEvent@@@Z 0045068c f   Qt5Widgets:Qt5Widgets.dll
 0001:0004f692       ?focusInEvent@QMenuBar@@MAEXPAVQFocusEvent@@@Z 00450692 f   Qt5Widgets:Qt5Widgets.dll
 0001:0004f698       ?focusInEvent@QPushButton@@MAEXPAVQFocusEvent@@@Z 00450698 f   Qt5Widgets:Qt5Widgets.dll
 0001:0004f69e       ?focusInEvent@QWidget@@MAEXPAVQFocusEvent@@@Z 0045069e f   Qt5Widgets:Qt5Widgets.dll
 0001:0004f6a4       ?focusNextPrevChild@QAbstractItemView@@MAE_N_N@Z 004506a4 f   Qt5Widgets:Qt5Widgets.dll
 0001:0004f6aa       ?focusNextPrevChild@QWidget@@MAE_N_N@Z 004506aa f   Qt5Widgets:Qt5Widgets.dll
 0001:0004f6b0       ?focusOutEvent@QAbstractItemView@@MAEXPAVQFocusEvent@@@Z 004506b0 f   Qt5Widgets:Qt5Widgets.dll
 0001:0004f6b6       ?focusOutEvent@QMenuBar@@MAEXPAVQFocusEvent@@@Z 004506b6 f   Qt5Widgets:Qt5Widgets.dll
 0001:0004f6bc       ?focusOutEvent@QPushButton@@MAEXPAVQFocusEvent@@@Z 004506bc f   Qt5Widgets:Qt5Widgets.dll
 0001:0004f6c2       ?focusOutEvent@QWidget@@MAEXPAVQFocusEvent@@@Z 004506c2 f   Qt5Widgets:Qt5Widgets.dll
 0001:0004f6c8       ?hasHeightForWidth@QWidget@@UBE_NXZ 004506c8 f   Qt5Widgets:Qt5Widgets.dll
 0001:0004f6ce       ?heightForWidth@QMenuBar@@UBEHH@Z 004506ce f   Qt5Widgets:Qt5Widgets.dll
 0001:0004f6d4       ?heightForWidth@QWidget@@UBEHH@Z 004506d4 f   Qt5Widgets:Qt5Widgets.dll
 0001:0004f6da       ?hideEvent@QWidget@@MAEXPAVQHideEvent@@@Z 004506da f   Qt5Widgets:Qt5Widgets.dll
 0001:0004f6e0       ?hitButton@QAbstractButton@@MBE_NABVQPoint@@@Z 004506e0 f   Qt5Widgets:Qt5Widgets.dll
 0001:0004f6e6       ?horizontalOffset@QListView@@MBEHXZ 004506e6 f   Qt5Widgets:Qt5Widgets.dll
 0001:0004f6ec       ?horizontalScrollbarAction@QAbstractItemView@@MAEXH@Z 004506ec f   Qt5Widgets:Qt5Widgets.dll
 0001:0004f6f2       ?horizontalScrollbarValueChanged@QAbstractItemView@@MAEXH@Z 004506f2 f   Qt5Widgets:Qt5Widgets.dll
 0001:0004f6f8       ?indexAt@QListView@@UBE?AVQModelIndex@@ABVQPoint@@@Z 004506f8 f   Qt5Widgets:Qt5Widgets.dll
 0001:0004f6fe       ?initPainter@QWidget@@MBEXPAVQPainter@@@Z 004506fe f   Qt5Widgets:Qt5Widgets.dll
 0001:0004f704       ?inputMethodEvent@QAbstractItemView@@MAEXPAVQInputMethodEvent@@@Z 00450704 f   Qt5Widgets:Qt5Widgets.dll
 0001:0004f70a       ?inputMethodEvent@QWidget@@MAEXPAVQInputMethodEvent@@@Z 0045070a f   Qt5Widgets:Qt5Widgets.dll
 0001:0004f710       ?inputMethodQuery@QAbstractItemView@@UBE?AVQVariant@@W4InputMethodQuery@Qt@@@Z 00450710 f   Qt5Widgets:Qt5Widgets.dll
 0001:0004f716       ?inputMethodQuery@QWidget@@UBE?AVQVariant@@W4InputMethodQuery@Qt@@@Z 00450716 f   Qt5Widgets:Qt5Widgets.dll
 0001:0004f71c       ?isIndexHidden@QListView@@MBE_NABVQModelIndex@@@Z 0045071c f   Qt5Widgets:Qt5Widgets.dll
 0001:0004f722       ?keyPressEvent@QAbstractItemView@@MAEXPAVQKeyEvent@@@Z 00450722 f   Qt5Widgets:Qt5Widgets.dll
 0001:0004f728       ?keyPressEvent@QMenuBar@@MAEXPAVQKeyEvent@@@Z 00450728 f   Qt5Widgets:Qt5Widgets.dll
 0001:0004f72e       ?keyPressEvent@QPushButton@@MAEXPAVQKeyEvent@@@Z 0045072e f   Qt5Widgets:Qt5Widgets.dll
 0001:0004f734       ?keyPressEvent@QWidget@@MAEXPAVQKeyEvent@@@Z 00450734 f   Qt5Widgets:Qt5Widgets.dll
 0001:0004f73a       ?keyReleaseEvent@QAbstractButton@@MAEXPAVQKeyEvent@@@Z 0045073a f   Qt5Widgets:Qt5Widgets.dll
 0001:0004f740       ?keyReleaseEvent@QWidget@@MAEXPAVQKeyEvent@@@Z 00450740 f   Qt5Widgets:Qt5Widgets.dll
 0001:0004f746       ?keyboardSearch@QAbstractItemView@@UAEXABVQString@@@Z 00450746 f   Qt5Widgets:Qt5Widgets.dll
 0001:0004f74c       ?leaveEvent@QMenuBar@@MAEXPAVQEvent@@@Z 0045074c f   Qt5Widgets:Qt5Widgets.dll
 0001:0004f752       ?leaveEvent@QWidget@@MAEXPAVQEvent@@@Z 00450752 f   Qt5Widgets:Qt5Widgets.dll
 0001:0004f758       ?metaObject@QListView@@UBEPBUQMetaObject@@XZ 00450758 f   Qt5Widgets:Qt5Widgets.dll
 0001:0004f75e       ?metaObject@QMenuBar@@UBEPBUQMetaObject@@XZ 0045075e f   Qt5Widgets:Qt5Widgets.dll
 0001:0004f764       ?metaObject@QPushButton@@UBEPBUQMetaObject@@XZ 00450764 f   Qt5Widgets:Qt5Widgets.dll
 0001:0004f76a       ?metaObject@QStatusBar@@UBEPBUQMetaObject@@XZ 0045076a f   Qt5Widgets:Qt5Widgets.dll
 0001:0004f770       ?metaObject@QToolBar@@UBEPBUQMetaObject@@XZ 00450770 f   Qt5Widgets:Qt5Widgets.dll
 0001:0004f776       ?metaObject@QWidget@@UBEPBUQMetaObject@@XZ 00450776 f   Qt5Widgets:Qt5Widgets.dll
 0001:0004f77c       ?metric@QWidget@@MBEHW4PaintDeviceMetric@QPaintDevice@@@Z 0045077c f   Qt5Widgets:Qt5Widgets.dll
 0001:0004f782       ?minimumSizeHint@QAbstractScrollArea@@UBE?AVQSize@@XZ 00450782 f   Qt5Widgets:Qt5Widgets.dll
 0001:0004f788       ?minimumSizeHint@QMenuBar@@UBE?AVQSize@@XZ 00450788 f   Qt5Widgets:Qt5Widgets.dll
 0001:0004f78e       ?minimumSizeHint@QPushButton@@UBE?AVQSize@@XZ 0045078e f   Qt5Widgets:Qt5Widgets.dll
 0001:0004f794       ?minimumSizeHint@QWidget@@UBE?AVQSize@@XZ 00450794 f   Qt5Widgets:Qt5Widgets.dll
 0001:0004f79a       ?mouseDoubleClickEvent@QAbstractItemView@@MAEXPAVQMouseEvent@@@Z 0045079a f   Qt5Widgets:Qt5Widgets.dll
 0001:0004f7a0       ?mouseDoubleClickEvent@QWidget@@MAEXPAVQMouseEvent@@@Z 004507a0 f   Qt5Widgets:Qt5Widgets.dll
 0001:0004f7a6       ?mouseMoveEvent@QAbstractButton@@MAEXPAVQMouseEvent@@@Z 004507a6 f   Qt5Widgets:Qt5Widgets.dll
 0001:0004f7ac       ?mouseMoveEvent@QListView@@MAEXPAVQMouseEvent@@@Z 004507ac f   Qt5Widgets:Qt5Widgets.dll
 0001:0004f7b2       ?mouseMoveEvent@QMenuBar@@MAEXPAVQMouseEvent@@@Z 004507b2 f   Qt5Widgets:Qt5Widgets.dll
 0001:0004f7b8       ?mouseMoveEvent@QWidget@@MAEXPAVQMouseEvent@@@Z 004507b8 f   Qt5Widgets:Qt5Widgets.dll
 0001:0004f7be       ?mousePressEvent@QAbstractButton@@MAEXPAVQMouseEvent@@@Z 004507be f   Qt5Widgets:Qt5Widgets.dll
 0001:0004f7c4       ?mousePressEvent@QAbstractItemView@@MAEXPAVQMouseEvent@@@Z 004507c4 f   Qt5Widgets:Qt5Widgets.dll
 0001:0004f7ca       ?mousePressEvent@QMenuBar@@MAEXPAVQMouseEvent@@@Z 004507ca f   Qt5Widgets:Qt5Widgets.dll
 0001:0004f7d0       ?mousePressEvent@QWidget@@MAEXPAVQMouseEvent@@@Z 004507d0 f   Qt5Widgets:Qt5Widgets.dll
 0001:0004f7d6       ?mouseReleaseEvent@QAbstractButton@@MAEXPAVQMouseEvent@@@Z 004507d6 f   Qt5Widgets:Qt5Widgets.dll
 0001:0004f7dc       ?mouseReleaseEvent@QListView@@MAEXPAVQMouseEvent@@@Z 004507dc f   Qt5Widgets:Qt5Widgets.dll
 0001:0004f7e2       ?mouseReleaseEvent@QMenuBar@@MAEXPAVQMouseEvent@@@Z 004507e2 f   Qt5Widgets:Qt5Widgets.dll
 0001:0004f7e8       ?mouseReleaseEvent@QWidget@@MAEXPAVQMouseEvent@@@Z 004507e8 f   Qt5Widgets:Qt5Widgets.dll
 0001:0004f7ee       ?moveCursor@QListView@@MAE?AVQModelIndex@@W4CursorAction@QAbstractItemView@@V?$QFlags@W4KeyboardModifier@Qt@@@@@Z 004507ee f   Qt5Widgets:Qt5Widgets.dll
 0001:0004f7f4       ?moveEvent@QWidget@@MAEXPAVQMoveEvent@@@Z 004507f4 f   Qt5Widgets:Qt5Widgets.dll
 0001:0004f7fa       ?nativeEvent@QWidget@@MAE_NABVQByteArray@@PAXPAJ@Z 004507fa f   Qt5Widgets:Qt5Widgets.dll
 0001:0004f800       ?nextCheckState@QAbstractButton@@MAEXXZ 00450800 f   Qt5Widgets:Qt5Widgets.dll
 0001:0004f806       ?paintEngine@QWidget@@UBEPAVQPaintEngine@@XZ 00450806 f   Qt5Widgets:Qt5Widgets.dll
 0001:0004f80c       ?paintEvent@QListView@@MAEXPAVQPaintEvent@@@Z 0045080c f   Qt5Widgets:Qt5Widgets.dll
 0001:0004f812       ?paintEvent@QMenuBar@@MAEXPAVQPaintEvent@@@Z 00450812 f   Qt5Widgets:Qt5Widgets.dll
 0001:0004f818       ?paintEvent@QPushButton@@MAEXPAVQPaintEvent@@@Z 00450818 f   Qt5Widgets:Qt5Widgets.dll
 0001:0004f81e       ?paintEvent@QStatusBar@@MAEXPAVQPaintEvent@@@Z 0045081e f   Qt5Widgets:Qt5Widgets.dll
 0001:0004f824       ?paintEvent@QToolBar@@MAEXPAVQPaintEvent@@@Z 00450824 f   Qt5Widgets:Qt5Widgets.dll
 0001:0004f82a       ?paintEvent@QWidget@@MAEXPAVQPaintEvent@@@Z 0045082a f   Qt5Widgets:Qt5Widgets.dll
 0001:0004f830       ?qt_metacall@QListView@@UAEHW4Call@QMetaObject@@HPAPAX@Z 00450830 f   Qt5Widgets:Qt5Widgets.dll
 0001:0004f836       ?qt_metacall@QMenuBar@@UAEHW4Call@QMetaObject@@HPAPAX@Z 00450836 f   Qt5Widgets:Qt5Widgets.dll
 0001:0004f83c       ?qt_metacall@QPushButton@@UAEHW4Call@QMetaObject@@HPAPAX@Z 0045083c f   Qt5Widgets:Qt5Widgets.dll
 0001:0004f842       ?qt_metacall@QStatusBar@@UAEHW4Call@QMetaObject@@HPAPAX@Z 00450842 f   Qt5Widgets:Qt5Widgets.dll
 0001:0004f848       ?qt_metacall@QToolBar@@UAEHW4Call@QMetaObject@@HPAPAX@Z 00450848 f   Qt5Widgets:Qt5Widgets.dll
 0001:0004f84e       ?qt_metacall@QWidget@@UAEHW4Call@QMetaObject@@HPAPAX@Z 0045084e f   Qt5Widgets:Qt5Widgets.dll
 0001:0004f854       ?qt_metacast@QListView@@UAEPAXPBD@Z 00450854 f   Qt5Widgets:Qt5Widgets.dll
 0001:0004f85a       ?qt_metacast@QMenuBar@@UAEPAXPBD@Z 0045085a f   Qt5Widgets:Qt5Widgets.dll
 0001:0004f860       ?qt_metacast@QPushButton@@UAEPAXPBD@Z 00450860 f   Qt5Widgets:Qt5Widgets.dll
 0001:0004f866       ?qt_metacast@QStatusBar@@UAEPAXPBD@Z 00450866 f   Qt5Widgets:Qt5Widgets.dll
 0001:0004f86c       ?qt_metacast@QToolBar@@UAEPAXPBD@Z 0045086c f   Qt5Widgets:Qt5Widgets.dll
 0001:0004f872       ?qt_metacast@QWidget@@UAEPAXPBD@Z 00450872 f   Qt5Widgets:Qt5Widgets.dll
 0001:0004f878       ?redirected@QWidget@@MBEPAVQPaintDevice@@PAVQPoint@@@Z 00450878 f   Qt5Widgets:Qt5Widgets.dll
 0001:0004f87e       ?reset@QListView@@UAEXXZ   0045087e f   Qt5Widgets:Qt5Widgets.dll
 0001:0004f884       ?resizeEvent@QListView@@MAEXPAVQResizeEvent@@@Z 00450884 f   Qt5Widgets:Qt5Widgets.dll
 0001:0004f88a       ?resizeEvent@QMenuBar@@MAEXPAVQResizeEvent@@@Z 0045088a f   Qt5Widgets:Qt5Widgets.dll
 0001:0004f890       ?resizeEvent@QStatusBar@@MAEXPAVQResizeEvent@@@Z 00450890 f   Qt5Widgets:Qt5Widgets.dll
 0001:0004f896       ?resizeEvent@QWidget@@MAEXPAVQResizeEvent@@@Z 00450896 f   Qt5Widgets:Qt5Widgets.dll
 0001:0004f89c       ?rowsAboutToBeRemoved@QListView@@MAEXABVQModelIndex@@HH@Z 0045089c f   Qt5Widgets:Qt5Widgets.dll
 0001:0004f8a2       ?rowsInserted@QListView@@MAEXABVQModelIndex@@HH@Z 004508a2 f   Qt5Widgets:Qt5Widgets.dll
 0001:0004f8a8       ?scrollContentsBy@QListView@@MAEXHH@Z 004508a8 f   Qt5Widgets:Qt5Widgets.dll
 0001:0004f8ae       ?scrollTo@QListView@@UAEXABVQModelIndex@@W4ScrollHint@QAbstractItemView@@@Z 004508ae f   Qt5Widgets:Qt5Widgets.dll
 0001:0004f8b4       ?selectAll@QAbstractItemView@@UAEXXZ 004508b4 f   Qt5Widgets:Qt5Widgets.dll
 0001:0004f8ba       ?selectedIndexes@QListView@@MBE?AV?$QList@VQModelIndex@@@@XZ 004508ba f   Qt5Widgets:Qt5Widgets.dll
 0001:0004f8c0       ?selectionChanged@QListView@@MAEXABVQItemSelection@@0@Z 004508c0 f   Qt5Widgets:Qt5Widgets.dll
 0001:0004f8c6       ?selectionCommand@QAbstractItemView@@MBE?AV?$QFlags@W4SelectionFlag@QItemSelectionModel@@@@ABVQModelIndex@@PBVQEvent@@@Z 004508c6 f   Qt5Widgets:Qt5Widgets.dll
 0001:0004f8cc       ?setModel@QAbstractItemView@@UAEXPAVQAbstractItemModel@@@Z 004508cc f   Qt5Widgets:Qt5Widgets.dll
 0001:0004f8d2       ?setRootIndex@QListView@@UAEXABVQModelIndex@@@Z 004508d2 f   Qt5Widgets:Qt5Widgets.dll
 0001:0004f8d8       ?setSelection@QListView@@MAEXABVQRect@@V?$QFlags@W4SelectionFlag@QItemSelectionModel@@@@@Z 004508d8 f   Qt5Widgets:Qt5Widgets.dll
 0001:0004f8de       ?setSelectionModel@QAbstractItemView@@UAEXPAVQItemSelectionModel@@@Z 004508de f   Qt5Widgets:Qt5Widgets.dll
 0001:0004f8e4       ?setVisible@QMenuBar@@UAEX_N@Z 004508e4 f   Qt5Widgets:Qt5Widgets.dll
 0001:0004f8ea       ?setVisible@QWidget@@UAEX_N@Z 004508ea f   Qt5Widgets:Qt5Widgets.dll
 0001:0004f8f0       ?setupViewport@QAbstractScrollArea@@UAEXPAVQWidget@@@Z 004508f0 f   Qt5Widgets:Qt5Widgets.dll
 0001:0004f8f6       ?sharedPainter@QWidget@@MBEPAVQPainter@@XZ 004508f6 f   Qt5Widgets:Qt5Widgets.dll
 0001:0004f8fc       ?showEvent@QStatusBar@@MAEXPAVQShowEvent@@@Z 004508fc f   Qt5Widgets:Qt5Widgets.dll
 0001:0004f902       ?showEvent@QWidget@@MAEXPAVQShowEvent@@@Z 00450902 f   Qt5Widgets:Qt5Widgets.dll
 0001:0004f908       ?sizeHint@QAbstractScrollArea@@UBE?AVQSize@@XZ 00450908 f   Qt5Widgets:Qt5Widgets.dll
 0001:0004f90e       ?sizeHint@QMenuBar@@UBE?AVQSize@@XZ 0045090e f   Qt5Widgets:Qt5Widgets.dll
 0001:0004f914       ?sizeHint@QPushButton@@UBE?AVQSize@@XZ 00450914 f   Qt5Widgets:Qt5Widgets.dll
 0001:0004f91a       ?sizeHint@QWidget@@UBE?AVQSize@@XZ 0045091a f   Qt5Widgets:Qt5Widgets.dll
 0001:0004f920       ?sizeHintForColumn@QAbstractItemView@@UBEHH@Z 00450920 f   Qt5Widgets:Qt5Widgets.dll
 0001:0004f926       ?sizeHintForRow@QAbstractItemView@@UBEHH@Z 00450926 f   Qt5Widgets:Qt5Widgets.dll
 0001:0004f92c       ?startDrag@QListView@@MAEXV?$QFlags@W4DropAction@Qt@@@@@Z 0045092c f   Qt5Widgets:Qt5Widgets.dll
 0001:0004f932       ?tabletEvent@QWidget@@MAEXPAVQTabletEvent@@@Z 00450932 f   Qt5Widgets:Qt5Widgets.dll
 0001:0004f938       ?timerEvent@QAbstractButton@@MAEXPAVQTimerEvent@@@Z 00450938 f   Qt5Widgets:Qt5Widgets.dll
 0001:0004f93e       ?timerEvent@QListView@@MAEXPAVQTimerEvent@@@Z 0045093e f   Qt5Widgets:Qt5Widgets.dll
 0001:0004f944       ?timerEvent@QMenuBar@@MAEXPAVQTimerEvent@@@Z 00450944 f   Qt5Widgets:Qt5Widgets.dll
 0001:0004f94a       ?updateEditorData@QAbstractItemView@@MAEXXZ 0045094a f   Qt5Widgets:Qt5Widgets.dll
 0001:0004f950       ?updateEditorGeometries@QAbstractItemView@@MAEXXZ 00450950 f   Qt5Widgets:Qt5Widgets.dll
 0001:0004f956       ?updateGeometries@QListView@@MAEXXZ 00450956 f   Qt5Widgets:Qt5Widgets.dll
 0001:0004f95c       ?verticalOffset@QListView@@MBEHXZ 0045095c f   Qt5Widgets:Qt5Widgets.dll
 0001:0004f962       ?verticalScrollbarAction@QAbstractItemView@@MAEXH@Z 00450962 f   Qt5Widgets:Qt5Widgets.dll
 0001:0004f968       ?verticalScrollbarValueChanged@QAbstractItemView@@MAEXH@Z 00450968 f   Qt5Widgets:Qt5Widgets.dll
 0001:0004f96e       ?viewOptions@QListView@@MBE?AVQStyleOptionViewItem@@XZ 0045096e f   Qt5Widgets:Qt5Widgets.dll
 0001:0004f974       ?viewportEvent@QAbstractItemView@@MAE_NPAVQEvent@@@Z 00450974 f   Qt5Widgets:Qt5Widgets.dll
 0001:0004f97a       ?viewportSizeHint@QListView@@MBE?AVQSize@@XZ 0045097a f   Qt5Widgets:Qt5Widgets.dll
 0001:0004f980       ?visualRect@QListView@@UBE?AVQRect@@ABVQModelIndex@@@Z 00450980 f   Qt5Widgets:Qt5Widgets.dll
 0001:0004f986       ?visualRegionForSelection@QListView@@MBE?AVQRegion@@ABVQItemSelection@@@Z 00450986 f   Qt5Widgets:Qt5Widgets.dll
 0001:0004f98c       ?wheelEvent@QListView@@MAEXPAVQWheelEvent@@@Z 0045098c f   Qt5Widgets:Qt5Widgets.dll
 0001:0004f992       ?wheelEvent@QWidget@@MAEXPAVQWheelEvent@@@Z 00450992 f   Qt5Widgets:Qt5Widgets.dll
 0001:0004f998       ?show@QWidget@@QAEXXZ      00450998 f   Qt5Widgets:Qt5Widgets.dll
 0001:0004f99e       ??0QApplication@@QAE@AAHPAPADH@Z 0045099e f   Qt5Widgets:Qt5Widgets.dll
 0001:0004f9a4       ??1QApplication@@UAE@XZ    004509a4 f   Qt5Widgets:Qt5Widgets.dll
 0001:0004f9aa       ?exec@QApplication@@SAHXZ  004509aa f   Qt5Widgets:Qt5Widgets.dll
 0001:0004f9b0       ?exec@QDialog@@UAEHXZ      004509b0 f   Qt5Widgets:Qt5Widgets.dll
 0001:0004f9b6       ??0QMessageBox@@QAE@W4Icon@0@ABVQString@@1V?$QFlags@W4StandardButton@QMessageBox@@@@PAVQWidget@@V?$QFlags@W4WindowType@Qt@@@@@Z 004509b6 f   Qt5Widgets:Qt5Widgets.dll
 0001:0004f9bc       ??1QMessageBox@@UAE@XZ     004509bc f   Qt5Widgets:Qt5Widgets.dll
 0001:0004f9c2       ??0QSqlDatabase@@QAE@XZ    004509c2 f   qt5sql:Qt5Sql.dll
 0001:0004f9c8       ??0QSqlDatabase@@QAE@ABV0@@Z 004509c8 f   qt5sql:Qt5Sql.dll
 0001:0004f9ce       ??1QSqlDatabase@@QAE@XZ    004509ce f   qt5sql:Qt5Sql.dll
 0001:0004f9d4       ?open@QSqlDatabase@@QAE_NXZ 004509d4 f   qt5sql:Qt5Sql.dll
 0001:0004f9da       ?isOpen@QSqlDatabase@@QBE_NXZ 004509da f   qt5sql:Qt5Sql.dll
 0001:0004f9e0       ?lastError@QSqlDatabase@@QBE?AVQSqlError@@XZ 004509e0 f   qt5sql:Qt5Sql.dll
 0001:0004f9e6       ?setDatabaseName@QSqlDatabase@@QAEXABVQString@@@Z 004509e6 f   qt5sql:Qt5Sql.dll
 0001:0004f9ec       ?setUserName@QSqlDatabase@@QAEXABVQString@@@Z 004509ec f   qt5sql:Qt5Sql.dll
 0001:0004f9f2       ?setPassword@QSqlDatabase@@QAEXABVQString@@@Z 004509f2 f   qt5sql:Qt5Sql.dll
 0001:0004f9f8       ?setHostName@QSqlDatabase@@QAEXABVQString@@@Z 004509f8 f   qt5sql:Qt5Sql.dll
 0001:0004f9fe       ?connectionName@QSqlDatabase@@QBE?AVQString@@XZ 004509fe f   qt5sql:Qt5Sql.dll
 0001:0004fa04       ?addDatabase@QSqlDatabase@@SA?AV1@ABVQString@@0@Z 00450a04 f   qt5sql:Qt5Sql.dll
 0001:0004fa0a       ?database@QSqlDatabase@@SA?AV1@ABVQString@@_N@Z 00450a0a f   qt5sql:Qt5Sql.dll
 0001:0004fa10       ?removeDatabase@QSqlDatabase@@SAXABVQString@@@Z 00450a10 f   qt5sql:Qt5Sql.dll
 0001:0004fa16       ?contains@QSqlDatabase@@SA_NABVQString@@@Z 00450a16 f   qt5sql:Qt5Sql.dll
 0001:0004fa1c       ??0QSqlQuery@@QAE@ABVQString@@VQSqlDatabase@@@Z 00450a1c f   qt5sql:Qt5Sql.dll
 0001:0004fa22       ??1QSqlQuery@@QAE@XZ       00450a22 f   qt5sql:Qt5Sql.dll
 0001:0004fa28       ?lastError@QSqlQuery@@QBE?AVQSqlError@@XZ 00450a28 f   qt5sql:Qt5Sql.dll
 0001:0004fa2e       ??1QSqlError@@QAE@XZ       00450a2e f   qt5sql:Qt5Sql.dll
 0001:0004fa34       ?type@QSqlError@@QBE?AW4ErrorType@1@XZ 00450a34 f   qt5sql:Qt5Sql.dll
 0001:0004fa3a       ?text@QSqlError@@QBE?AVQString@@XZ 00450a3a f   qt5sql:Qt5Sql.dll
 0001:0004fa40       ??4QSqlDatabase@@QAEAAV0@ABV0@@Z 00450a40 f   qt5sql:Qt5Sql.dll
 0001:0004fa46       ?drivers@QSqlDatabase@@SA?AVQStringList@@XZ 00450a46 f   qt5sql:Qt5Sql.dll
 0001:0004fa4c       ??0QSqlQuery@@QAE@VQSqlDatabase@@@Z 00450a4c f   qt5sql:Qt5Sql.dll
 0001:0004fa52       ?size@QSqlQuery@@QBEHXZ    00450a52 f   qt5sql:Qt5Sql.dll
 0001:0004fa58       ?record@QSqlQuery@@QBE?AVQSqlRecord@@XZ 00450a58 f   qt5sql:Qt5Sql.dll
 0001:0004fa5e       ?value@QSqlQuery@@QBE?AVQVariant@@H@Z 00450a5e f   qt5sql:Qt5Sql.dll
 0001:0004fa64       ?next@QSqlQuery@@QAE_NXZ   00450a64 f   qt5sql:Qt5Sql.dll
 0001:0004fa6a       ?exec@QSqlQuery@@QAE_NXZ   00450a6a f   qt5sql:Qt5Sql.dll
 0001:0004fa70       ?prepare@QSqlQuery@@QAE_NABVQString@@@Z 00450a70 f   qt5sql:Qt5Sql.dll
 0001:0004fa76       ??6@YA?AVQDebug@@V0@ABVQSqlError@@@Z 00450a76 f   qt5sql:Qt5Sql.dll
 0001:0004fa7c       ??1QSqlRecord@@QAE@XZ      00450a7c f   qt5sql:Qt5Sql.dll
 0001:0004fa82       ?count@QSqlRecord@@QBEHXZ  00450a82 f   qt5sql:Qt5Sql.dll
 0001:0004fa88       ?isNull@QDomNode@@QBE_NXZ  00450a88 f   qt5xml:Qt5Xml.dll
 0001:0004fa8e       ?firstChildElement@QDomNode@@QBE?AVQDomElement@@ABVQString@@@Z 00450a8e f   qt5xml:Qt5Xml.dll
 0001:0004fa94       ?nextSiblingElement@QDomNode@@QBE?AVQDomElement@@ABVQString@@@Z 00450a94 f   qt5xml:Qt5Xml.dll
 0001:0004fa9a       ??0QDomDocument@@QAE@XZ    00450a9a f   qt5xml:Qt5Xml.dll
 0001:0004faa0       ??1QDomDocument@@QAE@XZ    00450aa0 f   qt5xml:Qt5Xml.dll
 0001:0004faa6       ?setContent@QDomDocument@@QAE_NABVQString@@_NPAV2@PAH3@Z 00450aa6 f   qt5xml:Qt5Xml.dll
 0001:0004faac       ??0QDomElement@@QAE@XZ     00450aac f   qt5xml:Qt5Xml.dll
 0001:0004fab2       ??4QDomElement@@QAEAAV0@ABV0@@Z 00450ab2 f   qt5xml:Qt5Xml.dll
 0001:0004fab8       ?attribute@QDomElement@@QBE?AVQString@@ABV2@0@Z 00450ab8 f   qt5xml:Qt5Xml.dll
 0001:0004fabe       ?text@QDomElement@@QBE?AVQString@@XZ 00450abe f   qt5xml:Qt5Xml.dll
 0001:0004fac4       ??1QDomElement@@QAE@XZ     00450ac4 f   qt5xml:Qt5Xml.dll
 0001:0004faca       ??0QDomElement@@QAE@ABV0@@Z 00450aca f   qt5xml:Qt5Xml.dll
 0001:0004fad0       _GetLastError@0            00450ad0 f   kernel32:KERNEL32.dll
 0001:0004fad6       _PostQueuedCompletionStatus@16 00450ad6 f   kernel32:KERNEL32.dll
 0001:0004fadc       _EnterCriticalSection@4    00450adc f   kernel32:KERNEL32.dll
 0001:0004fae2       _LeaveCriticalSection@4    00450ae2 f   kernel32:KERNEL32.dll
 0001:0004fae8       _TlsAlloc@0                00450ae8 f   kernel32:KERNEL32.dll
 0001:0004faee       _TlsFree@4                 00450aee f   kernel32:KERNEL32.dll
 0001:0004faf4       _CreateSemaphoreA@16       00450af4 f   kernel32:KERNEL32.dll
 0001:0004fafa       _CreateEventA@16           00450afa f   kernel32:KERNEL32.dll
 0001:0004fb00       _CloseHandle@4             00450b00 f   kernel32:KERNEL32.dll
 0001:0004fb06       _WaitForSingleObjectEx@12  00450b06 f   kernel32:KERNEL32.dll
 0001:0004fb0c       _ReleaseSemaphore@12       00450b0c f   kernel32:KERNEL32.dll
 0001:0004fb12       _DuplicateHandle@28        00450b12 f   kernel32:KERNEL32.dll
 0001:0004fb18       _GetCurrentThreadId@0      00450b18 f   kernel32:KERNEL32.dll
 0001:0004fb1e       _GetCurrentProcess@0       00450b1e f   kernel32:KERNEL32.dll
 0001:0004fb24       _SetEvent@4                00450b24 f   kernel32:KERNEL32.dll
 0001:0004fb2a       _Sleep@4                   00450b2a f   kernel32:KERNEL32.dll
 0001:0004fb30       _CreateFileW@28            00450b30 f   kernel32:KERNEL32.dll
 0001:0004fb36       _SetUnhandledExceptionFilter@4 00450b36 f   kernel32:KERNEL32.dll
 0001:0004fb3c       _WaitForSingleObject@8     00450b3c f   kernel32:KERNEL32.dll
 0001:0004fb42       _CreateEventW@16           00450b42 f   kernel32:KERNEL32.dll
 0001:0004fb48       _GetCurrentProcessId@0     00450b48 f   kernel32:KERNEL32.dll
 0001:0004fb4e       _CreateThread@24           00450b4e f   kernel32:KERNEL32.dll
 0001:0004fb54       _GetLocalTime@4            00450b54 f   kernel32:KERNEL32.dll
 0001:0004fb5a       _WideCharToMultiByte@32    00450b5a f   kernel32:KERNEL32.dll
 0001:0004fb60       _TlsGetValue@4             00450b60 f   kernel32:KERNEL32.dll
 0001:0004fb66       _VerSetConditionMask@16    00450b66 f   kernel32:KERNEL32.dll
 0001:0004fb6c       _SetLastError@4            00450b6c f   kernel32:KERNEL32.dll
 0001:0004fb72       _CreateIoCompletionPort@16 00450b72 f   kernel32:KERNEL32.dll
 0001:0004fb78       _GetQueuedCompletionStatus@20 00450b78 f   kernel32:KERNEL32.dll
 0001:0004fb7e       _InitializeCriticalSectionAndSpinCount@8 00450b7e f   kernel32:KERNEL32.dll
 0001:0004fb84       _DeleteCriticalSection@4   00450b84 f   kernel32:KERNEL32.dll
 0001:0004fb8a       _SetWaitableTimer@24       00450b8a f   kernel32:KERNEL32.dll
 0001:0004fb90       _QueueUserAPC@12           00450b90 f   kernel32:KERNEL32.dll
 0001:0004fb96       _TerminateThread@8         00450b96 f   kernel32:KERNEL32.dll
 0001:0004fb9c       _TlsSetValue@8             00450b9c f   kernel32:KERNEL32.dll
 0001:0004fba2       _WaitForMultipleObjects@16 00450ba2 f   kernel32:KERNEL32.dll
 0001:0004fba8       _VerifyVersionInfoW@16     00450ba8 f   kernel32:KERNEL32.dll
 0001:0004fbae       _GetProcessHeap@0          00450bae f   kernel32:KERNEL32.dll
 0001:0004fbb4       _HeapAlloc@12              00450bb4 f   kernel32:KERNEL32.dll
 0001:0004fbba       _HeapFree@12               00450bba f   kernel32:KERNEL32.dll
 0001:0004fbc0       _SleepEx@8                 00450bc0 f   kernel32:KERNEL32.dll
 0001:0004fbc6       _CreateWaitableTimerW@12   00450bc6 f   kernel32:KERNEL32.dll
 0001:0004fbcc       _GetSystemTimeAsFileTime@4 00450bcc f   kernel32:KERNEL32.dll
 0001:0004fbd2       _MessageBoxW@16            00450bd2 f   user32:USER32.dll
 0001:0004fbd8       _RegisterServiceCtrlHandlerW@8 00450bd8 f   advapi32:ADVAPI32.dll
 0001:0004fbde       _SetServiceStatus@8        00450bde f   advapi32:ADVAPI32.dll
 0001:0004fbe4       _StartServiceCtrlDispatcherW@4 00450be4 f   advapi32:ADVAPI32.dll
 0001:0004fbea       ?_Xbad_alloc@std@@YAXXZ    00450bea f   msvcprt:MSVCP140.dll
 0001:0004fbf0       ?_Xlength_error@std@@YAXPBD@Z 00450bf0 f   msvcprt:MSVCP140.dll
 0001:0004fbf6       ?_Xout_of_range@std@@YAXPBD@Z 00450bf6 f   msvcprt:MSVCP140.dll
 0001:0004fbfc       ??3@YAXPAXI@Z              00450bfc f   MSVCRT:delete_scalar_size.obj
 0001:0004fc0d       ??_U@YAPAXI@Z              00450c0d f   MSVCRT:new_array.obj
 0001:0004fc18       ??_V@YAXPAX@Z              00450c18 f   MSVCRT:delete_array.obj
 0001:0004fc1d       ??1type_info@@UAE@XZ       00450c1d f   MSVCRT:std_type_info_static.obj
 0001:0004fc24       ??_Etype_info@@UAEPAXI@Z   00450c24 f i MSVCRT:std_type_info_static.obj
 0001:0004fc24       ??_Gtype_info@@UAEPAXI@Z   00450c24 f i MSVCRT:std_type_info_static.obj
 0001:0004fc4f       ??2@YAPAXI@Z               00450c4f f   MSVCRT:new_scalar.obj
 0001:0004fd7e       ??$__crt_fast_decode_pointer@P6GHPAU_RTL_CONDITION_VARIABLE@@PAU_RTL_CRITICAL_SECTION@@K@Z@@YAP6GHPAU_RTL_CONDITION_VARIABLE@@PAU_RTL_CRITICAL_SECTION@@K@ZQ6GH01K@Z@Z 00450d7e f i MSVCRT:thread_safe_statics.obj
 0001:0004fd97       ??$__crt_fast_decode_pointer@P6GXPAU_RTL_CONDITION_VARIABLE@@@Z@@YAP6GXPAU_RTL_CONDITION_VARIABLE@@@ZQ6GX0@Z@Z 00450d97 f i MSVCRT:thread_safe_statics.obj
 0001:0004fdb0       ??$__crt_fast_encode_pointer@P6GHPAU_RTL_CONDITION_VARIABLE@@PAU_RTL_CRITICAL_SECTION@@K@Z@@YAP6GHPAU_RTL_CONDITION_VARIABLE@@PAU_RTL_CRITICAL_SECTION@@K@ZQ6GH01K@Z@Z 00450db0 f i MSVCRT:thread_safe_statics.obj
 0001:0004fdd4       ??$__crt_fast_encode_pointer@P6GXPAU_RTL_CONDITION_VARIABLE@@@Z@@YAP6GXPAU_RTL_CONDITION_VARIABLE@@@ZQ6GX0@Z@Z 00450dd4 f i MSVCRT:thread_safe_statics.obj
 0001:0004fdf8       ?__crt_rotate_pointer_value@@YAIIH@Z 00450df8 f i MSVCRT:thread_safe_statics.obj
 0001:0004fe2b       __Init_thread_abort        00450e2b f   MSVCRT:thread_safe_statics.obj
 0001:0004fe4a       __Init_thread_footer       00450e4a f   MSVCRT:thread_safe_statics.obj
 0001:0004fe98       __Init_thread_header       00450e98 f   MSVCRT:thread_safe_statics.obj
 0001:0004feef       __Init_thread_lock         00450eef f   MSVCRT:thread_safe_statics.obj
 0001:0004fefe       __Init_thread_notify       00450efe f   MSVCRT:thread_safe_statics.obj
 0001:0004ff4f       __Init_thread_unlock       00450f4f f   MSVCRT:thread_safe_statics.obj
 0001:0004ff5e       __Init_thread_wait         00450f5e f   MSVCRT:thread_safe_statics.obj
 0001:0004ffdc       ??_L@YGXPAXIHP6EX0@Z1@Z    00450fdc f   MSVCRT:ehvecctr.obj
 0001:0004ffe1       ??_L@YGXPAXIIP6EX0@Z1@Z    00450fe1 f   MSVCRT:ehvecctr.obj
 0001:00050064       ??_M@YGXPAXIHP6EX0@Z@Z     00451064 f   MSVCRT:ehvecdtr.obj
 0001:00050069       ??_M@YGXPAXIIP6EX0@Z@Z     00451069 f   MSVCRT:ehvecdtr.obj
 0001:00050120       ?__ArrayUnwind@@YGXPAXIIP6EX0@Z@Z 00451120 f   MSVCRT:ehvecdtr.obj
 0001:000501a8       ??3@YAXPAX@Z               004511a8 f   MSVCRT:delete_scalar.obj
 0001:000501ad       ??_V@YAXPAXI@Z             004511ad f   MSVCRT:delete_array_size.obj
 0001:000501be       ??$__crt_fast_decode_pointer@PAP6AXXZ@@YAPAP6AXXZQAP6AXXZ@Z 004511be f i MSVCRT:utility.obj
 0001:000501d7       ??$__crt_fast_encode_pointer@PAP6AXXZ@@YAPAP6AXXZQAP6AXXZ@Z 004511d7 f i MSVCRT:utility.obj
 0001:000501fb       ?configure_argv@__scrt_narrow_argv_policy@@SAHXZ 004511fb f i MSVCRT:utility.obj
 0001:0005029f       _NtCurrentTeb              0045129f f i MSVCRT:utility.obj
 0001:000502a6       ___scrt_acquire_startup_lock 004512a6 f   MSVCRT:utility.obj
 0001:000502e8       ___scrt_dllmain_after_initialize_c 004512e8 f   MSVCRT:utility.obj
 0001:0005031d       ___scrt_dllmain_before_initialize_c 0045131d f   MSVCRT:utility.obj
 0001:0005032e       ___scrt_dllmain_crt_thread_attach 0045132e f   MSVCRT:utility.obj
 0001:00050354       ___scrt_dllmain_crt_thread_detach 00451354 f   MSVCRT:utility.obj
 0001:00050364       ___scrt_dllmain_exception_filter 00451364 f   MSVCRT:utility.obj
 0001:000503a3       ___scrt_dllmain_uninitialize_c 004513a3 f   MSVCRT:utility.obj
 0001:000503ce       ___scrt_dllmain_uninitialize_critical 004513ce f   MSVCRT:utility.obj
 0001:000503de       ___scrt_initialize_crt     004513de f   MSVCRT:utility.obj
 0001:00050425       ___scrt_initialize_onexit_tables 00451425 f   MSVCRT:utility.obj
 0001:000504e1       ___scrt_is_nonwritable_in_current_image 004514e1 f   MSVCRT:utility.obj
 0001:0005058d       ___scrt_release_startup_lock 0045158d f   MSVCRT:utility.obj
 0001:000505b1       ___scrt_uninitialize_crt   004515b1 f   MSVCRT:utility.obj
 0001:000505e3       __onexit                   004515e3 f   MSVCRT:utility.obj
 0001:0005062c       _at_quick_exit             0045162c f   MSVCRT:utility.obj
 0001:00050669       _atexit                    00451669 f   MSVCRT:utility.obj
 0001:00050683       @__security_check_cookie@4 00451683 f   MSVCRT:_secchk_.obj
 0001:000506a0       __allmul                   004516a0 f   MSVCRT:llmul.obj
 0001:000506f0       __alloca_probe             004516f0 f   MSVCRT:chkstk.obj
 0001:000506f0       __chkstk                   004516f0 f   MSVCRT:chkstk.obj
 0001:00050730       __alloca_probe_16          00451730 f   MSVCRT:alloca16.obj
 0001:00050746       __alloca_probe_8           00451746     MSVCRT:alloca16.obj
 0001:00050767       __except_handler4          00451767 f   MSVCRT:_chandler4gs_.obj
 0001:000507a0       __alldiv                   004517a0 f   MSVCRT:lldiv.obj
 0001:00050880       __aulldiv                  00451880 f   MSVCRT:ulldiv.obj
 0001:00050bbd       ?get_app_type@__scrt_winmain_policy@@SA?AW4_crt_app_type@@XZ 00451bbd f i MSVCRT:exe_winmain.obj
 0001:00050be9       _WinMainCRTStartup         00451be9 f   MSVCRT:exe_winmain.obj
 0001:00050bf5       ??0bad_alloc@std@@AAE@QBD@Z 00451bf5 f i MSVCRT:throw_bad_alloc.obj
 0001:00050c19       ??0bad_alloc@std@@QAE@XZ   00451c19 f i MSVCRT:throw_bad_alloc.obj
 0001:00050c37       ??0bad_array_new_length@std@@QAE@ABV01@@Z 00451c37 f i MSVCRT:throw_bad_alloc.obj
 0001:00050c58       ??0bad_array_new_length@std@@QAE@XZ 00451c58 f i MSVCRT:throw_bad_alloc.obj
 0001:00050c76       ??0exception@std@@QAE@QBDH@Z 00451c76 f i MSVCRT:throw_bad_alloc.obj
 0001:00050c9a       ??1bad_array_new_length@std@@UAE@XZ 00451c9a f i MSVCRT:throw_bad_alloc.obj
 0001:00050caf       ??_Gbad_array_new_length@std@@UAEPAXI@Z 00451caf f i MSVCRT:throw_bad_alloc.obj
 0001:00050caf       ??_Ebad_array_new_length@std@@UAEPAXI@Z 00451caf f i MSVCRT:throw_bad_alloc.obj
 0001:00050ce7       ?__scrt_throw_std_bad_alloc@@YAXXZ 00451ce7 f   MSVCRT:throw_bad_alloc.obj
 0001:00050d0b       ?__scrt_throw_std_bad_array_new_length@@YAXXZ 00451d0b f   MSVCRT:throw_bad_alloc.obj
 0001:00050d2f       ___scrt_fastfail           00451d2f f   MSVCRT:utility_desktop.obj
 0001:00050e90       ___scrt_get_show_window_mode 00451e90 f   MSVCRT:utility_desktop.obj
 0001:00050ecf       ___scrt_initialize_winrt   00451ecf f   MSVCRT:utility_desktop.obj
 0001:00050ed2       ___scrt_is_managed_app     00451ed2 f   MSVCRT:utility_desktop.obj
 0001:00050f27       ___scrt_set_unhandled_exception_filter 00451f27 f   MSVCRT:utility_desktop.obj
 0001:00050f36       ___scrt_unhandled_exception_filter@4 00451f36 f   MSVCRT:utility_desktop.obj
 0001:00050f87       __crt_debugger_hook        00451f87 f   MSVCRT:utility_desktop.obj
 0001:00050f91       @_guard_check_icall@4      00451f91 f i MSVCRT:checkcfg.obj
 0001:00050fa0       __SEH_prolog4              00451fa0 f   MSVCRT:_sehprolg4_.obj
 0001:00050fe6       __SEH_epilog4              00451fe6 f   MSVCRT:_sehprolg4_.obj
 0001:00051011       ___isa_available_init      00452011 f   MSVCRT:_cpu_disp_.obj
 0001:00051211       __get_startup_argv_mode    00452211 f   MSVCRT:argv_mode.obj
 0001:00051215       ___scrt_is_ucrt_dll_in_use 00452215 f   MSVCRT:ucrt_detection.obj
 0001:00051224       ___raise_securityfailure   00452224 f   MSVCRT:gs_report.obj
 0001:00051256       ___report_gsfailure        00452256 f   MSVCRT:gs_report.obj
 0001:0005138f       ___report_rangecheckfailure 0045238f f   MSVCRT:gs_report.obj
 0001:0005139e       ___report_securityfailure  0045239e f   MSVCRT:gs_report.obj
 0001:000514a2       ___report_securityfailureEx 004524a2 f   MSVCRT:gs_report.obj
 0001:000515fd       ___security_init_cookie    004525fd f   MSVCRT:gs_support.obj
 0001:000516c0       __matherr                  004526c0 f   MSVCRT:matherr.obj
 0001:000516c3       __get_startup_commit_mode  004526c3 f   MSVCRT:commit_mode.obj
 0001:000516c6       __get_startup_file_mode    004526c6 f   MSVCRT:file_mode.obj
 0001:000516cc       __get_startup_new_mode     004526cc f   MSVCRT:new_mode.obj
 0001:000516cf       __get_startup_thread_locale_mode 004526cf f   MSVCRT:thread_locale.obj
 0001:000516d2       ?__scrt_initialize_type_info@@YAXXZ 004526d2 f   MSVCRT:tncleanup.obj
 0001:000516e1       ?__scrt_uninitialize_type_info@@YAXXZ 004526e1 f   MSVCRT:tncleanup.obj
 0001:000516f0       __should_initialize_environment 004526f0 f   MSVCRT:env_mode.obj
 0001:000516f3       __initialize_default_precision 004526f3 f   MSVCRT:default_precision.obj
 0001:0005171c       __initialize_invalid_parameter_handler 0045271c f   MSVCRT:invalid_parameter_handler.obj
 0001:0005171d       __initialize_denormal_control 0045271d f   MSVCRT:denormal_control.obj
 0001:0005171e       ___local_stdio_scanf_options 0045271e f i MSVCRT:default_local_stdio_options.obj
 0001:00051724       ___scrt_initialize_default_local_stdio_options 00452724 f   MSVCRT:default_local_stdio_options.obj
 0001:00051748       ___scrt_is_user_matherr_present 00452748 f   MSVCRT:matherr_detection.obj
 0001:00051757       ___scrt_get_dyn_tls_init_callback 00452757 f   MSVCRT:dyn_tls_init.obj
 0001:0005175d       ___scrt_get_dyn_tls_dtor_callback 0045275d f   MSVCRT:dyn_tls_dtor.obj
 0001:00051763       __RTC_Initialize           00452763 f   MSVCRT:_initsect_.obj
 0001:00051798       __RTC_Terminate            00452798 f   MSVCRT:_initsect_.obj
 0001:000517cd       @_guard_check_icall_nop@4  004527cd f i MSVCRT:guard_support.obj
 0001:000517ce       __guard_icall_checks_enforced 004527ce f i MSVCRT:guard_support.obj
 0001:000517e4       _WSAStartup@8              004527e4 f   ws2_32:WS2_32.dll
 0001:000517ea       _WSACleanup@0              004527ea f   ws2_32:WS2_32.dll
 0001:000517f0       _getpeername@12            004527f0 f   ws2_32:WS2_32.dll
 0001:000517f6       _getsockname@12            004527f6 f   ws2_32:WS2_32.dll
 0001:000517fc       _getsockopt@20             004527fc f   ws2_32:WS2_32.dll
 0001:00051802       _htonl@4                   00452802 f   ws2_32:WS2_32.dll
 0001:00051808       _ntohl@4                   00452808 f   ws2_32:WS2_32.dll
 0001:0005180e       _ntohs@4                   0045280e f   ws2_32:WS2_32.dll
 0001:00051814       _WSASetLastError@4         00452814 f   ws2_32:WS2_32.dll
 0001:0005181a       _WSAGetLastError@0         0045281a f   ws2_32:WS2_32.dll
 0001:00051820       _WSAAddressToStringW@20    00452820 f   ws2_32:WS2_32.dll
 0001:00051826       _closesocket@4             00452826 f   ws2_32:WS2_32.dll
 0001:0005182c       _connect@12                0045282c f   ws2_32:WS2_32.dll
 0001:00051832       _ioctlsocket@12            00452832 f   ws2_32:WS2_32.dll
 0001:00051838       _htons@4                   00452838 f   ws2_32:WS2_32.dll
 0001:0005183e       _inet_addr@4               0045283e f   ws2_32:WS2_32.dll
 0001:00051844       _recv@16                   00452844 f   ws2_32:WS2_32.dll
 0001:0005184a       _recvfrom@24               0045284a f   ws2_32:WS2_32.dll
 0001:00051850       _select@20                 00452850 f   ws2_32:WS2_32.dll
 0001:00051856       _send@16                   00452856 f   ws2_32:WS2_32.dll
 0001:0005185c       _sendto@24                 0045285c f   ws2_32:WS2_32.dll
 0001:00051862       _setsockopt@20             00452862 f   ws2_32:WS2_32.dll
 0001:00051868       _socket@12                 00452868 f   ws2_32:WS2_32.dll
 0001:0005186e       _WSARecv@28                0045286e f   ws2_32:WS2_32.dll
 0001:00051874       _bind@12                   00452874 f   ws2_32:WS2_32.dll
 0001:0005187a       _listen@8                  0045287a f   ws2_32:WS2_32.dll
 0001:00051880       _WSASend@28                00452880 f   ws2_32:WS2_32.dll
 0001:00051886       _WSASocketW@24             00452886 f   ws2_32:WS2_32.dll
 0001:0005188c       _shutdown@8                0045288c f   ws2_32:WS2_32.dll
 0001:00051892       _AcceptEx@32               00452892 f   mswsock:MSWSOCK.dll
 0001:00051898       _GetAcceptExSockaddrs@32   00452898 f   mswsock:MSWSOCK.dll
 0001:000518a0       ??$?0$$V@?$_Compressed_pair@U?$_Wrap_alloc@V?$allocator@D@std@@@std@@V?$_String_val@U?$_Simple_types@D@std@@@2@$00@std@@QAE@U_Zero_then_variadic_args_t@1@@Z 004528a0 f i libboost_system-vc140-mt-1_63:error_code.obj
 0001:000518c0       ??$?0U?$_Wrap_alloc@V?$allocator@D@std@@@std@@$$V@?$_Compressed_pair@U?$_Wrap_alloc@V?$allocator@D@std@@@std@@V?$_String_val@U?$_Simple_types@D@std@@@2@$00@std@@QAE@U_One_then_variadic_args_t@1@$$QAU?$_Wrap_alloc@V?$allocator@D@std@@@1@@Z 004528c0 f i libboost_system-vc140-mt-1_63:error_code.obj
 0001:000518e0       ??$?0U?$_Wrap_alloc@V?$allocator@D@std@@@std@@X@?$_String_alloc@U?$_String_base_types@DV?$allocator@D@std@@@std@@@std@@QAE@$$QAU?$_Wrap_alloc@V?$allocator@D@std@@@1@@Z 004528e0 f i libboost_system-vc140-mt-1_63:error_code.obj
 0001:00051900       ??$?0V?$allocator@D@std@@@?$_Wrap_alloc@V?$allocator@D@std@@@std@@QAE@$$QAV?$allocator@D@1@@Z 00452900 f i libboost_system-vc140-mt-1_63:error_code.obj
 0001:00051910       ??$_Unfancy@D@std@@YAPADPAD@Z 00452910 f i libboost_system-vc140-mt-1_63:error_code.obj
 0001:00051920       ??$addressof@PAD@std@@YAPAPADAAPAD@Z 00452920 f i libboost_system-vc140-mt-1_63:error_code.obj
 0001:00051930       ??$construct@PADAAPAD@?$_Wrap_alloc@V?$allocator@D@std@@@std@@QAEXPAPADAAPAD@Z 00452930 f i libboost_system-vc140-mt-1_63:error_code.obj
 0001:00051950       ??$construct@PADAAPAD@?$allocator@D@std@@QAEXPAPADAAPAD@Z 00452950 f i libboost_system-vc140-mt-1_63:error_code.obj
 0001:00051970       ??$construct@PADAAPAD@?$allocator_traits@V?$allocator@D@std@@@std@@SAXAAV?$allocator@D@1@PAPADAAPAD@Z 00452970 f i libboost_system-vc140-mt-1_63:error_code.obj
 0001:00051990       ??$destroy@PAD@?$_Wrap_alloc@V?$allocator@D@std@@@std@@QAEXPAPAD@Z 00452990 f i libboost_system-vc140-mt-1_63:error_code.obj
 0001:000519a0       ??$destroy@PAD@?$allocator@D@std@@QAEXPAPAD@Z 004529a0 f i libboost_system-vc140-mt-1_63:error_code.obj
 0001:000519b0       ??$destroy@PAD@?$allocator_traits@V?$allocator@D@std@@@std@@SAXAAV?$allocator@D@1@PAPAD@Z 004529b0 f i libboost_system-vc140-mt-1_63:error_code.obj
 0001:000519c0       ??$forward@AAPAD@std@@YAAAPADAAPAD@Z 004529c0 f i libboost_system-vc140-mt-1_63:error_code.obj
 0001:000519d0       ??$forward@U?$_Wrap_alloc@V?$allocator@D@std@@@std@@@std@@YA$$QAU?$_Wrap_alloc@V?$allocator@D@std@@@0@AAU10@@Z 004529d0 f i libboost_system-vc140-mt-1_63:error_code.obj
 0001:000519e0       ??$forward@V?$allocator@D@std@@@std@@YA$$QAV?$allocator@D@0@AAV10@@Z 004529e0 f i libboost_system-vc140-mt-1_63:error_code.obj
 0001:000519f0       ??$forward@V?$basic_string@DU?$char_traits@D@std@@V?$allocator@D@2@@std@@@std@@YA$$QAV?$basic_string@DU?$char_traits@D@std@@V?$allocator@D@2@@0@AAV10@@Z 004529f0 f i libboost_system-vc140-mt-1_63:error_code.obj
 0001:00051a00       ??$move@AAU?$_Wrap_alloc@V?$allocator@D@std@@@std@@@std@@YA$$QAU?$_Wrap_alloc@V?$allocator@D@std@@@0@AAU10@@Z 00452a00 f i libboost_system-vc140-mt-1_63:error_code.obj
 0001:00051a10       ??0?$_String_alloc@U?$_String_base_types@DV?$allocator@D@std@@@std@@@std@@QAE@XZ 00452a10 f i libboost_system-vc140-mt-1_63:error_code.obj
 0001:00051a30       ??0?$_String_val@U?$_Simple_types@D@std@@@std@@QAE@XZ 00452a30 f i libboost_system-vc140-mt-1_63:error_code.obj
 0001:00051a50       ??0?$_Wrap_alloc@V?$allocator@D@std@@@std@@QAE@$$QAU01@@Z 00452a50 f i libboost_system-vc140-mt-1_63:error_code.obj
 0001:00051a60       ??0?$_Wrap_alloc@V?$allocator@D@std@@@std@@QAE@XZ 00452a60 f i libboost_system-vc140-mt-1_63:error_code.obj
 0001:00051a70       ??0?$allocator@D@std@@QAE@ABV01@@Z 00452a70 f i libboost_system-vc140-mt-1_63:error_code.obj
 0001:00051a80       ??0?$allocator@D@std@@QAE@XZ 00452a80 f i libboost_system-vc140-mt-1_63:error_code.obj
 0001:00051a90       ??0?$basic_string@DU?$char_traits@D@std@@V?$allocator@D@2@@std@@QAE@$$QAV01@@Z 00452a90 f i libboost_system-vc140-mt-1_63:error_code.obj
 0001:00051b00       ??0?$basic_string@DU?$char_traits@D@std@@V?$allocator@D@2@@std@@QAE@ABV01@@Z 00452b00 f i libboost_system-vc140-mt-1_63:error_code.obj
 0001:00051b30       ??0_Bxty@?$_String_val@U?$_Simple_types@D@std@@@std@@QAE@XZ 00452b30 f i libboost_system-vc140-mt-1_63:error_code.obj
 0001:00051b40       ??0error_category@system@boost@@QAE@XZ 00452b40 f i libboost_system-vc140-mt-1_63:error_code.obj
 0001:00051b50       ??0error_code@system@boost@@QAE@XZ 00452b50 f i libboost_system-vc140-mt-1_63:error_code.obj
 0001:00051c20       ??0error_condition@system@boost@@QAE@HABVerror_category@12@@Z 00452c20 f i libboost_system-vc140-mt-1_63:error_code.obj
 0001:00051c60       ??0local_free_on_destruction@detail@system@boost@@QAE@PAX@Z 00452c60 f i libboost_system-vc140-mt-1_63:error_code.obj
 0001:00051c90       ??1?$_Compressed_pair@U?$_Wrap_alloc@V?$allocator@D@std@@@std@@V?$_String_val@U?$_Simple_types@D@std@@@2@$00@std@@QAE@XZ 00452c90 f i libboost_system-vc140-mt-1_63:error_code.obj
 0001:00051ca0       ??1?$_String_alloc@U?$_String_base_types@DV?$allocator@D@std@@@std@@@std@@QAE@XZ 00452ca0 f i libboost_system-vc140-mt-1_63:error_code.obj
 0001:00051cb0       ??1?$_String_val@U?$_Simple_types@D@std@@@std@@QAE@XZ 00452cb0 f i libboost_system-vc140-mt-1_63:error_code.obj
 0001:00051cc0       ??1_Bxty@?$_String_val@U?$_Simple_types@D@std@@@std@@QAE@XZ 00452cc0 f i libboost_system-vc140-mt-1_63:error_code.obj
 0001:00051ce0       ??1local_free_on_destruction@detail@system@boost@@QAE@XZ 00452ce0 f i libboost_system-vc140-mt-1_63:error_code.obj
 0001:00051d40       ??2@YAPAXIPAX@Z            00452d40 f i libboost_system-vc140-mt-1_63:error_code.obj
 0001:00051d50       ??8error_category@system@boost@@QBE_NABV012@@Z 00452d50 f i libboost_system-vc140-mt-1_63:error_code.obj
 0001:00051d60       ??8system@boost@@YA_NABVerror_condition@01@0@Z 00452d60 f i libboost_system-vc140-mt-1_63:error_code.obj
 0001:00051d90       ??A?$basic_string@DU?$char_traits@D@std@@V?$allocator@D@2@@std@@QAEAADI@Z 00452d90 f i libboost_system-vc140-mt-1_63:error_code.obj
 0001:00051db0       ??_Egeneric_error_category@?A0x9e684325@system@boost@@UAEPAXI@Z 00452db0 f i libboost_system-vc140-mt-1_63:error_code.obj
 0001:00051db0       ??_Ggeneric_error_category@?A0x9e684325@system@boost@@UAEPAXI@Z 00452db0 f i libboost_system-vc140-mt-1_63:error_code.obj
 0001:00051de0       ??_Gsystem_error_category@?A0x9e684325@system@boost@@UAEPAXI@Z 00452de0 f i libboost_system-vc140-mt-1_63:error_code.obj
 0001:00051de0       ??_Esystem_error_category@?A0x9e684325@system@boost@@UAEPAXI@Z 00452de0 f i libboost_system-vc140-mt-1_63:error_code.obj
 0001:00051e10       ?_Allocate@std@@YAPAXII_N@Z 00452e10 f i libboost_system-vc140-mt-1_63:error_code.obj
 0001:00051ea0       ?_Assign_rv@?$basic_string@DU?$char_traits@D@std@@V?$allocator@D@2@@std@@QAEX$$QAV12@@Z 00452ea0 f i libboost_system-vc140-mt-1_63:error_code.obj
 0001:00051f20       ?_Bx@?$_String_alloc@U?$_String_base_types@DV?$allocator@D@std@@@std@@@std@@QAEAAT_Bxty@?$_String_val@U?$_Simple_types@D@std@@@2@XZ 00452f20 f i libboost_system-vc140-mt-1_63:error_code.obj
 0001:00051f30       ?_Check_offset@?$basic_string@DU?$char_traits@D@std@@V?$allocator@D@2@@std@@QBEXI@Z 00452f30 f i libboost_system-vc140-mt-1_63:error_code.obj
 0001:00051f50       ?_Clamp_suffix_size@?$basic_string@DU?$char_traits@D@std@@V?$allocator@D@2@@std@@QBEIII@Z 00452f50 f i libboost_system-vc140-mt-1_63:error_code.obj
 0001:00051f70       ?_Eos@?$basic_string@DU?$char_traits@D@std@@V?$allocator@D@2@@std@@QAEXI@Z 00452f70 f i libboost_system-vc140-mt-1_63:error_code.obj
 0001:00051fa0       ?_Get_data@?$_String_alloc@U?$_String_base_types@DV?$allocator@D@std@@@std@@@std@@QAEAAV?$_String_val@U?$_Simple_types@D@std@@@2@XZ 00452fa0 f i libboost_system-vc140-mt-1_63:error_code.obj
 0001:00051fb0       ?_Get_data@?$_String_alloc@U?$_String_base_types@DV?$allocator@D@std@@@std@@@std@@QBEABV?$_String_val@U?$_Simple_types@D@std@@@2@XZ 00452fb0 f i libboost_system-vc140-mt-1_63:error_code.obj
 0001:00051fc0       ?_Get_first@?$_Compressed_pair@U?$_Wrap_alloc@V?$allocator@D@std@@@std@@V?$_String_val@U?$_Simple_types@D@std@@@2@$00@std@@QAEAAU?$_Wrap_alloc@V?$allocator@D@std@@@2@XZ 00452fc0 f i libboost_system-vc140-mt-1_63:error_code.obj
 0001:00051fd0       ?_Get_first@?$_Compressed_pair@U?$_Wrap_alloc@V?$allocator@D@std@@@std@@V?$_String_val@U?$_Simple_types@D@std@@@2@$00@std@@QBEABU?$_Wrap_alloc@V?$allocator@D@std@@@2@XZ 00452fd0 f i libboost_system-vc140-mt-1_63:error_code.obj
 0001:00051fe0       ?_Get_second@?$_Compressed_pair@U?$_Wrap_alloc@V?$allocator@D@std@@@std@@V?$_String_val@U?$_Simple_types@D@std@@@2@$00@std@@QAEAAV?$_String_val@U?$_Simple_types@D@std@@@2@XZ 00452fe0 f i libboost_system-vc140-mt-1_63:error_code.obj
 0001:00051ff0       ?_Get_second@?$_Compressed_pair@U?$_Wrap_alloc@V?$allocator@D@std@@@std@@V?$_String_val@U?$_Simple_types@D@std@@@2@$00@std@@QBEABV?$_String_val@U?$_Simple_types@D@std@@@2@XZ 00452ff0 f i libboost_system-vc140-mt-1_63:error_code.obj
 0001:00052000       ?_Getal@?$_String_alloc@U?$_String_base_types@DV?$allocator@D@std@@@std@@@std@@QAEAAU?$_Wrap_alloc@V?$allocator@D@std@@@2@XZ 00453000 f i libboost_system-vc140-mt-1_63:error_code.obj
 0001:00052010       ?_Getal@?$_String_alloc@U?$_String_base_types@DV?$allocator@D@std@@@std@@@std@@QBEABU?$_Wrap_alloc@V?$allocator@D@std@@@2@XZ 00453010 f i libboost_system-vc140-mt-1_63:error_code.obj
 0001:00052020       ?_Grow@?$basic_string@DU?$char_traits@D@std@@V?$allocator@D@2@@std@@QAE_NI_N@Z 00453020 f i libboost_system-vc140-mt-1_63:error_code.obj
 0001:000520b0       ?_Inside@?$basic_string@DU?$char_traits@D@std@@V?$allocator@D@2@@std@@QAE_NPBD@Z 004530b0 f i libboost_system-vc140-mt-1_63:error_code.obj
 0001:00052100       ?_Myptr@?$_String_alloc@U?$_String_base_types@DV?$allocator@D@std@@@std@@@std@@QAEPADXZ 00453100 f i libboost_system-vc140-mt-1_63:error_code.obj
 0001:00052110       ?_Myptr@?$_String_alloc@U?$_String_base_types@DV?$allocator@D@std@@@std@@@std@@QBEPBDXZ 00453110 f i libboost_system-vc140-mt-1_63:error_code.obj
 0001:00052120       ?_Myptr@?$_String_val@U?$_Simple_types@D@std@@@std@@QAEPADXZ 00453120 f i libboost_system-vc140-mt-1_63:error_code.obj
 0001:00052130       ?_Myptr@?$_String_val@U?$_Simple_types@D@std@@@std@@QBEPBDXZ 00453130 f i libboost_system-vc140-mt-1_63:error_code.obj
 0001:00052140       ?_Myres@?$_String_alloc@U?$_String_base_types@DV?$allocator@D@std@@@std@@@std@@QAEAAIXZ 00453140 f i libboost_system-vc140-mt-1_63:error_code.obj
 0001:00052150       ?_Mysize@?$_String_alloc@U?$_String_base_types@DV?$allocator@D@std@@@std@@@std@@QAEAAIXZ 00453150 f i libboost_system-vc140-mt-1_63:error_code.obj
 0001:00052160       ?_Mysize@?$_String_alloc@U?$_String_base_types@DV?$allocator@D@std@@@std@@@std@@QBEABIXZ 00453160 f i libboost_system-vc140-mt-1_63:error_code.obj
 0001:00052170       ?_Tidy@?$basic_string@DU?$char_traits@D@std@@V?$allocator@D@2@@std@@QAEX_NI@Z 00453170 f i libboost_system-vc140-mt-1_63:error_code.obj
 0001:000521f0       ?_Xlen@?$basic_string@DU?$char_traits@D@std@@V?$allocator@D@2@@std@@QBEXXZ 004531f0 f i libboost_system-vc140-mt-1_63:error_code.obj
 0001:00052200       ?_Xran@?$basic_string@DU?$char_traits@D@std@@V?$allocator@D@2@@std@@QBEXXZ 00453200 f i libboost_system-vc140-mt-1_63:error_code.obj
 0001:00052210       ?allocate@?$allocator@D@std@@QAEPADI@Z 00453210 f i libboost_system-vc140-mt-1_63:error_code.obj
 0001:00052280       ?assign@?$basic_string@DU?$char_traits@D@std@@V?$allocator@D@2@@std@@QAEAAV12@PBD@Z 00453280 f i libboost_system-vc140-mt-1_63:error_code.obj
 0001:000522d0       ?assign@?$char_traits@D@std@@SAXAADABD@Z 004532d0 f i libboost_system-vc140-mt-1_63:error_code.obj
 0001:000522e0       ?category@error_code@system@boost@@QBEABVerror_category@23@XZ 004532e0 f i libboost_system-vc140-mt-1_63:error_code.obj
 0001:000522f0       ?copy@?$char_traits@D@std@@SAPADPADPBDI@Z 004532f0 f i libboost_system-vc140-mt-1_63:error_code.obj
 0001:00052310       ?deallocate@?$_Wrap_alloc@V?$allocator@D@std@@@std@@QAEXPADI@Z 00453310 f i libboost_system-vc140-mt-1_63:error_code.obj
 0001:00052330       ?deallocate@?$allocator@D@std@@QAEXPADI@Z 00453330 f i libboost_system-vc140-mt-1_63:error_code.obj
 0001:00052b70       ?erase@?$basic_string@DU?$char_traits@D@std@@V?$allocator@D@2@@std@@QAEAAV12@I@Z 00453b70 f i libboost_system-vc140-mt-1_63:error_code.obj
 0001:00052bb0       ?generic_category@system@boost@@YAABVerror_category@12@XZ 00453bb0 f   libboost_system-vc140-mt-1_63:error_code.obj
 0001:00052c50       ?length@?$char_traits@D@std@@SAIPBD@Z 00453c50 f i libboost_system-vc140-mt-1_63:error_code.obj
 0001:00052c70       ?make_error_condition@errc@system@boost@@YA?AVerror_condition@23@W4errc_t@123@@Z 00453c70 f i libboost_system-vc140-mt-1_63:error_code.obj
 0001:00052d30       ?max_size@?$_Wrap_alloc@V?$allocator@D@std@@@std@@QBEIU_Nil@2@@Z 00453d30 f i libboost_system-vc140-mt-1_63:error_code.obj
 0001:00052d40       ?max_size@?$allocator@D@std@@QBEIXZ 00453d40 f i libboost_system-vc140-mt-1_63:error_code.obj
 0001:00052d50       ?max_size@?$allocator_traits@V?$allocator@D@std@@@std@@SAIABV?$allocator@D@2@@Z 00453d50 f i libboost_system-vc140-mt-1_63:error_code.obj
 0001:00052d60       ?max_size@?$basic_string@DU?$char_traits@D@std@@V?$allocator@D@2@@std@@QBEIXZ 00453d60 f i libboost_system-vc140-mt-1_63:error_code.obj
 0001:00053220       ?move@?$char_traits@D@std@@SAPADPADPBDI@Z 00454220 f i libboost_system-vc140-mt-1_63:error_code.obj
 0001:00053260       ?select_on_container_copy_construction@?$_Wrap_alloc@V?$allocator@D@std@@@std@@QBE?AU12@U_Nil@2@@Z 00454260 f i libboost_system-vc140-mt-1_63:error_code.obj
 0001:00053270       ?select_on_container_copy_construction@?$allocator_traits@V?$allocator@D@std@@@std@@SA?AV?$allocator@D@2@ABV32@@Z 00454270 f i libboost_system-vc140-mt-1_63:error_code.obj
 0001:00053280       ?size@?$basic_string@DU?$char_traits@D@std@@V?$allocator@D@2@@std@@QBEIXZ 00454280 f i libboost_system-vc140-mt-1_63:error_code.obj
 0001:00053290       ?system_category@system@boost@@YAABVerror_category@12@XZ 00454290 f   libboost_system-vc140-mt-1_63:error_code.obj
 0001:00053330       ?value@error_code@system@boost@@QBEHXZ 00454330 f i libboost_system-vc140-mt-1_63:error_code.obj
 0001:00053340       ??$?0$$V@?$_Compressed_pair@U?$_Wrap_alloc@V?$allocator@U?$_Tree_node@U?$pair@QBXUtss_data_node@detail@boost@@@std@@PAX@std@@@std@@@std@@V?$_Tree_val@U?$_Tree_simple_types@U?$pair@QBXUtss_data_node@detail@boost@@@std@@@std@@@2@$00@std@@QAE@U_Zero_then_variadic_args_t@1@@Z 00454340 f i libboost_thread-vc140-mt-1_63:thread.obj
 0001:00053360       ??$?0$$V@?$_Compressed_pair@U?$_Wrap_alloc@V?$allocator@U?$pair@PAVcondition_variable@boost@@PAVmutex@2@@std@@@std@@@std@@V?$_Vector_val@U?$_Simple_types@U?$pair@PAVcondition_variable@boost@@PAVmutex@2@@std@@@std@@@2@$00@std@@QAE@U_Zero_then_variadic_args_t@1@@Z 00454360 f i libboost_thread-vc140-mt-1_63:thread.obj
 0001:00053380       ??$?0$$V@?$_Compressed_pair@U?$_Wrap_alloc@V?$allocator@U_SYSTEM_LOGICAL_PROCESSOR_INFORMATION@@@std@@@std@@V?$_Vector_val@U?$_Simple_types@U_SYSTEM_LOGICAL_PROCESSOR_INFORMATION@@@std@@@2@$00@std@@QAE@U_Zero_then_variadic_args_t@1@@Z 00454380 f i libboost_thread-vc140-mt-1_63:thread.obj
 0001:000533a0       ??$?0$$V@?$_Compressed_pair@U?$_Wrap_alloc@V?$allocator@V?$shared_ptr@Ushared_state_base@detail@boost@@@boost@@@std@@@std@@V?$_Vector_val@U?$_Simple_types@V?$shared_ptr@Ushared_state_base@detail@boost@@@boost@@@std@@@2@$00@std@@QAE@U_Zero_then_variadic_args_t@1@@Z 004543a0 f i libboost_thread-vc140-mt-1_63:thread.obj
 0001:000533c0       ??$?0AAPAVcondition_variable@boost@@AAPAVmutex@1@X$0A@@?$pair@PAVcondition_variable@boost@@PAVmutex@2@@std@@QAE@AAPAVcondition_variable@boost@@AAPAVmutex@3@@Z 004543c0 f i libboost_thread-vc140-mt-1_63:thread.obj
 0001:000533e0       ??$?0AAPBXUtss_data_node@detail@boost@@X$0A@@?$pair@PBXUtss_data_node@detail@boost@@@std@@QAE@AAPBX$$QAUtss_data_node@detail@boost@@@Z 004543e0 f i libboost_thread-vc140-mt-1_63:thread.obj
 0001:00053430       ??$?0AAV?$_Tree_const_iterator@V?$_Tree_val@U?$_Tree_simple_types@U?$pair@QBXUtss_data_node@detail@boost@@@std@@@std@@@std@@@std@@AAV01@X$0A@@?$pair@V?$_Tree_const_iterator@V?$_Tree_val@U?$_Tree_simple_types@U?$pair@QBXUtss_data_node@detail@boost@@@std@@@std@@@std@@@std@@V12@@std@@QAE@AAV?$_Tree_const_iterator@V?$_Tree_val@U?$_Tree_simple_types@U?$pair@QBXUtss_data_node@detail@boost@@@std@@@std@@@std@@@1@0@Z 00454430 f i libboost_thread-vc140-mt-1_63:thread.obj
 0001:00053450       ??$?0AAV?$_Tree_iterator@V?$_Tree_val@U?$_Tree_simple_types@U?$pair@QBXUtss_data_node@detail@boost@@@std@@@std@@@std@@@std@@AAV01@X$0A@@?$pair@V?$_Tree_iterator@V?$_Tree_val@U?$_Tree_simple_types@U?$pair@QBXUtss_data_node@detail@boost@@@std@@@std@@@std@@@std@@V12@@std@@QAE@AAV?$_Tree_iterator@V?$_Tree_val@U?$_Tree_simple_types@U?$pair@QBXUtss_data_node@detail@boost@@@std@@@std@@@std@@@1@0@Z 00454450 f i libboost_thread-vc140-mt-1_63:thread.obj
 0001:00053470       ??$?0AAV?$_Tree_iterator@V?$_Tree_val@U?$_Tree_simple_types@U?$pair@QBXUtss_data_node@detail@boost@@@std@@@std@@@std@@@std@@_NX$0A@@?$pair@V?$_Tree_iterator@V?$_Tree_val@U?$_Tree_simple_types@U?$pair@QBXUtss_data_node@detail@boost@@@std@@@std@@@std@@@std@@_N@std@@QAE@AAV?$_Tree_iterator@V?$_Tree_val@U?$_Tree_simple_types@U?$pair@QBXUtss_data_node@detail@boost@@@std@@@std@@@std@@@1@$$QA_N@Z 00454470 f i libboost_thread-vc140-mt-1_63:thread.obj
 0001:00053490       ??$?0ABU?$less@PBX@std@@U_Zero_then_variadic_args_t@1@@?$_Compressed_pair@U?$less@PBX@std@@V?$_Compressed_pair@U?$_Wrap_alloc@V?$allocator@U?$_Tree_node@U?$pair@QBXUtss_data_node@detail@boost@@@std@@PAX@std@@@std@@@std@@V?$_Tree_val@U?$_Tree_simple_types@U?$pair@QBXUtss_data_node@detail@boost@@@std@@@std@@@2@$00@2@$00@std@@QAE@U_One_then_variadic_args_t@1@ABU?$less@PBX@1@$$QAU_Zero_then_variadic_args_t@1@@Z 00454490 f i libboost_thread-vc140-mt-1_63:thread.obj
 0001:000534b0       ??$?0PBXUtss_data_node@detail@boost@@X$0A@@?$pair@QBXUtss_data_node@detail@boost@@@std@@QAE@$$QAU?$pair@PBXUtss_data_node@detail@boost@@@1@@Z 004544b0 f i libboost_thread-vc140-mt-1_63:thread.obj
 0001:00053500       ??$?0U?$integral_constant@_N$00@std@@@_Any_tag@std@@QAE@$$QAU?$integral_constant@_N$00@1@@Z 00454500 f i libboost_thread-vc140-mt-1_63:thread.obj
 0001:00053510       ??$?0V?$_Tree_iterator@V?$_Tree_val@U?$_Tree_simple_types@U?$pair@QBXUtss_data_node@detail@boost@@@std@@@std@@@std@@@std@@_NX$0A@@?$pair@V?$_Tree_iterator@V?$_Tree_val@U?$_Tree_simple_types@U?$pair@QBXUtss_data_node@detail@boost@@@std@@@std@@@std@@@std@@_N@std@@QAE@$$QAV?$_Tree_iterator@V?$_Tree_val@U?$_Tree_simple_types@U?$pair@QBXUtss_data_node@detail@boost@@@std@@@std@@@std@@@1@$$QA_N@Z 00454510 f i libboost_thread-vc140-mt-1_63:thread.obj
 0001:00053530       ??$?0V?$clone_impl@Ubad_alloc_@exception_detail@boost@@@exception_detail@boost@@@?$shared_ptr@$$CBVclone_base@exception_detail@boost@@@boost@@QAE@PAV?$clone_impl@Ubad_alloc_@exception_detail@boost@@@exception_detail@1@@Z 00454530 f i libboost_thread-vc140-mt-1_63:thread.obj
 0001:000535c0       ??$?0V?$clone_impl@Ubad_exception_@exception_detail@boost@@@exception_detail@boost@@@?$shared_ptr@$$CBVclone_base@exception_detail@boost@@@boost@@QAE@PAV?$clone_impl@Ubad_exception_@exception_detail@boost@@@exception_detail@1@@Z 004545c0 f i libboost_thread-vc140-mt-1_63:thread.obj
 0001:00053650       ??$?6V?$clone_impl@Ubad_alloc_@exception_detail@boost@@@exception_detail@boost@@Uthrow_file_@2@PBD@boost@@YAABV?$clone_impl@Ubad_alloc_@exception_detail@boost@@@exception_detail@0@ABV120@$$QAV?$error_info@Uthrow_file_@boost@@PBD@0@@Z 00454650 f i libboost_thread-vc140-mt-1_63:thread.obj
 0001:00053670       ??$?6V?$clone_impl@Ubad_alloc_@exception_detail@boost@@@exception_detail@boost@@Uthrow_function_@2@PBD@boost@@YAABV?$clone_impl@Ubad_alloc_@exception_detail@boost@@@exception_detail@0@ABV120@$$QAV?$error_info@Uthrow_function_@boost@@PBD@0@@Z 00454670 f i libboost_thread-vc140-mt-1_63:thread.obj
 0001:00053690       ??$?6V?$clone_impl@Ubad_alloc_@exception_detail@boost@@@exception_detail@boost@@Uthrow_line_@2@H@boost@@YAABV?$clone_impl@Ubad_alloc_@exception_detail@boost@@@exception_detail@0@ABV120@$$QAV?$error_info@Uthrow_line_@boost@@H@0@@Z 00454690 f i libboost_thread-vc140-mt-1_63:thread.obj
 0001:000536b0       ??$?6V?$clone_impl@Ubad_exception_@exception_detail@boost@@@exception_detail@boost@@Uthrow_file_@2@PBD@boost@@YAABV?$clone_impl@Ubad_exception_@exception_detail@boost@@@exception_detail@0@ABV120@$$QAV?$error_info@Uthrow_file_@boost@@PBD@0@@Z 004546b0 f i libboost_thread-vc140-mt-1_63:thread.obj
 0001:000536d0       ??$?6V?$clone_impl@Ubad_exception_@exception_detail@boost@@@exception_detail@boost@@Uthrow_function_@2@PBD@boost@@YAABV?$clone_impl@Ubad_exception_@exception_detail@boost@@@exception_detail@0@ABV120@$$QAV?$error_info@Uthrow_function_@boost@@PBD@0@@Z 004546d0 f i libboost_thread-vc140-mt-1_63:thread.obj
 0001:000536f0       ??$?6V?$clone_impl@Ubad_exception_@exception_detail@boost@@@exception_detail@boost@@Uthrow_line_@2@H@boost@@YAABV?$clone_impl@Ubad_exception_@exception_detail@boost@@@exception_detail@0@ABV120@$$QAV?$error_info@Uthrow_line_@boost@@H@0@@Z 004546f0 f i libboost_thread-vc140-mt-1_63:thread.obj
 0001:00053710       ??$_Buynode@U?$pair@PBXUtss_data_node@detail@boost@@@std@@@?$_Tree_comp_alloc@V?$_Tmap_traits@PBXUtss_data_node@detail@boost@@U?$less@PBX@std@@V?$allocator@U?$pair@QBXUtss_data_node@detail@boost@@@std@@@5@$0A@@std@@@std@@QAEPAU?$_Tree_node@U?$pair@QBXUtss_data_node@detail@boost@@@std@@PAX@1@$$QAU?$pair@PBXUtss_data_node@detail@boost@@@1@@Z 00454710 f i libboost_thread-vc140-mt-1_63:thread.obj
 0001:00053770       ??$_Buynode_if_nil@AAU?$pair@QBXUtss_data_node@detail@boost@@@std@@@?$_Tree@V?$_Tmap_traits@PBXUtss_data_node@detail@boost@@U?$less@PBX@std@@V?$allocator@U?$pair@QBXUtss_data_node@detail@boost@@@std@@@5@$0A@@std@@@std@@IAEPAU?$_Tree_node@U?$pair@QBXUtss_data_node@detail@boost@@@std@@PAX@1@PAU21@AAU?$pair@QBXUtss_data_node@detail@boost@@@1@@Z 00454770 f i libboost_thread-vc140-mt-1_63:thread.obj
 0001:00053780       ??$_Destroy_range1@V?$allocator@U?$pair@PAVcondition_variable@boost@@PAVmutex@2@@std@@@std@@PAU?$pair@PAVcondition_variable@boost@@PAVmutex@2@@2@@std@@YAXPAU?$pair@PAVcondition_variable@boost@@PAVmutex@2@@0@0AAU?$_Wrap_alloc@V?$allocator@U?$pair@PAVcondition_variable@boost@@PAVmutex@2@@std@@@std@@@0@U?$integral_constant@_N$00@0@@Z 00454780 f i libboost_thread-vc140-mt-1_63:thread.obj
 0001:00053790       ??$_Destroy_range1@V?$allocator@U_SYSTEM_LOGICAL_PROCESSOR_INFORMATION@@@std@@PAU_SYSTEM_LOGICAL_PROCESSOR_INFORMATION@@@std@@YAXPAU_SYSTEM_LOGICAL_PROCESSOR_INFORMATION@@0AAU?$_Wrap_alloc@V?$allocator@U_SYSTEM_LOGICAL_PROCESSOR_INFORMATION@@@std@@@0@U?$integral_constant@_N$00@0@@Z 00454790 f i libboost_thread-vc140-mt-1_63:thread.obj
 0001:000537a0       ??$_Destroy_range@V?$allocator@U?$pair@PAVcondition_variable@boost@@PAVmutex@2@@std@@@std@@PAU?$pair@PAVcondition_variable@boost@@PAVmutex@2@@2@@std@@YAXPAU?$pair@PAVcondition_variable@boost@@PAVmutex@2@@0@0AAU?$_Wrap_alloc@V?$allocator@U?$pair@PAVcondition_variable@boost@@PAVmutex@2@@std@@@std@@@0@@Z 004547a0 f i libboost_thread-vc140-mt-1_63:thread.obj
 0001:000537b0       ??$_Destroy_range@V?$allocator@U_SYSTEM_LOGICAL_PROCESSOR_INFORMATION@@@std@@PAU_SYSTEM_LOGICAL_PROCESSOR_INFORMATION@@@std@@YAXPAU_SYSTEM_LOGICAL_PROCESSOR_INFORMATION@@0AAU?$_Wrap_alloc@V?$allocator@U_SYSTEM_LOGICAL_PROCESSOR_INFORMATION@@@std@@@0@@Z 004547b0 f i libboost_thread-vc140-mt-1_63:thread.obj
 0001:000537c0       ??$_Destroy_range@V?$allocator@V?$intrusive_ptr@Vbasic_cv_list_entry@detail@boost@@@boost@@@std@@PAV?$intrusive_ptr@Vbasic_cv_list_entry@detail@boost@@@boost@@@std@@YAXPAV?$intrusive_ptr@Vbasic_cv_list_entry@detail@boost@@@boost@@0AAU?$_Wrap_alloc@V?$allocator@V?$intrusive_ptr@Vbasic_cv_list_entry@detail@boost@@@boost@@@std@@@0@@Z 004547c0 f i libboost_thread-vc140-mt-1_63:thread.obj
 0001:000537e0       ??$_Destroy_range@V?$allocator@V?$shared_ptr@Ushared_state_base@detail@boost@@@boost@@@std@@PAV?$shared_ptr@Ushared_state_base@detail@boost@@@boost@@@std@@YAXPAV?$shared_ptr@Ushared_state_base@detail@boost@@@boost@@0AAU?$_Wrap_alloc@V?$allocator@V?$shared_ptr@Ushared_state_base@detail@boost@@@boost@@@std@@@0@@Z 004547e0 f i libboost_thread-vc140-mt-1_63:thread.obj
 0001:00053800       ??$_Distance1@V?$_Tree_iterator@V?$_Tree_val@U?$_Tree_simple_types@U?$pair@QBXUtss_data_node@detail@boost@@@std@@@std@@@std@@@std@@@std@@YAHV?$_Tree_iterator@V?$_Tree_val@U?$_Tree_simple_types@U?$pair@QBXUtss_data_node@detail@boost@@@std@@@std@@@std@@@0@0Uinput_iterator_tag@0@@Z 00454800 f i libboost_thread-vc140-mt-1_63:thread.obj
 0001:00053880       ??$_Eqrange@PBX@?$_Tree@V?$_Tmap_traits@PBXUtss_data_node@detail@boost@@U?$less@PBX@std@@V?$allocator@U?$pair@QBXUtss_data_node@detail@boost@@@std@@@5@$0A@@std@@@std@@IAE?AU?$pair@V?$_Tree_iterator@V?$_Tree_val@U?$_Tree_simple_types@U?$pair@QBXUtss_data_node@detail@boost@@@std@@@std@@@std@@@std@@V12@@1@ABQBX@Z 00454880 f i libboost_thread-vc140-mt-1_63:thread.obj
 0001:000538b0       ??$_Eqrange@PBX@?$_Tree@V?$_Tmap_traits@PBXUtss_data_node@detail@boost@@U?$less@PBX@std@@V?$allocator@U?$pair@QBXUtss_data_node@detail@boost@@@std@@@5@$0A@@std@@@std@@IBE?AU?$pair@V?$_Tree_const_iterator@V?$_Tree_val@U?$_Tree_simple_types@U?$pair@QBXUtss_data_node@detail@boost@@@std@@@std@@@std@@@std@@V12@@1@ABQBX@Z 004548b0 f i libboost_thread-vc140-mt-1_63:thread.obj
 0001:00053950       ??$_Insert_at@AAU?$pair@QBXUtss_data_node@detail@boost@@@std@@PAU?$_Tree_node@U?$pair@QBXUtss_data_node@detail@boost@@@std@@PAX@2@@?$_Tree@V?$_Tmap_traits@PBXUtss_data_node@detail@boost@@U?$less@PBX@std@@V?$allocator@U?$pair@QBXUtss_data_node@detail@boost@@@std@@@5@$0A@@std@@@std@@IAE?AV?$_Tree_iterator@V?$_Tree_val@U?$_Tree_simple_types@U?$pair@QBXUtss_data_node@detail@boost@@@std@@@std@@@std@@@1@_NPAU?$_Tree_node@U?$pair@QBXUtss_data_node@detail@boost@@@std@@PAX@1@AAU?$pair@QBXUtss_data_node@detail@boost@@@1@1@Z 00454950 f i libboost_thread-vc140-mt-1_63:thread.obj
 0001:00053b50       ??$_Insert_nohint@AAU?$pair@QBXUtss_data_node@detail@boost@@@std@@PAU?$_Tree_node@U?$pair@QBXUtss_data_node@detail@boost@@@std@@PAX@2@@?$_Tree@V?$_Tmap_traits@PBXUtss_data_node@detail@boost@@U?$less@PBX@std@@V?$allocator@U?$pair@QBXUtss_data_node@detail@boost@@@std@@@5@$0A@@std@@@std@@IAE?AU?$pair@V?$_Tree_iterator@V?$_Tree_val@U?$_Tree_simple_types@U?$pair@QBXUtss_data_node@detail@boost@@@std@@@std@@@std@@@std@@_N@1@_NAAU?$pair@QBXUtss_data_node@detail@boost@@@1@PAU?$_Tree_node@U?$pair@QBXUtss_data_node@detail@boost@@@std@@PAX@1@@Z 00454b50 f i libboost_thread-vc140-mt-1_63:thread.obj
 0001:00053cb0       ??$_Kfn@QBXUtss_data_node@detail@boost@@@?$_Tmap_traits@PBXUtss_data_node@detail@boost@@U?$less@PBX@std@@V?$allocator@U?$pair@QBXUtss_data_node@detail@boost@@@std@@@5@$0A@@std@@SAABQBXABU?$pair@QBXUtss_data_node@detail@boost@@@1@@Z 00454cb0 f i libboost_thread-vc140-mt-1_63:thread.obj
 0001:00053cc0       ??$_Lbound@PBX@?$_Tree@V?$_Tmap_traits@PBXUtss_data_node@detail@boost@@U?$less@PBX@std@@V?$allocator@U?$pair@QBXUtss_data_node@detail@boost@@@std@@@5@$0A@@std@@@std@@IBEPAU?$_Tree_node@U?$pair@QBXUtss_data_node@detail@boost@@@std@@PAX@1@ABQBX@Z 00454cc0 f i libboost_thread-vc140-mt-1_63:thread.obj
 0001:00053d00       ??$_Ptr_move_cat@U?$pair@PAVcondition_variable@boost@@PAVmutex@2@@std@@U12@@std@@YA?AU_General_ptr_iterator_tag@0@ABQAU?$pair@PAVcondition_variable@boost@@PAVmutex@2@@0@0@Z 00454d00 f i libboost_thread-vc140-mt-1_63:thread.obj
 0001:00053d10       ??$_Rechecked@PAU?$pair@PAVcondition_variable@boost@@PAVmutex@2@@std@@PAU12@@std@@YAAAPAU?$pair@PAVcondition_variable@boost@@PAVmutex@2@@0@AAPAU10@PAU10@@Z 00454d10 f i libboost_thread-vc140-mt-1_63:thread.obj
 0001:00053d20       ??$_Umove@PAU?$pair@PAVcondition_variable@boost@@PAVmutex@2@@std@@@?$vector@U?$pair@PAVcondition_variable@boost@@PAVmutex@2@@std@@V?$allocator@U?$pair@PAVcondition_variable@boost@@PAVmutex@2@@std@@@2@@std@@IAEPAU?$pair@PAVcondition_variable@boost@@PAVmutex@2@@1@PAU21@00@Z 00454d20 f i libboost_thread-vc140-mt-1_63:thread.obj
 0001:00053d50       ??$_Unchecked@PAU?$pair@PAVcondition_variable@boost@@PAVmutex@2@@std@@@std@@YAPAU?$pair@PAVcondition_variable@boost@@PAVmutex@2@@0@PAU10@@Z 00454d50 f i libboost_thread-vc140-mt-1_63:thread.obj
 0001:00053d60       ??$_Unfancy@U?$pair@PAVcondition_variable@boost@@PAVmutex@2@@std@@@std@@YAPAU?$pair@PAVcondition_variable@boost@@PAVmutex@2@@0@PAU10@@Z 00454d60 f i libboost_thread-vc140-mt-1_63:thread.obj
 0001:00053d70       ??$_Unfancy@U_SYSTEM_LOGICAL_PROCESSOR_INFORMATION@@@std@@YAPAU_SYSTEM_LOGICAL_PROCESSOR_INFORMATION@@PAU1@@Z 00454d70 f i libboost_thread-vc140-mt-1_63:thread.obj
 0001:00053d80       ??$_Unfancy@V?$intrusive_ptr@Vbasic_cv_list_entry@detail@boost@@@boost@@@std@@YAPAV?$intrusive_ptr@Vbasic_cv_list_entry@detail@boost@@@boost@@PAV12@@Z 00454d80 f i libboost_thread-vc140-mt-1_63:thread.obj
 0001:00053d90       ??$_Unfancy@V?$shared_ptr@Ushared_state_base@detail@boost@@@boost@@@std@@YAPAV?$shared_ptr@Ushared_state_base@detail@boost@@@boost@@PAV12@@Z 00454d90 f i libboost_thread-vc140-mt-1_63:thread.obj
 0001:00053da0       ??$_Uninitialized_default_fill_n1@PAU_SYSTEM_LOGICAL_PROCESSOR_INFORMATION@@IV?$allocator@U_SYSTEM_LOGICAL_PROCESSOR_INFORMATION@@@std@@@std@@YAXPAU_SYSTEM_LOGICAL_PROCESSOR_INFORMATION@@IAAU?$_Wrap_alloc@V?$allocator@U_SYSTEM_LOGICAL_PROCESSOR_INFORMATION@@@std@@@0@U?$integral_constant@_N$0A@@0@@Z 00454da0 f i libboost_thread-vc140-mt-1_63:thread.obj
 0001:00053de0       ??$_Uninitialized_default_fill_n@PAU_SYSTEM_LOGICAL_PROCESSOR_INFORMATION@@IV?$allocator@U_SYSTEM_LOGICAL_PROCESSOR_INFORMATION@@@std@@@std@@YAXPAU_SYSTEM_LOGICAL_PROCESSOR_INFORMATION@@IAAU?$_Wrap_alloc@V?$allocator@U_SYSTEM_LOGICAL_PROCESSOR_INFORMATION@@@std@@@0@@Z 00454de0 f i libboost_thread-vc140-mt-1_63:thread.obj
 0001:00053e00       ??$_Uninitialized_move@PAU?$pair@PAVcondition_variable@boost@@PAVmutex@2@@std@@PAU12@V?$allocator@U?$pair@PAVcondition_variable@boost@@PAVmutex@2@@std@@@2@@std@@YAPAU?$pair@PAVcondition_variable@boost@@PAVmutex@2@@0@PAU10@00AAU?$_Wrap_alloc@V?$allocator@U?$pair@PAVcondition_variable@boost@@PAVmutex@2@@std@@@std@@@0@@Z 00454e00 f i libboost_thread-vc140-mt-1_63:thread.obj
 0001:00053e30       ??$_Uninitialized_move_al_unchecked@PAU?$pair@PAVcondition_variable@boost@@PAVmutex@2@@std@@PAU12@V?$allocator@U?$pair@PAVcondition_variable@boost@@PAVmutex@2@@std@@@2@@std@@YAPAU?$pair@PAVcondition_variable@boost@@PAVmutex@2@@0@PAU10@00AAU?$_Wrap_alloc@V?$allocator@U?$pair@PAVcondition_variable@boost@@PAVmutex@2@@std@@@std@@@0@@Z 00454e30 f i libboost_thread-vc140-mt-1_63:thread.obj
 0001:00053e60       ??$absolute_value@H@date_time@boost@@YAHH@Z 00454e60 f i libboost_thread-vc140-mt-1_63:thread.obj
 0001:00053e70       ??$absolute_value@_J@date_time@boost@@YA_J_J@Z 00454e70 f i libboost_thread-vc140-mt-1_63:thread.obj
 0001:00053e90       ??$addressof@PAU?$_Tree_node@U?$pair@QBXUtss_data_node@detail@boost@@@std@@PAX@std@@@std@@YAPAPAU?$_Tree_node@U?$pair@QBXUtss_data_node@detail@boost@@@std@@PAX@0@AAPAU10@@Z 00454e90 f i libboost_thread-vc140-mt-1_63:thread.obj
 0001:00053ea0       ??$addressof@U?$pair@PAVcondition_variable@boost@@PAVmutex@2@@std@@@std@@YAPAU?$pair@PAVcondition_variable@boost@@PAVmutex@2@@0@AAU10@@Z 00454ea0 f i libboost_thread-vc140-mt-1_63:thread.obj
 0001:00053eb0       ??$addressof@U?$pair@QBXUtss_data_node@detail@boost@@@std@@@std@@YAPAU?$pair@QBXUtss_data_node@detail@boost@@@0@AAU10@@Z 00454eb0 f i libboost_thread-vc140-mt-1_63:thread.obj
 0001:00053ec0       ??$checked_delete@V?$clone_impl@Ubad_alloc_@exception_detail@boost@@@exception_detail@boost@@@boost@@YAXPAV?$clone_impl@Ubad_alloc_@exception_detail@boost@@@exception_detail@0@@Z 00454ec0 f i libboost_thread-vc140-mt-1_63:thread.obj
 0001:00053ee0       ??$checked_delete@V?$clone_impl@Ubad_exception_@exception_detail@boost@@@exception_detail@boost@@@boost@@YAXPAV?$clone_impl@Ubad_exception_@exception_detail@boost@@@exception_detail@0@@Z 00454ee0 f i libboost_thread-vc140-mt-1_63:thread.obj
 0001:00053f00       ??$construct@PAU?$_Tree_node@U?$pair@QBXUtss_data_node@detail@boost@@@std@@PAX@std@@AAPAU12@@?$_Wrap_alloc@V?$allocator@U?$_Tree_node@U?$pair@QBXUtss_data_node@detail@boost@@@std@@PAX@std@@@std@@@std@@QAEXPAPAU?$_Tree_node@U?$pair@QBXUtss_data_node@detail@boost@@@std@@PAX@1@AAPAU21@@Z 00454f00 f i libboost_thread-vc140-mt-1_63:thread.obj
 0001:00053f20       ??$construct@PAU?$_Tree_node@U?$pair@QBXUtss_data_node@detail@boost@@@std@@PAX@std@@AAPAU12@@?$allocator@U?$_Tree_node@U?$pair@QBXUtss_data_node@detail@boost@@@std@@PAX@std@@@std@@QAEXPAPAU?$_Tree_node@U?$pair@QBXUtss_data_node@detail@boost@@@std@@PAX@1@AAPAU21@@Z 00454f20 f i libboost_thread-vc140-mt-1_63:thread.obj
 0001:00053f40       ??$construct@PAU?$_Tree_node@U?$pair@QBXUtss_data_node@detail@boost@@@std@@PAX@std@@AAPAU12@@?$allocator_traits@V?$allocator@U?$_Tree_node@U?$pair@QBXUtss_data_node@detail@boost@@@std@@PAX@std@@@std@@@std@@SAXAAV?$allocator@U?$_Tree_node@U?$pair@QBXUtss_data_node@detail@boost@@@std@@PAX@std@@@1@PAPAU?$_Tree_node@U?$pair@QBXUtss_data_node@detail@boost@@@std@@PAX@1@AAPAU31@@Z 00454f40 f i libboost_thread-vc140-mt-1_63:thread.obj
 0001:00053f60       ??$construct@U?$pair@PAVcondition_variable@boost@@PAVmutex@2@@std@@U12@@?$_Wrap_alloc@V?$allocator@U?$pair@PAVcondition_variable@boost@@PAVmutex@2@@std@@@std@@@std@@QAEXPAU?$pair@PAVcondition_variable@boost@@PAVmutex@2@@1@$$QAU21@@Z 00454f60 f i libboost_thread-vc140-mt-1_63:thread.obj
 0001:00053f80       ??$construct@U?$pair@PAVcondition_variable@boost@@PAVmutex@2@@std@@U12@@?$allocator@U?$pair@PAVcondition_variable@boost@@PAVmutex@2@@std@@@std@@QAEXPAU?$pair@PAVcondition_variable@boost@@PAVmutex@2@@1@$$QAU21@@Z 00454f80 f i libboost_thread-vc140-mt-1_63:thread.obj
 0001:00053fa0       ??$construct@U?$pair@PAVcondition_variable@boost@@PAVmutex@2@@std@@U12@@?$allocator_traits@V?$allocator@U?$pair@PAVcondition_variable@boost@@PAVmutex@2@@std@@@std@@@std@@SAXAAV?$allocator@U?$pair@PAVcondition_variable@boost@@PAVmutex@2@@std@@@1@PAU?$pair@PAVcondition_variable@boost@@PAVmutex@2@@1@$$QAU31@@Z 00454fa0 f i libboost_thread-vc140-mt-1_63:thread.obj
 0001:00053fc0       ??$construct@U?$pair@QBXUtss_data_node@detail@boost@@@std@@U?$pair@PBXUtss_data_node@detail@boost@@@2@@?$_Wrap_alloc@V?$allocator@U?$_Tree_node@U?$pair@QBXUtss_data_node@detail@boost@@@std@@PAX@std@@@std@@@std@@QAEXPAU?$pair@QBXUtss_data_node@detail@boost@@@1@$$QAU?$pair@PBXUtss_data_node@detail@boost@@@1@@Z 00454fc0 f i libboost_thread-vc140-mt-1_63:thread.obj
 0001:00054010       ??$construct@U?$pair@QBXUtss_data_node@detail@boost@@@std@@U?$pair@PBXUtss_data_node@detail@boost@@@2@@?$allocator@U?$_Tree_node@U?$pair@QBXUtss_data_node@detail@boost@@@std@@PAX@std@@@std@@QAEXPAU?$pair@QBXUtss_data_node@detail@boost@@@1@$$QAU?$pair@PBXUtss_data_node@detail@boost@@@1@@Z 00455010 f i libboost_thread-vc140-mt-1_63:thread.obj
 0001:00054060       ??$construct@U?$pair@QBXUtss_data_node@detail@boost@@@std@@U?$pair@PBXUtss_data_node@detail@boost@@@2@@?$allocator_traits@V?$allocator@U?$_Tree_node@U?$pair@QBXUtss_data_node@detail@boost@@@std@@PAX@std@@@std@@@std@@SAXAAV?$allocator@U?$_Tree_node@U?$pair@QBXUtss_data_node@detail@boost@@@std@@PAX@std@@@1@PAU?$pair@QBXUtss_data_node@detail@boost@@@1@$$QAU?$pair@PBXUtss_data_node@detail@boost@@@1@@Z 00455060 f i libboost_thread-vc140-mt-1_63:thread.obj
 0001:000540b0       ??$construct@U_SYSTEM_LOGICAL_PROCESSOR_INFORMATION@@$$V@?$_Wrap_alloc@V?$allocator@U_SYSTEM_LOGICAL_PROCESSOR_INFORMATION@@@std@@@std@@QAEXPAU_SYSTEM_LOGICAL_PROCESSOR_INFORMATION@@@Z 004550b0 f i libboost_thread-vc140-mt-1_63:thread.obj
 0001:000540d0       ??$construct@U_SYSTEM_LOGICAL_PROCESSOR_INFORMATION@@$$V@?$allocator@U_SYSTEM_LOGICAL_PROCESSOR_INFORMATION@@@std@@QAEXPAU_SYSTEM_LOGICAL_PROCESSOR_INFORMATION@@@Z 004550d0 f i libboost_thread-vc140-mt-1_63:thread.obj
 0001:000540f0       ??$construct@U_SYSTEM_LOGICAL_PROCESSOR_INFORMATION@@$$V@?$allocator_traits@V?$allocator@U_SYSTEM_LOGICAL_PROCESSOR_INFORMATION@@@std@@@std@@SAXAAV?$allocator@U_SYSTEM_LOGICAL_PROCESSOR_INFORMATION@@@1@PAU_SYSTEM_LOGICAL_PROCESSOR_INFORMATION@@@Z 004550f0 f i libboost_thread-vc140-mt-1_63:thread.obj
 0001:00054110       ??$destroy@PAU?$_Tree_node@U?$pair@QBXUtss_data_node@detail@boost@@@std@@PAX@std@@@?$_Wrap_alloc@V?$allocator@U?$_Tree_node@U?$pair@QBXUtss_data_node@detail@boost@@@std@@PAX@std@@@std@@@std@@QAEXPAPAU?$_Tree_node@U?$pair@QBXUtss_data_node@detail@boost@@@std@@PAX@1@@Z 00455110 f i libboost_thread-vc140-mt-1_63:thread.obj
 0001:00054120       ??$destroy@PAU?$_Tree_node@U?$pair@QBXUtss_data_node@detail@boost@@@std@@PAX@std@@@?$allocator@U?$_Tree_node@U?$pair@QBXUtss_data_node@detail@boost@@@std@@PAX@std@@@std@@QAEXPAPAU?$_Tree_node@U?$pair@QBXUtss_data_node@detail@boost@@@std@@PAX@1@@Z 00455120 f i libboost_thread-vc140-mt-1_63:thread.obj
 0001:00054130       ??$destroy@PAU?$_Tree_node@U?$pair@QBXUtss_data_node@detail@boost@@@std@@PAX@std@@@?$allocator_traits@V?$allocator@U?$_Tree_node@U?$pair@QBXUtss_data_node@detail@boost@@@std@@PAX@std@@@std@@@std@@SAXAAV?$allocator@U?$_Tree_node@U?$pair@QBXUtss_data_node@detail@boost@@@std@@PAX@std@@@1@PAPAU?$_Tree_node@U?$pair@QBXUtss_data_node@detail@boost@@@std@@PAX@1@@Z 00455130 f i libboost_thread-vc140-mt-1_63:thread.obj
 0001:00054140       ??$destroy@U?$pair@QBXUtss_data_node@detail@boost@@@std@@@?$_Wrap_alloc@V?$allocator@U?$_Tree_node@U?$pair@QBXUtss_data_node@detail@boost@@@std@@PAX@std@@@std@@@std@@QAEXPAU?$pair@QBXUtss_data_node@detail@boost@@@1@@Z 00455140 f i libboost_thread-vc140-mt-1_63:thread.obj
 0001:000541d0       ??$destroy@U?$pair@QBXUtss_data_node@detail@boost@@@std@@@?$allocator@U?$_Tree_node@U?$pair@QBXUtss_data_node@detail@boost@@@std@@PAX@std@@@std@@QAEXPAU?$pair@QBXUtss_data_node@detail@boost@@@1@@Z 004551d0 f i libboost_thread-vc140-mt-1_63:thread.obj
 0001:00054260       ??$destroy@U?$pair@QBXUtss_data_node@detail@boost@@@std@@@?$allocator_traits@V?$allocator@U?$_Tree_node@U?$pair@QBXUtss_data_node@detail@boost@@@std@@PAX@std@@@std@@@std@@SAXAAV?$allocator@U?$_Tree_node@U?$pair@QBXUtss_data_node@detail@boost@@@std@@PAX@std@@@1@PAU?$pair@QBXUtss_data_node@detail@boost@@@1@@Z 00455260 f i libboost_thread-vc140-mt-1_63:thread.obj
 0001:000542f0       ??$destroy@V?$intrusive_ptr@Vbasic_cv_list_entry@detail@boost@@@boost@@@?$_Wrap_alloc@V?$allocator@V?$intrusive_ptr@Vbasic_cv_list_entry@detail@boost@@@boost@@@std@@@std@@QAEXPAV?$intrusive_ptr@Vbasic_cv_list_entry@detail@boost@@@boost@@@Z 004552f0 f i libboost_thread-vc140-mt-1_63:thread.obj
 0001:00054350       ??$destroy@V?$intrusive_ptr@Vbasic_cv_list_entry@detail@boost@@@boost@@@?$allocator@V?$intrusive_ptr@Vbasic_cv_list_entry@detail@boost@@@boost@@@std@@QAEXPAV?$intrusive_ptr@Vbasic_cv_list_entry@detail@boost@@@boost@@@Z 00455350 f i libboost_thread-vc140-mt-1_63:thread.obj
 0001:000543b0       ??$destroy@V?$intrusive_ptr@Vbasic_cv_list_entry@detail@boost@@@boost@@@?$allocator_traits@V?$allocator@V?$intrusive_ptr@Vbasic_cv_list_entry@detail@boost@@@boost@@@std@@@std@@SAXAAV?$allocator@V?$intrusive_ptr@Vbasic_cv_list_entry@detail@boost@@@boost@@@1@PAV?$intrusive_ptr@Vbasic_cv_list_entry@detail@boost@@@boost@@@Z 004553b0 f i libboost_thread-vc140-mt-1_63:thread.obj
 0001:00054410       ??$destroy@V?$shared_ptr@Ushared_state_base@detail@boost@@@boost@@@?$_Wrap_alloc@V?$allocator@V?$shared_ptr@Ushared_state_base@detail@boost@@@boost@@@std@@@std@@QAEXPAV?$shared_ptr@Ushared_state_base@detail@boost@@@boost@@@Z 00455410 f i libboost_thread-vc140-mt-1_63:thread.obj
 0001:000544a0       ??$destroy@V?$shared_ptr@Ushared_state_base@detail@boost@@@boost@@@?$allocator@V?$shared_ptr@Ushared_state_base@detail@boost@@@boost@@@std@@QAEXPAV?$shared_ptr@Ushared_state_base@detail@boost@@@boost@@@Z 004554a0 f i libboost_thread-vc140-mt-1_63:thread.obj
 0001:00054530       ??$destroy@V?$shared_ptr@Ushared_state_base@detail@boost@@@boost@@@?$allocator_traits@V?$allocator@V?$shared_ptr@Ushared_state_base@detail@boost@@@boost@@@std@@@std@@SAXAAV?$allocator@V?$shared_ptr@Ushared_state_base@detail@boost@@@boost@@@1@PAV?$shared_ptr@Ushared_state_base@detail@boost@@@boost@@@Z 00455530 f i libboost_thread-vc140-mt-1_63:thread.obj
 0001:000545c0       ??$distance@V?$_Tree_iterator@V?$_Tree_val@U?$_Tree_simple_types@U?$pair@QBXUtss_data_node@detail@boost@@@std@@@std@@@std@@@std@@@std@@YAHV?$_Tree_iterator@V?$_Tree_val@U?$_Tree_simple_types@U?$pair@QBXUtss_data_node@detail@boost@@@std@@@std@@@std@@@0@0@Z 004555c0 f i libboost_thread-vc140-mt-1_63:thread.obj
 0001:000545e0       ??$emplace@U?$pair@PBXUtss_data_node@detail@boost@@@std@@@?$_Tree@V?$_Tmap_traits@PBXUtss_data_node@detail@boost@@U?$less@PBX@std@@V?$allocator@U?$pair@QBXUtss_data_node@detail@boost@@@std@@@5@$0A@@std@@@std@@QAE?AU?$pair@V?$_Tree_iterator@V?$_Tree_val@U?$_Tree_simple_types@U?$pair@QBXUtss_data_node@detail@boost@@@std@@@std@@@std@@@std@@_N@1@$$QAU?$pair@PBXUtss_data_node@detail@boost@@@1@@Z 004555e0 f i libboost_thread-vc140-mt-1_63:thread.obj
 0001:00054610       ??$file_time_to_microseconds@U_FILETIME@@@winapi@date_time@boost@@YA_KABU_FILETIME@@@Z 00455610 f i libboost_thread-vc140-mt-1_63:thread.obj
 0001:00054640       ??$forward@AAPAU?$_Tree_node@U?$pair@QBXUtss_data_node@detail@boost@@@std@@PAX@std@@@std@@YAAAPAU?$_Tree_node@U?$pair@QBXUtss_data_node@detail@boost@@@std@@PAX@0@AAPAU10@@Z 00455640 f i libboost_thread-vc140-mt-1_63:thread.obj
 0001:00054650       ??$forward@AAPAVcondition_variable@boost@@@std@@YAAAPAVcondition_variable@boost@@AAPAV12@@Z 00455650 f i libboost_thread-vc140-mt-1_63:thread.obj
 0001:00054660       ??$forward@AAPAVmutex@boost@@@std@@YAAAPAVmutex@boost@@AAPAV12@@Z 00455660 f i libboost_thread-vc140-mt-1_63:thread.obj
 0001:00054670       ??$forward@AAPBX@std@@YAAAPBXAAPBX@Z 00455670 f i libboost_thread-vc140-mt-1_63:thread.obj
 0001:00054680       ??$forward@AAU?$pair@QBXUtss_data_node@detail@boost@@@std@@@std@@YAAAU?$pair@QBXUtss_data_node@detail@boost@@@0@AAU10@@Z 00455680 f i libboost_thread-vc140-mt-1_63:thread.obj
 0001:00054690       ??$forward@AAV?$_Tree_const_iterator@V?$_Tree_val@U?$_Tree_simple_types@U?$pair@QBXUtss_data_node@detail@boost@@@std@@@std@@@std@@@std@@@std@@YAAAV?$_Tree_const_iterator@V?$_Tree_val@U?$_Tree_simple_types@U?$pair@QBXUtss_data_node@detail@boost@@@std@@@std@@@std@@@0@AAV10@@Z 00455690 f i libboost_thread-vc140-mt-1_63:thread.obj
 0001:000546a0       ??$forward@AAV?$_Tree_iterator@V?$_Tree_val@U?$_Tree_simple_types@U?$pair@QBXUtss_data_node@detail@boost@@@std@@@std@@@std@@@std@@@std@@YAAAV?$_Tree_iterator@V?$_Tree_val@U?$_Tree_simple_types@U?$pair@QBXUtss_data_node@detail@boost@@@std@@@std@@@std@@@0@AAV10@@Z 004556a0 f i libboost_thread-vc140-mt-1_63:thread.obj
 0001:000546b0       ??$forward@ABU?$less@PBX@std@@@std@@YAABU?$less@PBX@0@ABU10@@Z 004556b0 f i libboost_thread-vc140-mt-1_63:thread.obj
 0001:000546c0       ??$forward@PBX@std@@YA$$QAPBXAAPBX@Z 004556c0 f i libboost_thread-vc140-mt-1_63:thread.obj
 0001:000546d0       ??$forward@U?$pair@PAVcondition_variable@boost@@PAVmutex@2@@std@@@std@@YA$$QAU?$pair@PAVcondition_variable@boost@@PAVmutex@2@@0@AAU10@@Z 004556d0 f i libboost_thread-vc140-mt-1_63:thread.obj
 0001:000546e0       ??$forward@U?$pair@PBXUtss_data_node@detail@boost@@@std@@@std@@YA$$QAU?$pair@PBXUtss_data_node@detail@boost@@@0@AAU10@@Z 004556e0 f i libboost_thread-vc140-mt-1_63:thread.obj
 0001:000546f0       ??$forward@U_Zero_then_variadic_args_t@std@@@std@@YA$$QAU_Zero_then_variadic_args_t@0@AAU10@@Z 004556f0 f i libboost_thread-vc140-mt-1_63:thread.obj
 0001:00054700       ??$forward@Utss_data_node@detail@boost@@@std@@YA$$QAUtss_data_node@detail@boost@@AAU123@@Z 00455700 f i libboost_thread-vc140-mt-1_63:thread.obj
 0001:00054710       ??$forward@V?$_Tree_iterator@V?$_Tree_val@U?$_Tree_simple_types@U?$pair@QBXUtss_data_node@detail@boost@@@std@@@std@@@std@@@std@@@std@@YA$$QAV?$_Tree_iterator@V?$_Tree_val@U?$_Tree_simple_types@U?$pair@QBXUtss_data_node@detail@boost@@@std@@@std@@@std@@@0@AAV10@@Z 00455710 f i libboost_thread-vc140-mt-1_63:thread.obj
 0001:00054720       ??$forward@_N@std@@YA$$QA_NAA_N@Z 00455720 f i libboost_thread-vc140-mt-1_63:thread.obj
 0001:00054730       ??$heap_delete@Uexternally_launched_thread@?A0xc9bd54fe@boost@@@detail@boost@@YAXPAUexternally_launched_thread@?A0xc9bd54fe@1@@Z 00455730 f i libboost_thread-vc140-mt-1_63:thread.obj
 0001:00054760       ??$heap_delete@Uthread_data_base@detail@boost@@@detail@boost@@YAXPAUthread_data_base@01@@Z 00455760 f i libboost_thread-vc140-mt-1_63:thread.obj
 0001:00054790       ??$heap_delete@Uthread_exit_callback_node@detail@boost@@@detail@boost@@YAXPAUthread_exit_callback_node@01@@Z 00455790 f i libboost_thread-vc140-mt-1_63:thread.obj
 0001:000547b0       ??$heap_delete@Uthread_exit_function_base@detail@boost@@@detail@boost@@YAXPAUthread_exit_function_base@01@@Z 004557b0 f i libboost_thread-vc140-mt-1_63:thread.obj
 0001:000547e0       ??$heap_new@Uexternally_launched_thread@?A0xc9bd54fe@boost@@@detail@boost@@YAPAUexternally_launched_thread@?A0xc9bd54fe@1@XZ 004557e0 f i libboost_thread-vc140-mt-1_63:thread.obj
 0001:000548d0       ??$heap_new@Uthread_exit_callback_node@detail@boost@@AAPAUthread_exit_function_base@23@AAPAU123@@detail@boost@@YAPAUthread_exit_callback_node@01@AAPAUthread_exit_function_base@01@AAPAU201@@Z 004558d0 f i libboost_thread-vc140-mt-1_63:thread.obj
 0001:00054970       ??$insert@U?$pair@PBXUtss_data_node@detail@boost@@@std@@X@?$map@PBXUtss_data_node@detail@boost@@U?$less@PBX@std@@V?$allocator@U?$pair@QBXUtss_data_node@detail@boost@@@std@@@5@@std@@QAE?AU?$pair@V?$_Tree_iterator@V?$_Tree_val@U?$_Tree_simple_types@U?$pair@QBXUtss_data_node@detail@boost@@@std@@@std@@@std@@@std@@_N@1@$$QAU?$pair@PBXUtss_data_node@detail@boost@@@1@@Z 00455970 f i libboost_thread-vc140-mt-1_63:thread.obj
 0001:000549a0       ??$int_to_string@H@detail@boost@@YAXHPAD@Z 004559a0 f i libboost_thread-vc140-mt-1_63:thread.obj
 0001:00054a30       ??$int_to_string@K@detail@boost@@YAXKPAD@Z 00455a30 f i libboost_thread-vc140-mt-1_63:thread.obj
 0001:00054ac0       ??$make_pair@AAPBXUtss_data_node@detail@boost@@@std@@YA?AU?$pair@PBXUtss_data_node@detail@boost@@@0@AAPBX$$QAUtss_data_node@detail@boost@@@Z 00455ac0 f i libboost_thread-vc140-mt-1_63:thread.obj
 0001:00054b20       ??$move@AAD@std@@YA$$QADAAD@Z 00455b20 f i libboost_thread-vc140-mt-1_63:thread.obj
 0001:00054b30       ??$move@AAPAUtss_cleanup_function@detail@boost@@@std@@YA$$QAPAUtss_cleanup_function@detail@boost@@AAPAU123@@Z 00455b30 f i libboost_thread-vc140-mt-1_63:thread.obj
 0001:00054b40       ??$move@AAU?$pair@PAVcondition_variable@boost@@PAVmutex@2@@std@@@std@@YA$$QAU?$pair@PAVcondition_variable@boost@@PAVmutex@2@@0@AAU10@@Z 00455b40 f i libboost_thread-vc140-mt-1_63:thread.obj
 0001:00054b50       ??$move@AAV?$error_info@Uthrow_file_@boost@@PBD@boost@@@std@@YA$$QAV?$error_info@Uthrow_file_@boost@@PBD@boost@@AAV12@@Z 00455b50 f i libboost_thread-vc140-mt-1_63:thread.obj
 0001:00054b60       ??$move@AAV?$error_info@Uthrow_function_@boost@@PBD@boost@@@std@@YA$$QAV?$error_info@Uthrow_function_@boost@@PBD@boost@@AAV12@@Z 00455b60 f i libboost_thread-vc140-mt-1_63:thread.obj
 0001:00054b70       ??$move@AAV?$error_info@Uthrow_line_@boost@@H@boost@@@std@@YA$$QAV?$error_info@Uthrow_line_@boost@@H@boost@@AAV12@@Z 00455b70 f i libboost_thread-vc140-mt-1_63:thread.obj
 0001:00054b80       ??$set@V?$clone_impl@Ubad_alloc_@exception_detail@boost@@@exception_detail@boost@@@?$set_info_rv@V?$error_info@Uthrow_file_@boost@@PBD@boost@@@exception_detail@boost@@SAABV?$clone_impl@Ubad_alloc_@exception_detail@boost@@@12@ABV312@$$QAV?$error_info@Uthrow_file_@boost@@PBD@2@@Z 00455b80 f i libboost_thread-vc140-mt-1_63:thread.obj
 0001:00054ba0       ??$set@V?$clone_impl@Ubad_alloc_@exception_detail@boost@@@exception_detail@boost@@@?$set_info_rv@V?$error_info@Uthrow_function_@boost@@PBD@boost@@@exception_detail@boost@@SAABV?$clone_impl@Ubad_alloc_@exception_detail@boost@@@12@ABV312@$$QAV?$error_info@Uthrow_function_@boost@@PBD@2@@Z 00455ba0 f i libboost_thread-vc140-mt-1_63:thread.obj
 0001:00054bc0       ??$set@V?$clone_impl@Ubad_alloc_@exception_detail@boost@@@exception_detail@boost@@@?$set_info_rv@V?$error_info@Uthrow_line_@boost@@H@boost@@@exception_detail@boost@@SAABV?$clone_impl@Ubad_alloc_@exception_detail@boost@@@12@ABV312@$$QAV?$error_info@Uthrow_line_@boost@@H@2@@Z 00455bc0 f i libboost_thread-vc140-mt-1_63:thread.obj
 0001:00054be0       ??$set@V?$clone_impl@Ubad_exception_@exception_detail@boost@@@exception_detail@boost@@@?$set_info_rv@V?$error_info@Uthrow_file_@boost@@PBD@boost@@@exception_detail@boost@@SAABV?$clone_impl@Ubad_exception_@exception_detail@boost@@@12@ABV312@$$QAV?$error_info@Uthrow_file_@boost@@PBD@2@@Z 00455be0 f i libboost_thread-vc140-mt-1_63:thread.obj
 0001:00054c00       ??$set@V?$clone_impl@Ubad_exception_@exception_detail@boost@@@exception_detail@boost@@@?$set_info_rv@V?$error_info@Uthrow_function_@boost@@PBD@boost@@@exception_detail@boost@@SAABV?$clone_impl@Ubad_exception_@exception_detail@boost@@@12@ABV312@$$QAV?$error_info@Uthrow_function_@boost@@PBD@2@@Z 00455c00 f i libboost_thread-vc140-mt-1_63:thread.obj
 0001:00054c20       ??$set@V?$clone_impl@Ubad_exception_@exception_detail@boost@@@exception_detail@boost@@@?$set_info_rv@V?$error_info@Uthrow_line_@boost@@H@boost@@@exception_detail@boost@@SAABV?$clone_impl@Ubad_exception_@exception_detail@boost@@@12@ABV312@$$QAV?$error_info@Uthrow_line_@boost@@H@2@@Z 00455c20 f i libboost_thread-vc140-mt-1_63:thread.obj
 0001:00054c40       ??$set_info@V?$clone_impl@Ubad_alloc_@exception_detail@boost@@@exception_detail@boost@@Uthrow_file_@3@PBD@exception_detail@boost@@YAABV?$clone_impl@Ubad_alloc_@exception_detail@boost@@@01@ABV201@$$QAV?$error_info@Uthrow_file_@boost@@PBD@1@@Z 00455c40 f i libboost_thread-vc140-mt-1_63:thread.obj
 0001:00054c60       ??$set_info@V?$clone_impl@Ubad_alloc_@exception_detail@boost@@@exception_detail@boost@@Uthrow_function_@3@PBD@exception_detail@boost@@YAABV?$clone_impl@Ubad_alloc_@exception_detail@boost@@@01@ABV201@$$QAV?$error_info@Uthrow_function_@boost@@PBD@1@@Z 00455c60 f i libboost_thread-vc140-mt-1_63:thread.obj
 0001:00054c80       ??$set_info@V?$clone_impl@Ubad_alloc_@exception_detail@boost@@@exception_detail@boost@@Uthrow_line_@3@H@exception_detail@boost@@YAABV?$clone_impl@Ubad_alloc_@exception_detail@boost@@@01@ABV201@$$QAV?$error_info@Uthrow_line_@boost@@H@1@@Z 00455c80 f i libboost_thread-vc140-mt-1_63:thread.obj
 0001:00054ca0       ??$set_info@V?$clone_impl@Ubad_exception_@exception_detail@boost@@@exception_detail@boost@@Uthrow_file_@3@PBD@exception_detail@boost@@YAABV?$clone_impl@Ubad_exception_@exception_detail@boost@@@01@ABV201@$$QAV?$error_info@Uthrow_file_@boost@@PBD@1@@Z 00455ca0 f i libboost_thread-vc140-mt-1_63:thread.obj
 0001:00054cc0       ??$set_info@V?$clone_impl@Ubad_exception_@exception_detail@boost@@@exception_detail@boost@@Uthrow_function_@3@PBD@exception_detail@boost@@YAABV?$clone_impl@Ubad_exception_@exception_detail@boost@@@01@ABV201@$$QAV?$error_info@Uthrow_function_@boost@@PBD@1@@Z 00455cc0 f i libboost_thread-vc140-mt-1_63:thread.obj
 0001:00054ce0       ??$set_info@V?$clone_impl@Ubad_exception_@exception_detail@boost@@@exception_detail@boost@@Uthrow_line_@3@H@exception_detail@boost@@YAABV?$clone_impl@Ubad_exception_@exception_detail@boost@@@01@ABV201@$$QAV?$error_info@Uthrow_line_@boost@@H@1@@Z 00455ce0 f i libboost_thread-vc140-mt-1_63:thread.obj
 0001:00054d00       ??$swap@DX@std@@YAXAAD0@Z  00455d00 f i libboost_thread-vc140-mt-1_63:thread.obj
 0001:00054d20       ??$swap@PAUtss_cleanup_function@detail@boost@@X@std@@YAXAAPAUtss_cleanup_function@detail@boost@@0@Z 00455d20 f i libboost_thread-vc140-mt-1_63:thread.obj
 0001:00054d40       ??$unused_var@W4dst_flags@date_time@boost@@@?$counted_time_system@U?$counted_time_rep@Vmillisec_posix_time_system_config@posix_time@boost@@@date_time@boost@@@date_time@boost@@SAXABW4dst_flags@12@@Z 00455d40 f i libboost_thread-vc140-mt-1_63:thread.obj
 0001:00054d50       ??0?$_List_const_iterator@V?$_List_val@U?$_List_simple_types@PAVcondition_variable_any@boost@@@std@@@std@@@std@@QAE@PAU?$_List_node@PAVcondition_variable_any@boost@@PAX@1@PBV?$_List_val@U?$_List_simple_types@PAVcondition_variable_any@boost@@@std@@@1@@Z 00455d50 f i libboost_thread-vc140-mt-1_63:thread.obj
 0001:00054d60       ??0?$_List_iterator@V?$_List_val@U?$_List_simple_types@PAVcondition_variable_any@boost@@@std@@@std@@@std@@QAE@PAU?$_List_node@PAVcondition_variable_any@boost@@PAX@1@PBV?$_List_val@U?$_List_simple_types@PAVcondition_variable_any@boost@@@std@@@1@@Z 00455d60 f i libboost_thread-vc140-mt-1_63:thread.obj
 0001:00054d70       ??0?$_List_unchecked_const_iterator@V?$_List_val@U?$_List_simple_types@PAVcondition_variable_any@boost@@@std@@@std@@U_Iterator_base0@2@@std@@QAE@PAU?$_List_node@PAVcondition_variable_any@boost@@PAX@1@PBV?$_List_val@U?$_List_simple_types@PAVcondition_variable_any@boost@@@std@@@1@@Z 00455d70 f i libboost_thread-vc140-mt-1_63:thread.obj
 0001:00054d80       ??0?$_Tree@V?$_Tmap_traits@PBXUtss_data_node@detail@boost@@U?$less@PBX@std@@V?$allocator@U?$pair@QBXUtss_data_node@detail@boost@@@std@@@5@$0A@@std@@@std@@QAE@ABU?$less@PBX@1@@Z 00455d80 f i libboost_thread-vc140-mt-1_63:thread.obj
 0001:00054db0       ??0?$_Tree_comp_alloc@V?$_Tmap_traits@PBXUtss_data_node@detail@boost@@U?$less@PBX@std@@V?$allocator@U?$pair@QBXUtss_data_node@detail@boost@@@std@@@5@$0A@@std@@@std@@QAE@ABU?$less@PBX@1@@Z 00455db0 f i libboost_thread-vc140-mt-1_63:thread.obj
 0001:00054de0       ??0?$_Tree_const_iterator@V?$_Tree_val@U?$_Tree_simple_types@U?$pair@QBXUtss_data_node@detail@boost@@@std@@@std@@@std@@@std@@QAE@PAU?$_Tree_node@U?$pair@QBXUtss_data_node@detail@boost@@@std@@PAX@1@PBV?$_Tree_val@U?$_Tree_simple_types@U?$pair@QBXUtss_data_node@detail@boost@@@std@@@std@@@1@@Z 00455de0 f i libboost_thread-vc140-mt-1_63:thread.obj
 0001:00054df0       ??0?$_Tree_iterator@V?$_Tree_val@U?$_Tree_simple_types@U?$pair@QBXUtss_data_node@detail@boost@@@std@@@std@@@std@@@std@@QAE@PAU?$_Tree_node@U?$pair@QBXUtss_data_node@detail@boost@@@std@@PAX@1@PBV?$_Tree_val@U?$_Tree_simple_types@U?$pair@QBXUtss_data_node@detail@boost@@@std@@@std@@@1@@Z 00455df0 f i libboost_thread-vc140-mt-1_63:thread.obj
 0001:00054e00       ??0?$_Tree_unchecked_const_iterator@V?$_Tree_val@U?$_Tree_simple_types@U?$pair@QBXUtss_data_node@detail@boost@@@std@@@std@@@std@@U_Iterator_base0@2@@std@@QAE@PAU?$_Tree_node@U?$pair@QBXUtss_data_node@detail@boost@@@std@@PAX@1@PBV?$_Tree_val@U?$_Tree_simple_types@U?$pair@QBXUtss_data_node@detail@boost@@@std@@@std@@@1@@Z 00455e00 f i libboost_thread-vc140-mt-1_63:thread.obj
 0001:00054e10       ??0?$_Tree_val@U?$_Tree_simple_types@U?$pair@QBXUtss_data_node@detail@boost@@@std@@@std@@@std@@QAE@XZ 00455e10 f i libboost_thread-vc140-mt-1_63:thread.obj
 0001:00054e30       ??0?$_Vector_alloc@U?$_Vec_base_types@U?$pair@PAVcondition_variable@boost@@PAVmutex@2@@std@@V?$allocator@U?$pair@PAVcondition_variable@boost@@PAVmutex@2@@std@@@2@@std@@@std@@QAE@XZ 00455e30 f i libboost_thread-vc140-mt-1_63:thread.obj
 0001:00054e50       ??0?$_Vector_alloc@U?$_Vec_base_types@U_SYSTEM_LOGICAL_PROCESSOR_INFORMATION@@V?$allocator@U_SYSTEM_LOGICAL_PROCESSOR_INFORMATION@@@std@@@std@@@std@@QAE@XZ 00455e50 f i libboost_thread-vc140-mt-1_63:thread.obj
 0001:00054e70       ??0?$_Vector_alloc@U?$_Vec_base_types@V?$shared_ptr@Ushared_state_base@detail@boost@@@boost@@V?$allocator@V?$shared_ptr@Ushared_state_base@detail@boost@@@boost@@@std@@@std@@@std@@QAE@XZ 00455e70 f i libboost_thread-vc140-mt-1_63:thread.obj
 0001:00054e90       ??0?$_Vector_const_iterator@V?$_Vector_val@U?$_Simple_types@U?$pair@PAVcondition_variable@boost@@PAVmutex@2@@std@@@std@@@std@@@std@@QAE@PAU?$pair@PAVcondition_variable@boost@@PAVmutex@2@@1@PBU_Container_base0@1@@Z 00455e90 f i libboost_thread-vc140-mt-1_63:thread.obj
 0001:00054ea0       ??0?$_Vector_const_iterator@V?$_Vector_val@U?$_Simple_types@U_SYSTEM_LOGICAL_PROCESSOR_INFORMATION@@@std@@@std@@@std@@QAE@PAU_SYSTEM_LOGICAL_PROCESSOR_INFORMATION@@PBU_Container_base0@1@@Z 00455ea0 f i libboost_thread-vc140-mt-1_63:thread.obj
 0001:00054eb0       ??0?$_Vector_const_iterator@V?$_Vector_val@U?$_Simple_types@V?$intrusive_ptr@Vbasic_cv_list_entry@detail@boost@@@boost@@@std@@@std@@@std@@QAE@PAV?$intrusive_ptr@Vbasic_cv_list_entry@detail@boost@@@boost@@PBU_Container_base0@1@@Z 00455eb0 f i libboost_thread-vc140-mt-1_63:thread.obj
 0001:00054ec0       ??0?$_Vector_const_iterator@V?$_Vector_val@U?$_Simple_types@V?$shared_ptr@Ushared_state_base@detail@boost@@@boost@@@std@@@std@@@std@@QAE@PAV?$shared_ptr@Ushared_state_base@detail@boost@@@boost@@PBU_Container_base0@1@@Z 00455ec0 f i libboost_thread-vc140-mt-1_63:thread.obj
 0001:00054ed0       ??0?$_Vector_iterator@V?$_Vector_val@U?$_Simple_types@U?$pair@PAVcondition_variable@boost@@PAVmutex@2@@std@@@std@@@std@@@std@@QAE@PAU?$pair@PAVcondition_variable@boost@@PAVmutex@2@@1@PBU_Container_base0@1@@Z 00455ed0 f i libboost_thread-vc140-mt-1_63:thread.obj
 0001:00054ee0       ??0?$_Vector_iterator@V?$_Vector_val@U?$_Simple_types@U_SYSTEM_LOGICAL_PROCESSOR_INFORMATION@@@std@@@std@@@std@@QAE@PAU_SYSTEM_LOGICAL_PROCESSOR_INFORMATION@@PBU_Container_base0@1@@Z 00455ee0 f i libboost_thread-vc140-mt-1_63:thread.obj
 0001:00054ef0       ??0?$_Vector_iterator@V?$_Vector_val@U?$_Simple_types@V?$intrusive_ptr@Vbasic_cv_list_entry@detail@boost@@@boost@@@std@@@std@@@std@@QAE@PAV?$intrusive_ptr@Vbasic_cv_list_entry@detail@boost@@@boost@@PBU_Container_base0@1@@Z 00455ef0 f i libboost_thread-vc140-mt-1_63:thread.obj
 0001:00054f00       ??0?$_Vector_iterator@V?$_Vector_val@U?$_Simple_types@V?$shared_ptr@Ushared_state_base@detail@boost@@@boost@@@std@@@std@@@std@@QAE@PAV?$shared_ptr@Ushared_state_base@detail@boost@@@boost@@PBU_Container_base0@1@@Z 00455f00 f i libboost_thread-vc140-mt-1_63:thread.obj
 0001:00054f10       ??0?$_Vector_val@U?$_Simple_types@U?$pair@PAVcondition_variable@boost@@PAVmutex@2@@std@@@std@@@std@@QAE@XZ 00455f10 f i libboost_thread-vc140-mt-1_63:thread.obj
 0001:00054f30       ??0?$_Vector_val@U?$_Simple_types@U_SYSTEM_LOGICAL_PROCESSOR_INFORMATION@@@std@@@std@@QAE@XZ 00455f30 f i libboost_thread-vc140-mt-1_63:thread.obj
 0001:00054f50       ??0?$_Vector_val@U?$_Simple_types@V?$shared_ptr@Ushared_state_base@detail@boost@@@boost@@@std@@@std@@QAE@XZ 00455f50 f i libboost_thread-vc140-mt-1_63:thread.obj
 0001:00054f70       ??0?$_Wrap_alloc@V?$allocator@U?$_Tree_node@U?$pair@QBXUtss_data_node@detail@boost@@@std@@PAX@std@@@std@@@std@@QAE@XZ 00455f70 f i libboost_thread-vc140-mt-1_63:thread.obj
 0001:00054f80       ??0?$_Wrap_alloc@V?$allocator@U?$pair@PAVcondition_variable@boost@@PAVmutex@2@@std@@@std@@@std@@QAE@XZ 00455f80 f i libboost_thread-vc140-mt-1_63:thread.obj
 0001:00054f90       ??0?$_Wrap_alloc@V?$allocator@U_SYSTEM_LOGICAL_PROCESSOR_INFORMATION@@@std@@@std@@QAE@XZ 00455f90 f i libboost_thread-vc140-mt-1_63:thread.obj
 0001:00054fa0       ??0?$_Wrap_alloc@V?$allocator@V?$shared_ptr@Ushared_state_base@detail@boost@@@boost@@@std@@@std@@QAE@XZ 00455fa0 f i libboost_thread-vc140-mt-1_63:thread.obj
 0001:00054fb0       ??0?$allocator@U?$_Tree_node@U?$pair@QBXUtss_data_node@detail@boost@@@std@@PAX@std@@@std@@QAE@XZ 00455fb0 f i libboost_thread-vc140-mt-1_63:thread.obj
 0001:00054fc0       ??0?$allocator@U?$pair@PAVcondition_variable@boost@@PAVmutex@2@@std@@@std@@QAE@XZ 00455fc0 f i libboost_thread-vc140-mt-1_63:thread.obj
 0001:00054fd0       ??0?$allocator@U_SYSTEM_LOGICAL_PROCESSOR_INFORMATION@@@std@@QAE@XZ 00455fd0 f i libboost_thread-vc140-mt-1_63:thread.obj
 0001:00054fe0       ??0?$allocator@V?$shared_ptr@Ushared_state_base@detail@boost@@@boost@@@std@@QAE@XZ 00455fe0 f i libboost_thread-vc140-mt-1_63:thread.obj
 0001:00054ff0       ??0?$atomic@H@std@@QAE@H@Z 00455ff0 f i libboost_thread-vc140-mt-1_63:thread.obj
 0001:00055000       ??0?$base_time@Vptime@posix_time@boost@@V?$counted_time_system@U?$counted_time_rep@Vmillisec_posix_time_system_config@posix_time@boost@@@date_time@boost@@@date_time@3@@date_time@boost@@QAE@ABVdate@gregorian@2@ABVtime_duration@posix_time@2@W4dst_flags@12@@Z 00456000 f i libboost_thread-vc140-mt-1_63:thread.obj
 0001:00055020       ??0?$basic_string@DU?$char_traits@D@std@@V?$allocator@D@2@@std@@QAE@XZ 00456020 f i libboost_thread-vc140-mt-1_63:thread.obj
 0001:00055080       ??0?$clone_impl@U?$error_info_injector@Ubad_day_of_month@gregorian@boost@@@exception_detail@boost@@@exception_detail@boost@@QAE@ABU?$error_info_injector@Ubad_day_of_month@gregorian@boost@@@12@@Z 00456080 f i libboost_thread-vc140-mt-1_63:thread.obj
 0001:00055170       ??0?$clone_impl@U?$error_info_injector@Ubad_month@gregorian@boost@@@exception_detail@boost@@@exception_detail@boost@@QAE@ABU?$error_info_injector@Ubad_month@gregorian@boost@@@12@@Z 00456170 f i libboost_thread-vc140-mt-1_63:thread.obj
 0001:00055260       ??0?$clone_impl@U?$error_info_injector@Ubad_year@gregorian@boost@@@exception_detail@boost@@@exception_detail@boost@@QAE@ABU?$error_info_injector@Ubad_year@gregorian@boost@@@12@@Z 00456260 f i libboost_thread-vc140-mt-1_63:thread.obj
 0001:00055350       ??0?$clone_impl@U?$error_info_injector@Vbad_alloc@std@@@exception_detail@boost@@@exception_detail@boost@@QAE@ABU?$error_info_injector@Vbad_alloc@std@@@12@@Z 00456350 f i libboost_thread-vc140-mt-1_63:thread.obj
 0001:00055440       ??0?$clone_impl@U?$error_info_injector@Vlock_error@boost@@@exception_detail@boost@@@exception_detail@boost@@QAE@ABU?$error_info_injector@Vlock_error@boost@@@12@@Z 00456440 f i libboost_thread-vc140-mt-1_63:thread.obj
 0001:00055530       ??0?$clone_impl@U?$error_info_injector@Vruntime_error@std@@@exception_detail@boost@@@exception_detail@boost@@QAE@ABU?$error_info_injector@Vruntime_error@std@@@12@@Z 00456530 f i libboost_thread-vc140-mt-1_63:thread.obj
 0001:00055620       ??0?$clone_impl@U?$error_info_injector@Vthread_resource_error@boost@@@exception_detail@boost@@@exception_detail@boost@@QAE@ABU?$error_info_injector@Vthread_resource_error@boost@@@12@@Z 00456620 f i libboost_thread-vc140-mt-1_63:thread.obj
 0001:00055710       ??0?$clone_impl@Ubad_alloc_@exception_detail@boost@@@exception_detail@boost@@AAE@ABV012@Uclone_tag@012@@Z 00456710 f i libboost_thread-vc140-mt-1_63:thread.obj
 0001:000557f0       ??0?$clone_impl@Ubad_alloc_@exception_detail@boost@@@exception_detail@boost@@QAE@ABUbad_alloc_@12@@Z 004567f0 f i libboost_thread-vc140-mt-1_63:thread.obj
 0001:000558d0       ??0?$clone_impl@Ubad_exception_@exception_detail@boost@@@exception_detail@boost@@AAE@ABV012@Uclone_tag@012@@Z 004568d0 f i libboost_thread-vc140-mt-1_63:thread.obj
 0001:000559b0       ??0?$clone_impl@Ubad_exception_@exception_detail@boost@@@exception_detail@boost@@QAE@ABUbad_exception_@12@@Z 004569b0 f i libboost_thread-vc140-mt-1_63:thread.obj
 0001:00055a90       ??0?$constrained_value@V?$simple_exception_policy@G$0FHI@$0CHBA@Ubad_year@gregorian@boost@@@CV@boost@@@CV@boost@@QAE@G@Z 00456a90 f i libboost_thread-vc140-mt-1_63:thread.obj
 0001:00055ab0       ??0?$date@V0gregorian@boost@@Vgregorian_calendar@12@Vdate_duration@12@@date_time@boost@@IAE@V?$int_adapter@I@12@@Z 00456ab0 f i libboost_thread-vc140-mt-1_63:thread.obj
 0001:00055ac0       ??0?$date@V0gregorian@boost@@Vgregorian_calendar@12@Vdate_duration@12@@date_time@boost@@QAE@ABU?$year_month_day_base@Vgreg_year@gregorian@boost@@Vgreg_month@23@Vgreg_day@23@@12@@Z 00456ac0 f i libboost_thread-vc140-mt-1_63:thread.obj
 0001:00055ae0       ??0?$date@V0gregorian@boost@@Vgregorian_calendar@12@Vdate_duration@12@@date_time@boost@@QAE@Vgreg_year@gregorian@2@Vgreg_month@42@Vgreg_day@42@@Z 00456ae0 f i libboost_thread-vc140-mt-1_63:thread.obj
 0001:00055b30       ??0?$error_info@Uthrow_file_@boost@@PBD@boost@@QAE@PBD@Z 00456b30 f i libboost_thread-vc140-mt-1_63:thread.obj
 0001:00055b40       ??0?$error_info@Uthrow_function_@boost@@PBD@boost@@QAE@PBD@Z 00456b40 f i libboost_thread-vc140-mt-1_63:thread.obj
 0001:00055b50       ??0?$error_info@Uthrow_line_@boost@@H@boost@@QAE@H@Z 00456b50 f i libboost_thread-vc140-mt-1_63:thread.obj
 0001:00055b60       ??0?$error_info_injector@Ubad_day_of_month@gregorian@boost@@@exception_detail@boost@@QAE@ABUbad_day_of_month@gregorian@2@@Z 00456b60 f i libboost_thread-vc140-mt-1_63:thread.obj
 0001:00055be0       ??0?$error_info_injector@Ubad_month@gregorian@boost@@@exception_detail@boost@@QAE@ABUbad_month@gregorian@2@@Z 00456be0 f i libboost_thread-vc140-mt-1_63:thread.obj
 0001:00055c60       ??0?$error_info_injector@Ubad_year@gregorian@boost@@@exception_detail@boost@@QAE@ABUbad_year@gregorian@2@@Z 00456c60 f i libboost_thread-vc140-mt-1_63:thread.obj
 0001:00055ce0       ??0?$error_info_injector@Vbad_alloc@std@@@exception_detail@boost@@QAE@ABVbad_alloc@std@@@Z 00456ce0 f i libboost_thread-vc140-mt-1_63:thread.obj
 0001:00055d60       ??0?$error_info_injector@Vlock_error@boost@@@exception_detail@boost@@QAE@ABVlock_error@2@@Z 00456d60 f i libboost_thread-vc140-mt-1_63:thread.obj
 0001:00055dc0       ??0?$error_info_injector@Vruntime_error@std@@@exception_detail@boost@@QAE@ABVruntime_error@std@@@Z 00456dc0 f i libboost_thread-vc140-mt-1_63:thread.obj
 0001:00055e40       ??0?$error_info_injector@Vthread_resource_error@boost@@@exception_detail@boost@@QAE@ABVthread_resource_error@2@@Z 00456e40 f i libboost_thread-vc140-mt-1_63:thread.obj
 0001:00055ea0       ??0?$int_adapter@I@date_time@boost@@QAE@I@Z 00456ea0 f i libboost_thread-vc140-mt-1_63:thread.obj
 0001:00055eb0       ??0?$int_adapter@_J@date_time@boost@@QAE@_J@Z 00456eb0 f i libboost_thread-vc140-mt-1_63:thread.obj
 0001:00055ed0       ??0?$intrusive_ptr@Uthread_data_base@detail@boost@@@boost@@QAE@ABV01@@Z 00456ed0 f i libboost_thread-vc140-mt-1_63:thread.obj
 0001:00055ef0       ??0?$intrusive_ptr@Uthread_data_base@detail@boost@@@boost@@QAE@PAUthread_data_base@detail@1@_N@Z 00456ef0 f i libboost_thread-vc140-mt-1_63:thread.obj
 0001:00055f10       ??0?$intrusive_ptr@Uthread_data_base@detail@boost@@@boost@@QAE@XZ 00456f10 f i libboost_thread-vc140-mt-1_63:thread.obj
 0001:00055f20       ??0?$lock_guard@Vmutex@boost@@@boost@@QAE@AAVmutex@1@@Z 00456f20 f i libboost_thread-vc140-mt-1_63:thread.obj
 0001:00055f40       ??0?$map@PBXUtss_data_node@detail@boost@@U?$less@PBX@std@@V?$allocator@U?$pair@QBXUtss_data_node@detail@boost@@@std@@@5@@std@@QAE@XZ 00456f40 f i libboost_thread-vc140-mt-1_63:thread.obj
 0001:00055f70       ??0?$refcount_ptr@Uerror_info_container@exception_detail@boost@@@exception_detail@boost@@QAE@ABV012@@Z 00456f70 f i libboost_thread-vc140-mt-1_63:thread.obj
 0001:00055f90       ??0?$refcount_ptr@Uerror_info_container@exception_detail@boost@@@exception_detail@boost@@QAE@XZ 00456f90 f i libboost_thread-vc140-mt-1_63:thread.obj
 0001:00055fa0       ??0?$shared_ptr@$$CBVclone_base@exception_detail@boost@@@boost@@QAE@ABV01@@Z 00456fa0 f i libboost_thread-vc140-mt-1_63:thread.obj
 0001:00055fd0       ??0?$shared_ptr@Utss_cleanup_function@detail@boost@@@boost@@QAE@$$QAV01@@Z 00456fd0 f i libboost_thread-vc140-mt-1_63:thread.obj
 0001:00056010       ??0?$shared_ptr@Utss_cleanup_function@detail@boost@@@boost@@QAE@ABV01@@Z 00457010 f i libboost_thread-vc140-mt-1_63:thread.obj
 0001:00056040       ??0?$sp_counted_impl_p@V?$clone_impl@Ubad_alloc_@exception_detail@boost@@@exception_detail@boost@@@detail@boost@@QAE@PAV?$clone_impl@Ubad_alloc_@exception_detail@boost@@@exception_detail@2@@Z 00457040 f i libboost_thread-vc140-mt-1_63:thread.obj
 0001:00056070       ??0?$sp_counted_impl_p@V?$clone_impl@Ubad_exception_@exception_detail@boost@@@exception_detail@boost@@@detail@boost@@QAE@PAV?$clone_impl@Ubad_exception_@exception_detail@boost@@@exception_detail@2@@Z 00457070 f i libboost_thread-vc140-mt-1_63:thread.obj
 0001:000560a0       ??0?$time_duration@V0posix_time@boost@@V?$time_resolution_traits@Utime_resolution_traits_adapted64_impl@date_time@boost@@$04$0PECEA@$05H@date_time@2@@date_time@boost@@QAE@ABV012@@Z 004570a0 f i libboost_thread-vc140-mt-1_63:thread.obj
 0001:000560c0       ??0?$time_duration@V0posix_time@boost@@V?$time_resolution_traits@Utime_resolution_traits_adapted64_impl@date_time@boost@@$04$0PECEA@$05H@date_time@2@@date_time@boost@@QAE@HHH_J@Z 004570c0 f i libboost_thread-vc140-mt-1_63:thread.obj
 0001:00056100       ??0?$time_duration@V0posix_time@boost@@V?$time_resolution_traits@Utime_resolution_traits_adapted64_impl@date_time@boost@@$04$0PECEA@$05H@date_time@2@@date_time@boost@@QAE@W4special_values@12@@Z 00457100 f i libboost_thread-vc140-mt-1_63:thread.obj
 0001:00056120       ??0?$unique_lock@Vmutex@boost@@@boost@@QAE@AAVmutex@1@@Z 00457120 f i libboost_thread-vc140-mt-1_63:thread.obj
 0001:00056140       ??0?$vector@U?$pair@PAVcondition_variable@boost@@PAVmutex@2@@std@@V?$allocator@U?$pair@PAVcondition_variable@boost@@PAVmutex@2@@std@@@2@@std@@QAE@XZ 00457140 f i libboost_thread-vc140-mt-1_63:thread.obj
 0001:00056160       ??0?$vector@U_SYSTEM_LOGICAL_PROCESSOR_INFORMATION@@V?$allocator@U_SYSTEM_LOGICAL_PROCESSOR_INFORMATION@@@std@@@std@@QAE@I@Z 00457160 f i libboost_thread-vc140-mt-1_63:thread.obj
 0001:00056250       ??0?$vector@V?$shared_ptr@Ushared_state_base@detail@boost@@@boost@@V?$allocator@V?$shared_ptr@Ushared_state_base@detail@boost@@@boost@@@std@@@std@@QAE@XZ 00457250 f i libboost_thread-vc140-mt-1_63:thread.obj
 0001:00056270       ??0?$year_month_day_base@Vgreg_year@gregorian@boost@@Vgreg_month@23@Vgreg_day@23@@date_time@boost@@QAE@Vgreg_year@gregorian@2@Vgreg_month@42@Vgreg_day@42@@Z 00457270 f i libboost_thread-vc140-mt-1_63:thread.obj
 0001:000562a0       ??0bad_alloc_@exception_detail@boost@@QAE@XZ 004572a0 f i libboost_thread-vc140-mt-1_63:thread.obj
 0001:00056300       ??0bad_day_of_month@gregorian@boost@@QAE@ABV?$basic_string@DU?$char_traits@D@std@@V?$allocator@D@2@@std@@@Z 00457300 f i libboost_thread-vc140-mt-1_63:thread.obj
 0001:00056360       ??0bad_exception@std@@QAE@XZ 00457360 f i libboost_thread-vc140-mt-1_63:thread.obj
 0001:00056380       ??0bad_exception_@exception_detail@boost@@QAE@XZ 00457380 f i libboost_thread-vc140-mt-1_63:thread.obj
 0001:000563e0       ??0clone_base@exception_detail@boost@@QAE@XZ 004573e0 f i libboost_thread-vc140-mt-1_63:thread.obj
 0001:000563f0       ??0date@gregorian@boost@@QAE@ABU?$year_month_day_base@Vgreg_year@gregorian@boost@@Vgreg_month@23@Vgreg_day@23@@date_time@2@@Z 004573f0 f i libboost_thread-vc140-mt-1_63:thread.obj
 0001:00056410       ??0date@gregorian@boost@@QAE@W4special_values@date_time@2@@Z 00457410 f i libboost_thread-vc140-mt-1_63:thread.obj
 0001:000564f0       ??0disable_interruption@this_thread@boost@@QAE@XZ 004574f0 f   libboost_thread-vc140-mt-1_63:thread.obj
 0001:000565b0       ??0error_code@system@boost@@QAE@HABVerror_category@12@@Z 004575b0 f i libboost_thread-vc140-mt-1_63:thread.obj
 0001:000565d0       ??0exception@boost@@IAE@XZ 004575d0 f i libboost_thread-vc140-mt-1_63:thread.obj
 0001:00056610       ??0exception@std@@QAE@QBD@Z 00457610 f i libboost_thread-vc140-mt-1_63:thread.obj
 0001:00056660       ??0exception_ptr@boost@@QAE@ABV01@@Z 00457660 f i libboost_thread-vc140-mt-1_63:thread.obj
 0001:00056690       ??0exception_ptr@boost@@QAE@ABV?$shared_ptr@$$CBVclone_base@exception_detail@boost@@@1@@Z 00457690 f i libboost_thread-vc140-mt-1_63:thread.obj
 0001:00056700       ??0greg_day@gregorian@boost@@QAE@G@Z 00457700 f i libboost_thread-vc140-mt-1_63:thread.obj
 0001:00056720       ??0greg_month@gregorian@boost@@QAE@G@Z 00457720 f i libboost_thread-vc140-mt-1_63:thread.obj
 0001:00056740       ??0greg_year@gregorian@boost@@QAE@G@Z 00457740 f i libboost_thread-vc140-mt-1_63:thread.obj
 0001:00056760       ??0handle_manager@win32@detail@boost@@QAE@PAX@Z 00457760 f i libboost_thread-vc140-mt-1_63:thread.obj
 0001:00056770       ??0handle_manager@win32@detail@boost@@QAE@XZ 00457770 f i libboost_thread-vc140-mt-1_63:thread.obj
 0001:00056780       ??0id@thread@boost@@AAE@I@Z 00457780 f i libboost_thread-vc140-mt-1_63:thread.obj
 0001:00056790       ??0in_place_init_if_t@optional_ns@boost@@QAE@Uinit_tag@012@@Z 00457790 f i libboost_thread-vc140-mt-1_63:thread.obj
 0001:000567a0       ??0in_place_init_t@optional_ns@boost@@QAE@Uinit_tag@012@@Z 004577a0 f i libboost_thread-vc140-mt-1_63:thread.obj
 0001:000567b0       ??0logic_error@std@@QAE@PBD@Z 004577b0 f i libboost_thread-vc140-mt-1_63:thread.obj
 0001:00056810       ??0none_t@boost@@QAE@Uinit_tag@01@@Z 00457810 f i libboost_thread-vc140-mt-1_63:thread.obj
 0001:00056820       ??0once_context@detail@boost@@QAE@XZ 00457820 f i libboost_thread-vc140-mt-1_63:thread.obj
 0001:00056850       ??0out_of_range@std@@QAE@ABV?$basic_string@DU?$char_traits@D@std@@V?$allocator@D@2@@1@@Z 00457850 f i libboost_thread-vc140-mt-1_63:thread.obj
 0001:000568b0       ??0ptime@posix_time@boost@@QAE@Vdate@gregorian@2@Vtime_duration@12@@Z 004578b0 f i libboost_thread-vc140-mt-1_63:thread.obj
 0001:000568d0       ??0ptime@posix_time@boost@@QAE@XZ 004578d0 f i libboost_thread-vc140-mt-1_63:thread.obj
 0001:00056950       ??0remaining_time@timeout@detail@boost@@QAE@_K@Z 00457950 f i libboost_thread-vc140-mt-1_63:thread.obj
 0001:00056990       ??0restore_interruption@this_thread@boost@@QAE@AAVdisable_interruption@12@@Z 00457990 f   libboost_thread-vc140-mt-1_63:thread.obj
 0001:00056a00       ??0runtime_error@std@@QAE@PBD@Z 00457a00 f i libboost_thread-vc140-mt-1_63:thread.obj
 0001:00056a60       ??0shared_count@detail@boost@@QAE@ABV012@@Z 00457a60 f i libboost_thread-vc140-mt-1_63:thread.obj
 0001:00056a90       ??0shared_count@detail@boost@@QAE@XZ 00457a90 f i libboost_thread-vc140-mt-1_63:thread.obj
 0001:00056aa0       ??0sp_counted_base@detail@boost@@QAE@XZ 00457aa0 f i libboost_thread-vc140-mt-1_63:thread.obj
 0001:00056ac0       ??0system_error@system@boost@@QAE@Verror_code@12@PBD@Z 00457ac0 f i libboost_thread-vc140-mt-1_63:thread.obj
 0001:00056b70       ??0thread@boost@@AAE@V?$intrusive_ptr@Uthread_data_base@detail@boost@@@1@@Z 00457b70 f   libboost_thread-vc140-mt-1_63:thread.obj
 0001:00056c10       ??0thread@boost@@QAE@XZ    00457c10 f   libboost_thread-vc140-mt-1_63:thread.obj
 0001:00056c20       ??0thread_exception@boost@@QAE@HPBD@Z 00457c20 f i libboost_thread-vc140-mt-1_63:thread.obj
 0001:00056ce0       ??0thread_exit_callback_node@detail@boost@@QAE@PAUthread_exit_function_base@12@PAU012@@Z 00457ce0 f i libboost_thread-vc140-mt-1_63:thread.obj
 0001:00056d00       ??0thread_resource_error@boost@@QAE@HPBD@Z 00457d00 f i libboost_thread-vc140-mt-1_63:thread.obj
 0001:00056dc0       ??0time_duration@posix_time@boost@@QAE@ABV012@@Z 00457dc0 f i libboost_thread-vc140-mt-1_63:thread.obj
 0001:00056de0       ??0time_duration@posix_time@boost@@QAE@HHH_J@Z 00457de0 f i libboost_thread-vc140-mt-1_63:thread.obj
 0001:00056e20       ??0time_duration@posix_time@boost@@QAE@W4special_values@date_time@2@@Z 00457e20 f i libboost_thread-vc140-mt-1_63:thread.obj
 0001:00056e40       ??0timeout@detail@boost@@AAE@Usentinel_type@012@@Z 00457e40 f i libboost_thread-vc140-mt-1_63:thread.obj
 0001:00056ee0       ??0timeout@detail@boost@@QAE@_K@Z 00457ee0 f i libboost_thread-vc140-mt-1_63:thread.obj
 0001:00056fc0       ??0tss_data_node@detail@boost@@QAE@$$QAU012@@Z 00457fc0 f i libboost_thread-vc140-mt-1_63:thread.obj
 0001:00057000       ??0tss_data_node@detail@boost@@QAE@V?$shared_ptr@Utss_cleanup_function@detail@boost@@@2@PAX@Z 00458000 f i libboost_thread-vc140-mt-1_63:thread.obj
 0001:000570d0       ??1?$_Tree@V?$_Tmap_traits@PBXUtss_data_node@detail@boost@@U?$less@PBX@std@@V?$allocator@U?$pair@QBXUtss_data_node@detail@boost@@@std@@@5@$0A@@std@@@std@@QAE@XZ 004580d0 f i libboost_thread-vc140-mt-1_63:thread.obj
 0001:00057140       ??1?$_Tree_comp_alloc@V?$_Tmap_traits@PBXUtss_data_node@detail@boost@@U?$less@PBX@std@@V?$allocator@U?$pair@QBXUtss_data_node@detail@boost@@@std@@@5@$0A@@std@@@std@@QAE@XZ 00458140 f i libboost_thread-vc140-mt-1_63:thread.obj
 0001:00057190       ??1?$clone_impl@U?$error_info_injector@Vlock_error@boost@@@exception_detail@boost@@@exception_detail@boost@@UAE@XZ 00458190 f i libboost_thread-vc140-mt-1_63:thread.obj
 0001:00057260       ??1?$clone_impl@U?$error_info_injector@Vthread_resource_error@boost@@@exception_detail@boost@@@exception_detail@boost@@UAE@XZ 00458260 f i libboost_thread-vc140-mt-1_63:thread.obj
 0001:00057330       ??1?$pair@PBXUtss_data_node@detail@boost@@@std@@QAE@XZ 00458330 f i libboost_thread-vc140-mt-1_63:thread.obj
 0001:000573c0       ??1?$pair@QBXUtss_data_node@detail@boost@@@std@@QAE@XZ 004583c0 f i libboost_thread-vc140-mt-1_63:thread.obj
 0001:00057450       ??1?$shared_ptr@$$CBVclone_base@exception_detail@boost@@@boost@@QAE@XZ 00458450 f i libboost_thread-vc140-mt-1_63:thread.obj
 0001:000574e0       ??1?$shared_ptr@Ushared_state_base@detail@boost@@@boost@@QAE@XZ 004584e0 f i libboost_thread-vc140-mt-1_63:thread.obj
 0001:00057570       ??1?$shared_ptr@Utss_cleanup_function@detail@boost@@@boost@@QAE@XZ 00458570 f i libboost_thread-vc140-mt-1_63:thread.obj
 0001:00057600       ??1?$sp_counted_impl_p@V?$clone_impl@Ubad_alloc_@exception_detail@boost@@@exception_detail@boost@@@detail@boost@@UAE@XZ 00458600 f i libboost_thread-vc140-mt-1_63:thread.obj
 0001:00057610       ??1?$sp_counted_impl_p@V?$clone_impl@Ubad_exception_@exception_detail@boost@@@exception_detail@boost@@@detail@boost@@UAE@XZ 00458610 f i libboost_thread-vc140-mt-1_63:thread.obj
 0001:00057620       ??1?$vector@U_SYSTEM_LOGICAL_PROCESSOR_INFORMATION@@V?$allocator@U_SYSTEM_LOGICAL_PROCESSOR_INFORMATION@@@std@@@std@@QAE@XZ 00458620 f i libboost_thread-vc140-mt-1_63:thread.obj
 0001:000576b0       ??1bad_exception@std@@UAE@XZ 004586b0 f i libboost_thread-vc140-mt-1_63:thread.obj
 0001:00057710       ??1basic_cv_list_entry@detail@boost@@QAE@XZ 00458710 f i libboost_thread-vc140-mt-1_63:thread.obj
 0001:000577a0       ??1disable_interruption@this_thread@boost@@QAE@XZ 004587a0 f   libboost_thread-vc140-mt-1_63:thread.obj
 0001:00057820       ??1exception_ptr@boost@@QAE@XZ 00458820 f i libboost_thread-vc140-mt-1_63:thread.obj
 0001:00057940       ??1logic_error@std@@UAE@XZ 00458940 f i libboost_thread-vc140-mt-1_63:thread.obj
 0001:000579a0       ??1once_context@detail@boost@@QAE@XZ 004589a0 f i libboost_thread-vc140-mt-1_63:thread.obj
 0001:00057a00       ??1out_of_range@std@@UAE@XZ 00458a00 f i libboost_thread-vc140-mt-1_63:thread.obj
 0001:00057a60       ??1restore_interruption@this_thread@boost@@QAE@XZ 00458a60 f   libboost_thread-vc140-mt-1_63:thread.obj
 0001:00057af0       ??1thread_data_base@detail@boost@@UAE@XZ 00458af0 f   libboost_thread-vc140-mt-1_63:thread.obj
 0001:00057d80       ??1thread_exception@boost@@UAE@XZ 00458d80 f i libboost_thread-vc140-mt-1_63:thread.obj
 0001:00057d90       ??1tss_data_node@detail@boost@@QAE@XZ 00458d90 f i libboost_thread-vc140-mt-1_63:thread.obj
 0001:00057e20       ??4?$basic_string@DU?$char_traits@D@std@@V?$allocator@D@2@@std@@QAEAAV01@PBD@Z 00458e20 f i libboost_thread-vc140-mt-1_63:thread.obj
 0001:00057e70       ??4?$intrusive_ptr@Uthread_data_base@detail@boost@@@boost@@QAEAAV01@PAUthread_data_base@detail@1@@Z 00458e70 f i libboost_thread-vc140-mt-1_63:thread.obj
 0001:00057f10       ??4?$refcount_ptr@Uerror_info_container@exception_detail@boost@@@exception_detail@boost@@QAEAAV012@ABV012@@Z 00458f10 f i libboost_thread-vc140-mt-1_63:thread.obj
 0001:00057f60       ??4?$shared_ptr@Utss_cleanup_function@detail@boost@@@boost@@QAEAAV01@ABV01@@Z 00458f60 f i libboost_thread-vc140-mt-1_63:thread.obj
 0001:00058020       ??4handle_manager@win32@detail@boost@@QAEAAV0123@PAX@Z 00459020 f i libboost_thread-vc140-mt-1_63:thread.obj
 0001:00058050       ??7?$intrusive_ptr@Uthread_data_base@detail@boost@@@boost@@QBE_NXZ 00459050 f i libboost_thread-vc140-mt-1_63:thread.obj
 0001:00058060       ??7handle_manager@win32@detail@boost@@QBE_NXZ 00459060 f i libboost_thread-vc140-mt-1_63:thread.obj
 0001:00058070       ??8?$_List_const_iterator@V?$_List_val@U?$_List_simple_types@PAVcondition_variable_any@boost@@@std@@@std@@@std@@QBE_NABV01@@Z 00459070 f i libboost_thread-vc140-mt-1_63:thread.obj
 0001:00058090       ??8?$_Tree_const_iterator@V?$_Tree_val@U?$_Tree_simple_types@U?$pair@QBXUtss_data_node@detail@boost@@@std@@@std@@@std@@@std@@QBE_NABV01@@Z 00459090 f i libboost_thread-vc140-mt-1_63:thread.obj
 0001:000580b0       ??8?$_Vector_const_iterator@V?$_Vector_val@U?$_Simple_types@U?$pair@PAVcondition_variable@boost@@PAVmutex@2@@std@@@std@@@std@@@std@@QBE_NABV01@@Z 004590b0 f i libboost_thread-vc140-mt-1_63:thread.obj
 0001:000580d0       ??8?$_Vector_const_iterator@V?$_Vector_val@U?$_Simple_types@V?$intrusive_ptr@Vbasic_cv_list_entry@detail@boost@@@boost@@@std@@@std@@@std@@QBE_NABV01@@Z 004590d0 f i libboost_thread-vc140-mt-1_63:thread.obj
 0001:000580f0       ??8?$_Vector_const_iterator@V?$_Vector_val@U?$_Simple_types@V?$shared_ptr@Ushared_state_base@detail@boost@@@boost@@@std@@@std@@@std@@QBE_NABV01@@Z 004590f0 f i libboost_thread-vc140-mt-1_63:thread.obj
 0001:00058110       ??8id@thread@boost@@QBE_NABV012@@Z 00459110 f i libboost_thread-vc140-mt-1_63:thread.obj
 0001:00058130       ??9?$_List_const_iterator@V?$_List_val@U?$_List_simple_types@PAVcondition_variable_any@boost@@@std@@@std@@@std@@QBE_NABV01@@Z 00459130 f i libboost_thread-vc140-mt-1_63:thread.obj
 0001:00058150       ??9?$_Tree_const_iterator@V?$_Tree_val@U?$_Tree_simple_types@U?$pair@QBXUtss_data_node@detail@boost@@@std@@@std@@@std@@@std@@QBE_NABV01@@Z 00459150 f i libboost_thread-vc140-mt-1_63:thread.obj
 0001:00058170       ??9?$_Vector_const_iterator@V?$_Vector_val@U?$_Simple_types@U?$pair@PAVcondition_variable@boost@@PAVmutex@2@@std@@@std@@@std@@@std@@QBE_NABV01@@Z 00459170 f i libboost_thread-vc140-mt-1_63:thread.obj
 0001:00058190       ??9?$_Vector_const_iterator@V?$_Vector_val@U?$_Simple_types@V?$intrusive_ptr@Vbasic_cv_list_entry@detail@boost@@@boost@@@std@@@std@@@std@@QBE_NABV01@@Z 00459190 f i libboost_thread-vc140-mt-1_63:thread.obj
 0001:000581b0       ??9?$_Vector_const_iterator@V?$_Vector_val@U?$_Simple_types@V?$shared_ptr@Ushared_state_base@detail@boost@@@boost@@@std@@@std@@@std@@QBE_NABV01@@Z 004591b0 f i libboost_thread-vc140-mt-1_63:thread.obj
 0001:000581d0       ??A?$vector@U_SYSTEM_LOGICAL_PROCESSOR_INFORMATION@@V?$allocator@U_SYSTEM_LOGICAL_PROCESSOR_INFORMATION@@@std@@@std@@QAEAAU_SYSTEM_LOGICAL_PROCESSOR_INFORMATION@@I@Z 004591d0 f i libboost_thread-vc140-mt-1_63:thread.obj
 0001:000581f0       ??B?$intrusive_ptr@Uthread_data_base@detail@boost@@@boost@@QBE_NXZ 004591f0 f i libboost_thread-vc140-mt-1_63:thread.obj
 0001:00058200       ??B?$shared_ptr@Utss_cleanup_function@detail@boost@@@boost@@QBE_NXZ 00459200 f i libboost_thread-vc140-mt-1_63:thread.obj
 0001:00058210       ??Bgreg_day@gregorian@boost@@QBEGXZ 00459210 f i libboost_thread-vc140-mt-1_63:thread.obj
 0001:00058220       ??Bgreg_month@gregorian@boost@@QBEGXZ 00459220 f i libboost_thread-vc140-mt-1_63:thread.obj
 0001:00058230       ??Bgreg_year@gregorian@boost@@QBEGXZ 00459230 f i libboost_thread-vc140-mt-1_63:thread.obj
 0001:00058240       ??Bhandle_manager@win32@detail@boost@@QBEPAXXZ 00459240 f i libboost_thread-vc140-mt-1_63:thread.obj
 0001:00058250       ??C?$_Tree_iterator@V?$_Tree_val@U?$_Tree_simple_types@U?$pair@QBXUtss_data_node@detail@boost@@@std@@@std@@@std@@@std@@QBEPAU?$pair@QBXUtss_data_node@detail@boost@@@1@XZ 00459250 f i libboost_thread-vc140-mt-1_63:thread.obj
 0001:00058260       ??C?$_Vector_iterator@V?$_Vector_val@U?$_Simple_types@U?$pair@PAVcondition_variable@boost@@PAVmutex@2@@std@@@std@@@std@@@std@@QBEPAU?$pair@PAVcondition_variable@boost@@PAVmutex@2@@1@XZ 00459260 f i libboost_thread-vc140-mt-1_63:thread.obj
 0001:00058270       ??C?$intrusive_ptr@Uthread_data_base@detail@boost@@@boost@@QBEPAUthread_data_base@detail@1@XZ 00459270 f i libboost_thread-vc140-mt-1_63:thread.obj
 0001:00058280       ??C?$intrusive_ptr@Vbasic_cv_list_entry@detail@boost@@@boost@@QBEPAVbasic_cv_list_entry@detail@1@XZ 00459280 f i libboost_thread-vc140-mt-1_63:thread.obj
 0001:00058290       ??C?$shared_ptr@Ushared_state_base@detail@boost@@@boost@@QBEPAUshared_state_base@detail@1@XZ 00459290 f i libboost_thread-vc140-mt-1_63:thread.obj
 0001:000582a0       ??D?$_List_const_iterator@V?$_List_val@U?$_List_simple_types@PAVcondition_variable_any@boost@@@std@@@std@@@std@@QBEABQAVcondition_variable_any@boost@@XZ 004592a0 f i libboost_thread-vc140-mt-1_63:thread.obj
 0001:000582b0       ??D?$_Tree_const_iterator@V?$_Tree_val@U?$_Tree_simple_types@U?$pair@QBXUtss_data_node@detail@boost@@@std@@@std@@@std@@@std@@QBEABU?$pair@QBXUtss_data_node@detail@boost@@@1@XZ 004592b0 f i libboost_thread-vc140-mt-1_63:thread.obj
 0001:000582c0       ??D?$_Tree_iterator@V?$_Tree_val@U?$_Tree_simple_types@U?$pair@QBXUtss_data_node@detail@boost@@@std@@@std@@@std@@@std@@QBEAAU?$pair@QBXUtss_data_node@detail@boost@@@1@XZ 004592c0 f i libboost_thread-vc140-mt-1_63:thread.obj
 0001:000582d0       ??D?$_Vector_const_iterator@V?$_Vector_val@U?$_Simple_types@U?$pair@PAVcondition_variable@boost@@PAVmutex@2@@std@@@std@@@std@@@std@@QBEABU?$pair@PAVcondition_variable@boost@@PAVmutex@2@@1@XZ 004592d0 f i libboost_thread-vc140-mt-1_63:thread.obj
 0001:000582e0       ??D?$_Vector_const_iterator@V?$_Vector_val@U?$_Simple_types@U_SYSTEM_LOGICAL_PROCESSOR_INFORMATION@@@std@@@std@@@std@@QBEABU_SYSTEM_LOGICAL_PROCESSOR_INFORMATION@@XZ 004592e0 f i libboost_thread-vc140-mt-1_63:thread.obj
 0001:000582f0       ??D?$_Vector_const_iterator@V?$_Vector_val@U?$_Simple_types@V?$intrusive_ptr@Vbasic_cv_list_entry@detail@boost@@@boost@@@std@@@std@@@std@@QBEABV?$intrusive_ptr@Vbasic_cv_list_entry@detail@boost@@@boost@@XZ 004592f0 f i libboost_thread-vc140-mt-1_63:thread.obj
 0001:00058300       ??D?$_Vector_const_iterator@V?$_Vector_val@U?$_Simple_types@V?$shared_ptr@Ushared_state_base@detail@boost@@@boost@@@std@@@std@@@std@@QBEABV?$shared_ptr@Ushared_state_base@detail@boost@@@boost@@XZ 00459300 f i libboost_thread-vc140-mt-1_63:thread.obj
 0001:00058310       ??D?$_Vector_iterator@V?$_Vector_val@U?$_Simple_types@U?$pair@PAVcondition_variable@boost@@PAVmutex@2@@std@@@std@@@std@@@std@@QBEAAU?$pair@PAVcondition_variable@boost@@PAVmutex@2@@1@XZ 00459310 f i libboost_thread-vc140-mt-1_63:thread.obj
 0001:00058320       ??D?$_Vector_iterator@V?$_Vector_val@U?$_Simple_types@U_SYSTEM_LOGICAL_PROCESSOR_INFORMATION@@@std@@@std@@@std@@QBEAAU_SYSTEM_LOGICAL_PROCESSOR_INFORMATION@@XZ 00459320 f i libboost_thread-vc140-mt-1_63:thread.obj
 0001:00058330       ??D?$_Vector_iterator@V?$_Vector_val@U?$_Simple_types@V?$intrusive_ptr@Vbasic_cv_list_entry@detail@boost@@@boost@@@std@@@std@@@std@@QBEAAV?$intrusive_ptr@Vbasic_cv_list_entry@detail@boost@@@boost@@XZ 00459330 f i libboost_thread-vc140-mt-1_63:thread.obj
 0001:00058340       ??D?$_Vector_iterator@V?$_Vector_val@U?$_Simple_types@V?$shared_ptr@Ushared_state_base@detail@boost@@@boost@@@std@@@std@@@std@@QBEAAV?$shared_ptr@Ushared_state_base@detail@boost@@@boost@@XZ 00459340 f i libboost_thread-vc140-mt-1_63:thread.obj
 0001:00058350       ??D?$shared_ptr@Utss_cleanup_function@detail@boost@@@boost@@QBEAAUtss_cleanup_function@detail@1@XZ 00459350 f i libboost_thread-vc140-mt-1_63:thread.obj
 0001:00058360       ??E?$_List_const_iterator@V?$_List_val@U?$_List_simple_types@PAVcondition_variable_any@boost@@@std@@@std@@@std@@QAEAAV01@XZ 00459360 f i libboost_thread-vc140-mt-1_63:thread.obj
 0001:00058370       ??E?$_Tree_const_iterator@V?$_Tree_val@U?$_Tree_simple_types@U?$pair@QBXUtss_data_node@detail@boost@@@std@@@std@@@std@@@std@@QAE?AV01@H@Z 00459370 f i libboost_thread-vc140-mt-1_63:thread.obj
 0001:00058390       ??E?$_Tree_const_iterator@V?$_Tree_val@U?$_Tree_simple_types@U?$pair@QBXUtss_data_node@detail@boost@@@std@@@std@@@std@@@std@@QAEAAV01@XZ 00459390 f i libboost_thread-vc140-mt-1_63:thread.obj
 0001:000583a0       ??E?$_Tree_iterator@V?$_Tree_val@U?$_Tree_simple_types@U?$pair@QBXUtss_data_node@detail@boost@@@std@@@std@@@std@@@std@@QAEAAV01@XZ 004593a0 f i libboost_thread-vc140-mt-1_63:thread.obj
 0001:000583b0       ??E?$_Vector_const_iterator@V?$_Vector_val@U?$_Simple_types@U?$pair@PAVcondition_variable@boost@@PAVmutex@2@@std@@@std@@@std@@@std@@QAEAAV01@XZ 004593b0 f i libboost_thread-vc140-mt-1_63:thread.obj
 0001:000583c0       ??E?$_Vector_const_iterator@V?$_Vector_val@U?$_Simple_types@V?$intrusive_ptr@Vbasic_cv_list_entry@detail@boost@@@boost@@@std@@@std@@@std@@QAEAAV01@XZ 004593c0 f i libboost_thread-vc140-mt-1_63:thread.obj
 0001:000583d0       ??E?$_Vector_const_iterator@V?$_Vector_val@U?$_Simple_types@V?$shared_ptr@Ushared_state_base@detail@boost@@@boost@@@std@@@std@@@std@@QAEAAV01@XZ 004593d0 f i libboost_thread-vc140-mt-1_63:thread.obj
 0001:000583e0       ??E?$_Vector_iterator@V?$_Vector_val@U?$_Simple_types@U?$pair@PAVcondition_variable@boost@@PAVmutex@2@@std@@@std@@@std@@@std@@QAEAAV01@XZ 004593e0 f i libboost_thread-vc140-mt-1_63:thread.obj
 0001:000583f0       ??E?$_Vector_iterator@V?$_Vector_val@U?$_Simple_types@V?$intrusive_ptr@Vbasic_cv_list_entry@detail@boost@@@boost@@@std@@@std@@@std@@QAEAAV01@XZ 004593f0 f i libboost_thread-vc140-mt-1_63:thread.obj
 0001:00058400       ??E?$_Vector_iterator@V?$_Vector_val@U?$_Simple_types@V?$shared_ptr@Ushared_state_base@detail@boost@@@boost@@@std@@@std@@@std@@QAEAAV01@XZ 00459400 f i libboost_thread-vc140-mt-1_63:thread.obj
 0001:00058410       ??F?$_Tree_const_iterator@V?$_Tree_val@U?$_Tree_simple_types@U?$pair@QBXUtss_data_node@detail@boost@@@std@@@std@@@std@@@std@@QAEAAV01@XZ 00459410 f i libboost_thread-vc140-mt-1_63:thread.obj
 0001:00058420       ??F?$_Tree_iterator@V?$_Tree_val@U?$_Tree_simple_types@U?$pair@QBXUtss_data_node@detail@boost@@@std@@@std@@@std@@@std@@QAEAAV01@XZ 00459420 f i libboost_thread-vc140-mt-1_63:thread.obj
 0001:00058430       ??F?$_Tree_unchecked_const_iterator@V?$_Tree_val@U?$_Tree_simple_types@U?$pair@QBXUtss_data_node@detail@boost@@@std@@@std@@@std@@U_Iterator_base0@2@@std@@QAEAAV01@XZ 00459430 f i libboost_thread-vc140-mt-1_63:thread.obj
 0001:000584b0       ??G?$base_time@Vptime@posix_time@boost@@V?$counted_time_system@U?$counted_time_rep@Vmillisec_posix_time_system_config@posix_time@boost@@@date_time@boost@@@date_time@3@@date_time@boost@@QBE?AVtime_duration@posix_time@2@ABVptime@42@@Z 004594b0 f i libboost_thread-vc140-mt-1_63:thread.obj
 0001:000584d0       ??M?$base_time@Vptime@posix_time@boost@@V?$counted_time_system@U?$counted_time_rep@Vmillisec_posix_time_system_config@posix_time@boost@@@date_time@boost@@@date_time@3@@date_time@boost@@QBE_NABVptime@posix_time@2@@Z 004594d0 f i libboost_thread-vc140-mt-1_63:thread.obj
 0001:00058500       ??Noperators_impl@boost@@YA_NABVptime@posix_time@1@0@Z 00459500 f i libboost_thread-vc140-mt-1_63:thread.obj
 0001:00058540       ??R?$less@PBX@std@@QBE_NABQBX0@Z 00459540 f i libboost_thread-vc140-mt-1_63:thread.obj
 0001:00058560       ??Y?$basic_string@DU?$char_traits@D@std@@V?$allocator@D@2@@std@@QAEAAV01@ABV01@@Z 00459560 f i libboost_thread-vc140-mt-1_63:thread.obj
 0001:00058580       ??Y?$basic_string@DU?$char_traits@D@std@@V?$allocator@D@2@@std@@QAEAAV01@PBD@Z 00459580 f i libboost_thread-vc140-mt-1_63:thread.obj
 0001:000585d0       ??_G?$intrusive_ptr@Vbasic_cv_list_entry@detail@boost@@@boost@@QAEPAXI@Z 004595d0 f i libboost_thread-vc140-mt-1_63:thread.obj
 0001:00058650       ??_G?$pair@QBXUtss_data_node@detail@boost@@@std@@QAEPAXI@Z 00459650 f i libboost_thread-vc140-mt-1_63:thread.obj
 0001:00058700       ??_G?$shared_ptr@Ushared_state_base@detail@boost@@@boost@@QAEPAXI@Z 00459700 f i libboost_thread-vc140-mt-1_63:thread.obj
 0001:000587b0       ??_Gbasic_cv_list_entry@detail@boost@@QAEPAXI@Z 004597b0 f i libboost_thread-vc140-mt-1_63:thread.obj
 0001:00058850       ??_Eexternally_launched_thread@?A0xc9bd54fe@boost@@UAEPAXI@Z 00459850 f i libboost_thread-vc140-mt-1_63:thread.obj
 0001:00058850       ??_Gexternally_launched_thread@?A0xc9bd54fe@boost@@UAEPAXI@Z 00459850 f i libboost_thread-vc140-mt-1_63:thread.obj
 0001:000588f0       ?GetTickCount64_@win32@detail@boost@@YAP6G_KXZXZ 004598f0 f i libboost_thread-vc140-mt-1_63:thread.obj
 0001:00058930       ?GetTickCount64emulation@win32@detail@boost@@YG_KXZ 00459930 f i libboost_thread-vc140-mt-1_63:thread.obj
 0001:00058a40       ?_Adopt@_Iterator_base0@std@@QAEXPBX@Z 00459a40 f i libboost_thread-vc140-mt-1_63:thread.obj
 0001:00058a50       ?_Atomic_fetch_add_4@std@@YAKPCKKW4memory_order@1@@Z 00459a50 f i libboost_thread-vc140-mt-1_63:thread.obj
 0001:00058aa0       ?_Atomic_fetch_sub_4@std@@YAKPCKKW4memory_order@1@@Z 00459aa0 f i libboost_thread-vc140-mt-1_63:thread.obj
 0001:00058b00       ?_Buy@?$vector@U_SYSTEM_LOGICAL_PROCESSOR_INFORMATION@@V?$allocator@U_SYSTEM_LOGICAL_PROCESSOR_INFORMATION@@@std@@@std@@IAE_NI@Z 00459b00 f i libboost_thread-vc140-mt-1_63:thread.obj
 0001:00058b70       ?_Buynode0@?$_Tree_comp_alloc@V?$_Tmap_traits@PBXUtss_data_node@detail@boost@@U?$less@PBX@std@@V?$allocator@U?$pair@QBXUtss_data_node@detail@boost@@@std@@@5@$0A@@std@@@std@@QAEPAU?$_Tree_node@U?$pair@QBXUtss_data_node@detail@boost@@@std@@PAX@2@XZ 00459b70 f i libboost_thread-vc140-mt-1_63:thread.obj
 0001:00058bc0       ?_Color@?$_Tree_comp_alloc@V?$_Tmap_traits@PBXUtss_data_node@detail@boost@@U?$less@PBX@std@@V?$allocator@U?$pair@QBXUtss_data_node@detail@boost@@@std@@@5@$0A@@std@@@std@@SAAADPAU?$_Tree_node@U?$pair@QBXUtss_data_node@detail@boost@@@std@@PAX@2@@Z 00459bc0 f i libboost_thread-vc140-mt-1_63:thread.obj
 0001:00058bd0       ?_Color@?$_Tree_val@U?$_Tree_simple_types@U?$pair@QBXUtss_data_node@detail@boost@@@std@@@std@@@std@@SAAADPAU?$_Tree_node@U?$pair@QBXUtss_data_node@detail@boost@@@std@@PAX@2@@Z 00459bd0 f i libboost_thread-vc140-mt-1_63:thread.obj
 0001:00058be0       ?_Compare@?$_Tree@V?$_Tmap_traits@PBXUtss_data_node@detail@boost@@U?$less@PBX@std@@V?$allocator@U?$pair@QBXUtss_data_node@detail@boost@@@std@@@5@$0A@@std@@@std@@IBE_NABQBX0@Z 00459be0 f i libboost_thread-vc140-mt-1_63:thread.obj
 0001:00058c00       ?_Compat@?$_Vector_const_iterator@V?$_Vector_val@U?$_Simple_types@U?$pair@PAVcondition_variable@boost@@PAVmutex@2@@std@@@std@@@std@@@std@@QBEXABV12@@Z 00459c00 f i libboost_thread-vc140-mt-1_63:thread.obj
 0001:00058c10       ?_Compat@?$_Vector_const_iterator@V?$_Vector_val@U?$_Simple_types@V?$intrusive_ptr@Vbasic_cv_list_entry@detail@boost@@@boost@@@std@@@std@@@std@@QBEXABV12@@Z 00459c10 f i libboost_thread-vc140-mt-1_63:thread.obj
 0001:00058c20       ?_Compat@?$_Vector_const_iterator@V?$_Vector_val@U?$_Simple_types@V?$shared_ptr@Ushared_state_base@detail@boost@@@boost@@@std@@@std@@@std@@QBEXABV12@@Z 00459c20 f i libboost_thread-vc140-mt-1_63:thread.obj
 0001:00058c30       ?_Construct@?$_Tree_comp_alloc@V?$_Tmap_traits@PBXUtss_data_node@detail@boost@@U?$less@PBX@std@@V?$allocator@U?$pair@QBXUtss_data_node@detail@boost@@@std@@@5@$0A@@std@@@std@@QAEXXZ 00459c30 f i libboost_thread-vc140-mt-1_63:thread.obj
 0001:00058c40       ?_Destroy@?$vector@U?$pair@PAVcondition_variable@boost@@PAVmutex@2@@std@@V?$allocator@U?$pair@PAVcondition_variable@boost@@PAVmutex@2@@std@@@2@@std@@IAEXPAU?$pair@PAVcondition_variable@boost@@PAVmutex@2@@2@0@Z 00459c40 f i libboost_thread-vc140-mt-1_63:thread.obj
 0001:00058c50       ?_Destroy@?$vector@U_SYSTEM_LOGICAL_PROCESSOR_INFORMATION@@V?$allocator@U_SYSTEM_LOGICAL_PROCESSOR_INFORMATION@@@std@@@std@@IAEXPAU_SYSTEM_LOGICAL_PROCESSOR_INFORMATION@@0@Z 00459c50 f i libboost_thread-vc140-mt-1_63:thread.obj
 0001:00058c60       ?_Destroy@?$vector@V?$intrusive_ptr@Vbasic_cv_list_entry@detail@boost@@@boost@@V?$allocator@V?$intrusive_ptr@Vbasic_cv_list_entry@detail@boost@@@boost@@@std@@@std@@IAEXPAV?$intrusive_ptr@Vbasic_cv_list_entry@detail@boost@@@boost@@0@Z 00459c60 f i libboost_thread-vc140-mt-1_63:thread.obj
 0001:00058c80       ?_Destroy@?$vector@V?$shared_ptr@Ushared_state_base@detail@boost@@@boost@@V?$allocator@V?$shared_ptr@Ushared_state_base@detail@boost@@@boost@@@std@@@std@@IAEXPAV?$shared_ptr@Ushared_state_base@detail@boost@@@boost@@0@Z 00459c80 f i libboost_thread-vc140-mt-1_63:thread.obj
 0001:00058ca0       ?_Destroy_if_not_nil@?$_Tree@V?$_Tmap_traits@PBXUtss_data_node@detail@boost@@U?$less@PBX@std@@V?$allocator@U?$pair@QBXUtss_data_node@detail@boost@@@std@@@5@$0A@@std@@@std@@IAEXPAU?$_Tree_node@U?$pair@QBXUtss_data_node@detail@boost@@@std@@PAX@2@@Z 00459ca0 f i libboost_thread-vc140-mt-1_63:thread.obj
 0001:00058d50       ?_Fetch_add_acquire_4@std@@YAKPCKK@Z 00459d50 f i libboost_thread-vc140-mt-1_63:thread.obj
 0001:00058d60       ?_Fetch_add_relaxed_4@std@@YAKPCKK@Z 00459d60 f i libboost_thread-vc140-mt-1_63:thread.obj
 0001:00058d70       ?_Fetch_add_release_4@std@@YAKPCKK@Z 00459d70 f i libboost_thread-vc140-mt-1_63:thread.obj
 0001:00058d80       ?_Fetch_add_seq_cst_4@std@@YAKPCKK@Z 00459d80 f i libboost_thread-vc140-mt-1_63:thread.obj
 0001:00058d90       ?_Freeheadnode@?$_Tree_comp_alloc@V?$_Tmap_traits@PBXUtss_data_node@detail@boost@@U?$less@PBX@std@@V?$allocator@U?$pair@QBXUtss_data_node@detail@boost@@@std@@@5@$0A@@std@@@std@@QAEXPAU?$_Tree_node@U?$pair@QBXUtss_data_node@detail@boost@@@std@@PAX@2@@Z 00459d90 f i libboost_thread-vc140-mt-1_63:thread.obj
 0001:00058db0       ?_Freenode0@?$_Tree_comp_alloc@V?$_Tmap_traits@PBXUtss_data_node@detail@boost@@U?$less@PBX@std@@V?$allocator@U?$pair@QBXUtss_data_node@detail@boost@@@std@@@5@$0A@@std@@@std@@QAEXPAU?$_Tree_node@U?$pair@QBXUtss_data_node@detail@boost@@@std@@PAX@2@@Z 00459db0 f i libboost_thread-vc140-mt-1_63:thread.obj
 0001:00058dd0       ?_Get_data@?$_List_alloc@U?$_List_base_types@PAVcondition_variable_any@boost@@V?$allocator@PAVcondition_variable_any@boost@@@std@@@std@@@std@@QAEAAV?$_List_val@U?$_List_simple_types@PAVcondition_variable_any@boost@@@std@@@2@XZ 00459dd0 f i libboost_thread-vc140-mt-1_63:thread.obj
 0001:00058de0       ?_Get_data@?$_Tree_comp_alloc@V?$_Tmap_traits@PBXUtss_data_node@detail@boost@@U?$less@PBX@std@@V?$allocator@U?$pair@QBXUtss_data_node@detail@boost@@@std@@@5@$0A@@std@@@std@@QAEAAV?$_Tree_val@U?$_Tree_simple_types@U?$pair@QBXUtss_data_node@detail@boost@@@std@@@std@@@2@XZ 00459de0 f i libboost_thread-vc140-mt-1_63:thread.obj
 0001:00058df0       ?_Get_data@?$_Tree_comp_alloc@V?$_Tmap_traits@PBXUtss_data_node@detail@boost@@U?$less@PBX@std@@V?$allocator@U?$pair@QBXUtss_data_node@detail@boost@@@std@@@5@$0A@@std@@@std@@QBEABV?$_Tree_val@U?$_Tree_simple_types@U?$pair@QBXUtss_data_node@detail@boost@@@std@@@std@@@2@XZ 00459df0 f i libboost_thread-vc140-mt-1_63:thread.obj
 0001:00058e00       ?_Get_data@?$_Vector_alloc@U?$_Vec_base_types@U?$pair@PAVcondition_variable@boost@@PAVmutex@2@@std@@V?$allocator@U?$pair@PAVcondition_variable@boost@@PAVmutex@2@@std@@@2@@std@@@std@@QAEAAV?$_Vector_val@U?$_Simple_types@U?$pair@PAVcondition_variable@boost@@PAVmutex@2@@std@@@std@@@2@XZ 00459e00 f i libboost_thread-vc140-mt-1_63:thread.obj
 0001:00058e10       ?_Get_data@?$_Vector_alloc@U?$_Vec_base_types@U?$pair@PAVcondition_variable@boost@@PAVmutex@2@@std@@V?$allocator@U?$pair@PAVcondition_variable@boost@@PAVmutex@2@@std@@@2@@std@@@std@@QBEABV?$_Vector_val@U?$_Simple_types@U?$pair@PAVcondition_variable@boost@@PAVmutex@2@@std@@@std@@@2@XZ 00459e10 f i libboost_thread-vc140-mt-1_63:thread.obj
 0001:00058e20       ?_Get_data@?$_Vector_alloc@U?$_Vec_base_types@U_SYSTEM_LOGICAL_PROCESSOR_INFORMATION@@V?$allocator@U_SYSTEM_LOGICAL_PROCESSOR_INFORMATION@@@std@@@std@@@std@@QAEAAV?$_Vector_val@U?$_Simple_types@U_SYSTEM_LOGICAL_PROCESSOR_INFORMATION@@@std@@@2@XZ 00459e20 f i libboost_thread-vc140-mt-1_63:thread.obj
 0001:00058e30       ?_Get_data@?$_Vector_alloc@U?$_Vec_base_types@V?$intrusive_ptr@Vbasic_cv_list_entry@detail@boost@@@boost@@V?$allocator@V?$intrusive_ptr@Vbasic_cv_list_entry@detail@boost@@@boost@@@std@@@std@@@std@@QAEAAV?$_Vector_val@U?$_Simple_types@V?$intrusive_ptr@Vbasic_cv_list_entry@detail@boost@@@boost@@@std@@@2@XZ 00459e30 f i libboost_thread-vc140-mt-1_63:thread.obj
 0001:00058e40       ?_Get_data@?$_Vector_alloc@U?$_Vec_base_types@V?$shared_ptr@Ushared_state_base@detail@boost@@@boost@@V?$allocator@V?$shared_ptr@Ushared_state_base@detail@boost@@@boost@@@std@@@std@@@std@@QAEAAV?$_Vector_val@U?$_Simple_types@V?$shared_ptr@Ushared_state_base@detail@boost@@@boost@@@std@@@2@XZ 00459e40 f i libboost_thread-vc140-mt-1_63:thread.obj
 0001:00058e50       ?_Get_first@?$_Compressed_pair@U?$_Wrap_alloc@V?$allocator@U?$_Tree_node@U?$pair@QBXUtss_data_node@detail@boost@@@std@@PAX@std@@@std@@@std@@V?$_Tree_val@U?$_Tree_simple_types@U?$pair@QBXUtss_data_node@detail@boost@@@std@@@std@@@2@$00@std@@QAEAAU?$_Wrap_alloc@V?$allocator@U?$_Tree_node@U?$pair@QBXUtss_data_node@detail@boost@@@std@@PAX@std@@@std@@@2@XZ 00459e50 f i libboost_thread-vc140-mt-1_63:thread.obj
 0001:00058e60       ?_Get_first@?$_Compressed_pair@U?$_Wrap_alloc@V?$allocator@U?$_Tree_node@U?$pair@QBXUtss_data_node@detail@boost@@@std@@PAX@std@@@std@@@std@@V?$_Tree_val@U?$_Tree_simple_types@U?$pair@QBXUtss_data_node@detail@boost@@@std@@@std@@@2@$00@std@@QBEABU?$_Wrap_alloc@V?$allocator@U?$_Tree_node@U?$pair@QBXUtss_data_node@detail@boost@@@std@@PAX@std@@@std@@@2@XZ 00459e60 f i libboost_thread-vc140-mt-1_63:thread.obj
 0001:00058e70       ?_Get_first@?$_Compressed_pair@U?$_Wrap_alloc@V?$allocator@U?$pair@PAVcondition_variable@boost@@PAVmutex@2@@std@@@std@@@std@@V?$_Vector_val@U?$_Simple_types@U?$pair@PAVcondition_variable@boost@@PAVmutex@2@@std@@@std@@@2@$00@std@@QAEAAU?$_Wrap_alloc@V?$allocator@U?$pair@PAVcondition_variable@boost@@PAVmutex@2@@std@@@std@@@2@XZ 00459e70 f i libboost_thread-vc140-mt-1_63:thread.obj
 0001:00058e80       ?_Get_first@?$_Compressed_pair@U?$_Wrap_alloc@V?$allocator@U?$pair@PAVcondition_variable@boost@@PAVmutex@2@@std@@@std@@@std@@V?$_Vector_val@U?$_Simple_types@U?$pair@PAVcondition_variable@boost@@PAVmutex@2@@std@@@std@@@2@$00@std@@QBEABU?$_Wrap_alloc@V?$allocator@U?$pair@PAVcondition_variable@boost@@PAVmutex@2@@std@@@std@@@2@XZ 00459e80 f i libboost_thread-vc140-mt-1_63:thread.obj
 0001:00058e90       ?_Get_first@?$_Compressed_pair@U?$_Wrap_alloc@V?$allocator@U_SYSTEM_LOGICAL_PROCESSOR_INFORMATION@@@std@@@std@@V?$_Vector_val@U?$_Simple_types@U_SYSTEM_LOGICAL_PROCESSOR_INFORMATION@@@std@@@2@$00@std@@QAEAAU?$_Wrap_alloc@V?$allocator@U_SYSTEM_LOGICAL_PROCESSOR_INFORMATION@@@std@@@2@XZ 00459e90 f i libboost_thread-vc140-mt-1_63:thread.obj
 0001:00058ea0       ?_Get_first@?$_Compressed_pair@U?$_Wrap_alloc@V?$allocator@U_SYSTEM_LOGICAL_PROCESSOR_INFORMATION@@@std@@@std@@V?$_Vector_val@U?$_Simple_types@U_SYSTEM_LOGICAL_PROCESSOR_INFORMATION@@@std@@@2@$00@std@@QBEABU?$_Wrap_alloc@V?$allocator@U_SYSTEM_LOGICAL_PROCESSOR_INFORMATION@@@std@@@2@XZ 00459ea0 f i libboost_thread-vc140-mt-1_63:thread.obj
 0001:00058eb0       ?_Get_first@?$_Compressed_pair@U?$_Wrap_alloc@V?$allocator@V?$intrusive_ptr@Vbasic_cv_list_entry@detail@boost@@@boost@@@std@@@std@@V?$_Vector_val@U?$_Simple_types@V?$intrusive_ptr@Vbasic_cv_list_entry@detail@boost@@@boost@@@std@@@2@$00@std@@QAEAAU?$_Wrap_alloc@V?$allocator@V?$intrusive_ptr@Vbasic_cv_list_entry@detail@boost@@@boost@@@std@@@2@XZ 00459eb0 f i libboost_thread-vc140-mt-1_63:thread.obj
 0001:00058ec0       ?_Get_first@?$_Compressed_pair@U?$_Wrap_alloc@V?$allocator@V?$shared_ptr@Ushared_state_base@detail@boost@@@boost@@@std@@@std@@V?$_Vector_val@U?$_Simple_types@V?$shared_ptr@Ushared_state_base@detail@boost@@@boost@@@std@@@2@$00@std@@QAEAAU?$_Wrap_alloc@V?$allocator@V?$shared_ptr@Ushared_state_base@detail@boost@@@boost@@@std@@@2@XZ 00459ec0 f i libboost_thread-vc140-mt-1_63:thread.obj
 0001:00058ed0       ?_Get_first@?$_Compressed_pair@U?$less@PBX@std@@V?$_Compressed_pair@U?$_Wrap_alloc@V?$allocator@U?$_Tree_node@U?$pair@QBXUtss_data_node@detail@boost@@@std@@PAX@std@@@std@@@std@@V?$_Tree_val@U?$_Tree_simple_types@U?$pair@QBXUtss_data_node@detail@boost@@@std@@@std@@@2@$00@2@$00@std@@QAEAAU?$less@PBX@2@XZ 00459ed0 f i libboost_thread-vc140-mt-1_63:thread.obj
 0001:00058ee0       ?_Get_first@?$_Compressed_pair@U?$less@PBX@std@@V?$_Compressed_pair@U?$_Wrap_alloc@V?$allocator@U?$_Tree_node@U?$pair@QBXUtss_data_node@detail@boost@@@std@@PAX@std@@@std@@@std@@V?$_Tree_val@U?$_Tree_simple_types@U?$pair@QBXUtss_data_node@detail@boost@@@std@@@std@@@2@$00@2@$00@std@@QBEABU?$less@PBX@2@XZ 00459ee0 f i libboost_thread-vc140-mt-1_63:thread.obj
 0001:00058ef0       ?_Get_second@?$_Compressed_pair@U?$_Wrap_alloc@V?$allocator@U?$_List_node@PAVcondition_variable_any@boost@@PAX@std@@@std@@@std@@V?$_List_val@U?$_List_simple_types@PAVcondition_variable_any@boost@@@std@@@2@$00@std@@QAEAAV?$_List_val@U?$_List_simple_types@PAVcondition_variable_any@boost@@@std@@@2@XZ 00459ef0 f i libboost_thread-vc140-mt-1_63:thread.obj
 0001:00058f00       ?_Get_second@?$_Compressed_pair@U?$_Wrap_alloc@V?$allocator@U?$_Tree_node@U?$pair@QBXUtss_data_node@detail@boost@@@std@@PAX@std@@@std@@@std@@V?$_Tree_val@U?$_Tree_simple_types@U?$pair@QBXUtss_data_node@detail@boost@@@std@@@std@@@2@$00@std@@QAEAAV?$_Tree_val@U?$_Tree_simple_types@U?$pair@QBXUtss_data_node@detail@boost@@@std@@@std@@@2@XZ 00459f00 f i libboost_thread-vc140-mt-1_63:thread.obj
 0001:00058f10       ?_Get_second@?$_Compressed_pair@U?$_Wrap_alloc@V?$allocator@U?$_Tree_node@U?$pair@QBXUtss_data_node@detail@boost@@@std@@PAX@std@@@std@@@std@@V?$_Tree_val@U?$_Tree_simple_types@U?$pair@QBXUtss_data_node@detail@boost@@@std@@@std@@@2@$00@std@@QBEABV?$_Tree_val@U?$_Tree_simple_types@U?$pair@QBXUtss_data_node@detail@boost@@@std@@@std@@@2@XZ 00459f10 f i libboost_thread-vc140-mt-1_63:thread.obj
 0001:00058f20       ?_Get_second@?$_Compressed_pair@U?$_Wrap_alloc@V?$allocator@U?$pair@PAVcondition_variable@boost@@PAVmutex@2@@std@@@std@@@std@@V?$_Vector_val@U?$_Simple_types@U?$pair@PAVcondition_variable@boost@@PAVmutex@2@@std@@@std@@@2@$00@std@@QAEAAV?$_Vector_val@U?$_Simple_types@U?$pair@PAVcondition_variable@boost@@PAVmutex@2@@std@@@std@@@2@XZ 00459f20 f i libboost_thread-vc140-mt-1_63:thread.obj
 0001:00058f30       ?_Get_second@?$_Compressed_pair@U?$_Wrap_alloc@V?$allocator@U?$pair@PAVcondition_variable@boost@@PAVmutex@2@@std@@@std@@@std@@V?$_Vector_val@U?$_Simple_types@U?$pair@PAVcondition_variable@boost@@PAVmutex@2@@std@@@std@@@2@$00@std@@QBEABV?$_Vector_val@U?$_Simple_types@U?$pair@PAVcondition_variable@boost@@PAVmutex@2@@std@@@std@@@2@XZ 00459f30 f i libboost_thread-vc140-mt-1_63:thread.obj
 0001:00058f40       ?_Get_second@?$_Compressed_pair@U?$_Wrap_alloc@V?$allocator@U_SYSTEM_LOGICAL_PROCESSOR_INFORMATION@@@std@@@std@@V?$_Vector_val@U?$_Simple_types@U_SYSTEM_LOGICAL_PROCESSOR_INFORMATION@@@std@@@2@$00@std@@QAEAAV?$_Vector_val@U?$_Simple_types@U_SYSTEM_LOGICAL_PROCESSOR_INFORMATION@@@std@@@2@XZ 00459f40 f i libboost_thread-vc140-mt-1_63:thread.obj
 0001:00058f50       ?_Get_second@?$_Compressed_pair@U?$_Wrap_alloc@V?$allocator@V?$intrusive_ptr@Vbasic_cv_list_entry@detail@boost@@@boost@@@std@@@std@@V?$_Vector_val@U?$_Simple_types@V?$intrusive_ptr@Vbasic_cv_list_entry@detail@boost@@@boost@@@std@@@2@$00@std@@QAEAAV?$_Vector_val@U?$_Simple_types@V?$intrusive_ptr@Vbasic_cv_list_entry@detail@boost@@@boost@@@std@@@2@XZ 00459f50 f i libboost_thread-vc140-mt-1_63:thread.obj
 0001:00058f60       ?_Get_second@?$_Compressed_pair@U?$_Wrap_alloc@V?$allocator@V?$shared_ptr@Ushared_state_base@detail@boost@@@boost@@@std@@@std@@V?$_Vector_val@U?$_Simple_types@V?$shared_ptr@Ushared_state_base@detail@boost@@@boost@@@std@@@2@$00@std@@QAEAAV?$_Vector_val@U?$_Simple_types@V?$shared_ptr@Ushared_state_base@detail@boost@@@boost@@@std@@@2@XZ 00459f60 f i libboost_thread-vc140-mt-1_63:thread.obj
 0001:00058f70       ?_Get_second@?$_Compressed_pair@U?$less@PBX@std@@V?$_Compressed_pair@U?$_Wrap_alloc@V?$allocator@U?$_Tree_node@U?$pair@QBXUtss_data_node@detail@boost@@@std@@PAX@std@@@std@@@std@@V?$_Tree_val@U?$_Tree_simple_types@U?$pair@QBXUtss_data_node@detail@boost@@@std@@@std@@@2@$00@2@$00@std@@QAEAAV?$_Compressed_pair@U?$_Wrap_alloc@V?$allocator@U?$_Tree_node@U?$pair@QBXUtss_data_node@detail@boost@@@std@@PAX@std@@@std@@@std@@V?$_Tree_val@U?$_Tree_simple_types@U?$pair@QBXUtss_data_node@detail@boost@@@std@@@std@@@2@$00@2@XZ 00459f70 f i libboost_thread-vc140-mt-1_63:thread.obj
 0001:00058f80       ?_Get_second@?$_Compressed_pair@U?$less@PBX@std@@V?$_Compressed_pair@U?$_Wrap_alloc@V?$allocator@U?$_Tree_node@U?$pair@QBXUtss_data_node@detail@boost@@@std@@PAX@std@@@std@@@std@@V?$_Tree_val@U?$_Tree_simple_types@U?$pair@QBXUtss_data_node@detail@boost@@@std@@@std@@@2@$00@2@$00@std@@QBEABV?$_Compressed_pair@U?$_Wrap_alloc@V?$allocator@U?$_Tree_node@U?$pair@QBXUtss_data_node@detail@boost@@@std@@PAX@std@@@std@@@std@@V?$_Tree_val@U?$_Tree_simple_types@U?$pair@QBXUtss_data_node@detail@boost@@@std@@@std@@@2@$00@2@XZ 00459f80 f i libboost_thread-vc140-mt-1_63:thread.obj
 0001:00058f90       ?_Getal@?$_Tree_comp_alloc@V?$_Tmap_traits@PBXUtss_data_node@detail@boost@@U?$less@PBX@std@@V?$allocator@U?$pair@QBXUtss_data_node@detail@boost@@@std@@@5@$0A@@std@@@std@@QAEAAU?$_Wrap_alloc@V?$allocator@U?$_Tree_node@U?$pair@QBXUtss_data_node@detail@boost@@@std@@PAX@std@@@std@@@2@XZ 00459f90 f i libboost_thread-vc140-mt-1_63:thread.obj
 0001:00058fa0       ?_Getal@?$_Tree_comp_alloc@V?$_Tmap_traits@PBXUtss_data_node@detail@boost@@U?$less@PBX@std@@V?$allocator@U?$pair@QBXUtss_data_node@detail@boost@@@std@@@5@$0A@@std@@@std@@QBEABU?$_Wrap_alloc@V?$allocator@U?$_Tree_node@U?$pair@QBXUtss_data_node@detail@boost@@@std@@PAX@std@@@std@@@2@XZ 00459fa0 f i libboost_thread-vc140-mt-1_63:thread.obj
 0001:00058fb0       ?_Getal@?$_Vector_alloc@U?$_Vec_base_types@U?$pair@PAVcondition_variable@boost@@PAVmutex@2@@std@@V?$allocator@U?$pair@PAVcondition_variable@boost@@PAVmutex@2@@std@@@2@@std@@@std@@QAEAAU?$_Wrap_alloc@V?$allocator@U?$pair@PAVcondition_variable@boost@@PAVmutex@2@@std@@@std@@@2@XZ 00459fb0 f i libboost_thread-vc140-mt-1_63:thread.obj
 0001:00058fc0       ?_Getal@?$_Vector_alloc@U?$_Vec_base_types@U?$pair@PAVcondition_variable@boost@@PAVmutex@2@@std@@V?$allocator@U?$pair@PAVcondition_variable@boost@@PAVmutex@2@@std@@@2@@std@@@std@@QBEABU?$_Wrap_alloc@V?$allocator@U?$pair@PAVcondition_variable@boost@@PAVmutex@2@@std@@@std@@@2@XZ 00459fc0 f i libboost_thread-vc140-mt-1_63:thread.obj
 0001:00058fd0       ?_Getal@?$_Vector_alloc@U?$_Vec_base_types@U_SYSTEM_LOGICAL_PROCESSOR_INFORMATION@@V?$allocator@U_SYSTEM_LOGICAL_PROCESSOR_INFORMATION@@@std@@@std@@@std@@QAEAAU?$_Wrap_alloc@V?$allocator@U_SYSTEM_LOGICAL_PROCESSOR_INFORMATION@@@std@@@2@XZ 00459fd0 f i libboost_thread-vc140-mt-1_63:thread.obj
 0001:00058fe0       ?_Getal@?$_Vector_alloc@U?$_Vec_base_types@U_SYSTEM_LOGICAL_PROCESSOR_INFORMATION@@V?$allocator@U_SYSTEM_LOGICAL_PROCESSOR_INFORMATION@@@std@@@std@@@std@@QBEABU?$_Wrap_alloc@V?$allocator@U_SYSTEM_LOGICAL_PROCESSOR_INFORMATION@@@std@@@2@XZ 00459fe0 f i libboost_thread-vc140-mt-1_63:thread.obj
 0001:00058ff0       ?_Getal@?$_Vector_alloc@U?$_Vec_base_types@V?$intrusive_ptr@Vbasic_cv_list_entry@detail@boost@@@boost@@V?$allocator@V?$intrusive_ptr@Vbasic_cv_list_entry@detail@boost@@@boost@@@std@@@std@@@std@@QAEAAU?$_Wrap_alloc@V?$allocator@V?$intrusive_ptr@Vbasic_cv_list_entry@detail@boost@@@boost@@@std@@@2@XZ 00459ff0 f i libboost_thread-vc140-mt-1_63:thread.obj
 0001:00059000       ?_Getal@?$_Vector_alloc@U?$_Vec_base_types@V?$shared_ptr@Ushared_state_base@detail@boost@@@boost@@V?$allocator@V?$shared_ptr@Ushared_state_base@detail@boost@@@boost@@@std@@@std@@@std@@QAEAAU?$_Wrap_alloc@V?$allocator@V?$shared_ptr@Ushared_state_base@detail@boost@@@boost@@@std@@@2@XZ 0045a000 f i libboost_thread-vc140-mt-1_63:thread.obj
 0001:00059010       ?_Getcomp@?$_Tree_comp_alloc@V?$_Tmap_traits@PBXUtss_data_node@detail@boost@@U?$less@PBX@std@@V?$allocator@U?$pair@QBXUtss_data_node@detail@boost@@@std@@@5@$0A@@std@@@std@@QAEAAU?$less@PBX@2@XZ 0045a010 f i libboost_thread-vc140-mt-1_63:thread.obj
 0001:00059020       ?_Getcomp@?$_Tree_comp_alloc@V?$_Tmap_traits@PBXUtss_data_node@detail@boost@@U?$less@PBX@std@@V?$allocator@U?$pair@QBXUtss_data_node@detail@boost@@@std@@@5@$0A@@std@@@std@@QBEABU?$less@PBX@2@XZ 0045a020 f i libboost_thread-vc140-mt-1_63:thread.obj
 0001:00059030       ?_Grow_to@?$vector@U?$pair@PAVcondition_variable@boost@@PAVmutex@2@@std@@V?$allocator@U?$pair@PAVcondition_variable@boost@@PAVmutex@2@@std@@@2@@std@@IBEII@Z 0045a030 f i libboost_thread-vc140-mt-1_63:thread.obj
 0001:00059070       ?_Inside@?$vector@U?$pair@PAVcondition_variable@boost@@PAVmutex@2@@std@@V?$allocator@U?$pair@PAVcondition_variable@boost@@PAVmutex@2@@std@@@2@@std@@IBE_NPBU?$pair@PAVcondition_variable@boost@@PAVmutex@2@@2@@Z 0045a070 f i libboost_thread-vc140-mt-1_63:thread.obj
 0001:00059090       ?_Isnil@?$_Tree_comp_alloc@V?$_Tmap_traits@PBXUtss_data_node@detail@boost@@U?$less@PBX@std@@V?$allocator@U?$pair@QBXUtss_data_node@detail@boost@@@std@@@5@$0A@@std@@@std@@SAAADPAU?$_Tree_node@U?$pair@QBXUtss_data_node@detail@boost@@@std@@PAX@2@@Z 0045a090 f i libboost_thread-vc140-mt-1_63:thread.obj
 0001:000590a0       ?_Isnil@?$_Tree_val@U?$_Tree_simple_types@U?$pair@QBXUtss_data_node@detail@boost@@@std@@@std@@@std@@SAAADPAU?$_Tree_node@U?$pair@QBXUtss_data_node@detail@boost@@@std@@PAX@2@@Z 0045a0a0 f i libboost_thread-vc140-mt-1_63:thread.obj
 0001:000590b0       ?_Key@?$_Tree@V?$_Tmap_traits@PBXUtss_data_node@detail@boost@@U?$less@PBX@std@@V?$allocator@U?$pair@QBXUtss_data_node@detail@boost@@@std@@@5@$0A@@std@@@std@@IBEABQBXPAU?$_Tree_node@U?$pair@QBXUtss_data_node@detail@boost@@@std@@PAX@2@@Z 0045a0b0 f i libboost_thread-vc140-mt-1_63:thread.obj
 0001:000590c0       ?_Kfn@?$_Tree@V?$_Tmap_traits@PBXUtss_data_node@detail@boost@@U?$less@PBX@std@@V?$allocator@U?$pair@QBXUtss_data_node@detail@boost@@@std@@@5@$0A@@std@@@std@@IBEABQBXABU?$pair@QBXUtss_data_node@detail@boost@@@2@@Z 0045a0c0 f i libboost_thread-vc140-mt-1_63:thread.obj
 0001:000590d0       ?_Left@?$_Tree_comp_alloc@V?$_Tmap_traits@PBXUtss_data_node@detail@boost@@U?$less@PBX@std@@V?$allocator@U?$pair@QBXUtss_data_node@detail@boost@@@std@@@5@$0A@@std@@@std@@SAAAPAU?$_Tree_node@U?$pair@QBXUtss_data_node@detail@boost@@@std@@PAX@2@PAU32@@Z 0045a0d0 f i libboost_thread-vc140-mt-1_63:thread.obj
 0001:000590e0       ?_Left@?$_Tree_val@U?$_Tree_simple_types@U?$pair@QBXUtss_data_node@detail@boost@@@std@@@std@@@std@@SAAAPAU?$_Tree_node@U?$pair@QBXUtss_data_node@detail@boost@@@std@@PAX@2@PAU32@@Z 0045a0e0 f i libboost_thread-vc140-mt-1_63:thread.obj
 0001:000590f0       ?_Lmost@?$_Tree@V?$_Tmap_traits@PBXUtss_data_node@detail@boost@@U?$less@PBX@std@@V?$allocator@U?$pair@QBXUtss_data_node@detail@boost@@@std@@@5@$0A@@std@@@std@@IBEAAPAU?$_Tree_node@U?$pair@QBXUtss_data_node@detail@boost@@@std@@PAX@2@XZ 0045a0f0 f i libboost_thread-vc140-mt-1_63:thread.obj
 0001:00059100       ?_Max@?$_Tree_comp_alloc@V?$_Tmap_traits@PBXUtss_data_node@detail@boost@@U?$less@PBX@std@@V?$allocator@U?$pair@QBXUtss_data_node@detail@boost@@@std@@@5@$0A@@std@@@std@@SAPAU?$_Tree_node@U?$pair@QBXUtss_data_node@detail@boost@@@std@@PAX@2@PAU32@@Z 0045a100 f i libboost_thread-vc140-mt-1_63:thread.obj
 0001:00059130       ?_Max@?$_Tree_val@U?$_Tree_simple_types@U?$pair@QBXUtss_data_node@detail@boost@@@std@@@std@@@std@@SAPAU?$_Tree_node@U?$pair@QBXUtss_data_node@detail@boost@@@std@@PAX@2@PAU32@@Z 0045a130 f i libboost_thread-vc140-mt-1_63:thread.obj
 0001:00059160       ?_Min@?$_Tree_comp_alloc@V?$_Tmap_traits@PBXUtss_data_node@detail@boost@@U?$less@PBX@std@@V?$allocator@U?$pair@QBXUtss_data_node@detail@boost@@@std@@@5@$0A@@std@@@std@@SAPAU?$_Tree_node@U?$pair@QBXUtss_data_node@detail@boost@@@std@@PAX@2@PAU32@@Z 0045a160 f i libboost_thread-vc140-mt-1_63:thread.obj
 0001:00059190       ?_Min@?$_Tree_val@U?$_Tree_simple_types@U?$pair@QBXUtss_data_node@detail@boost@@@std@@@std@@@std@@SAPAU?$_Tree_node@U?$pair@QBXUtss_data_node@detail@boost@@@std@@PAX@2@PAU32@@Z 0045a190 f i libboost_thread-vc140-mt-1_63:thread.obj
 0001:000591c0       ?_Myend@?$_Vector_alloc@U?$_Vec_base_types@U?$pair@PAVcondition_variable@boost@@PAVmutex@2@@std@@V?$allocator@U?$pair@PAVcondition_variable@boost@@PAVmutex@2@@std@@@2@@std@@@std@@QAEAAPAU?$pair@PAVcondition_variable@boost@@PAVmutex@2@@2@XZ 0045a1c0 f i libboost_thread-vc140-mt-1_63:thread.obj
 0001:000591d0       ?_Myend@?$_Vector_alloc@U?$_Vec_base_types@U?$pair@PAVcondition_variable@boost@@PAVmutex@2@@std@@V?$allocator@U?$pair@PAVcondition_variable@boost@@PAVmutex@2@@std@@@2@@std@@@std@@QBEABQAU?$pair@PAVcondition_variable@boost@@PAVmutex@2@@2@XZ 0045a1d0 f i libboost_thread-vc140-mt-1_63:thread.obj
 0001:000591e0       ?_Myend@?$_Vector_alloc@U?$_Vec_base_types@U_SYSTEM_LOGICAL_PROCESSOR_INFORMATION@@V?$allocator@U_SYSTEM_LOGICAL_PROCESSOR_INFORMATION@@@std@@@std@@@std@@QAEAAPAU_SYSTEM_LOGICAL_PROCESSOR_INFORMATION@@XZ 0045a1e0 f i libboost_thread-vc140-mt-1_63:thread.obj
 0001:000591f0       ?_Myend@?$_Vector_alloc@U?$_Vec_base_types@V?$shared_ptr@Ushared_state_base@detail@boost@@@boost@@V?$allocator@V?$shared_ptr@Ushared_state_base@detail@boost@@@boost@@@std@@@std@@@std@@QAEAAPAV?$shared_ptr@Ushared_state_base@detail@boost@@@boost@@XZ 0045a1f0 f i libboost_thread-vc140-mt-1_63:thread.obj
 0001:00059200       ?_Myfirst@?$_Vector_alloc@U?$_Vec_base_types@U?$pair@PAVcondition_variable@boost@@PAVmutex@2@@std@@V?$allocator@U?$pair@PAVcondition_variable@boost@@PAVmutex@2@@std@@@2@@std@@@std@@QAEAAPAU?$pair@PAVcondition_variable@boost@@PAVmutex@2@@2@XZ 0045a200 f i libboost_thread-vc140-mt-1_63:thread.obj
 0001:00059210       ?_Myfirst@?$_Vector_alloc@U?$_Vec_base_types@U?$pair@PAVcondition_variable@boost@@PAVmutex@2@@std@@V?$allocator@U?$pair@PAVcondition_variable@boost@@PAVmutex@2@@std@@@2@@std@@@std@@QBEABQAU?$pair@PAVcondition_variable@boost@@PAVmutex@2@@2@XZ 0045a210 f i libboost_thread-vc140-mt-1_63:thread.obj
 0001:00059220       ?_Myfirst@?$_Vector_alloc@U?$_Vec_base_types@U_SYSTEM_LOGICAL_PROCESSOR_INFORMATION@@V?$allocator@U_SYSTEM_LOGICAL_PROCESSOR_INFORMATION@@@std@@@std@@@std@@QAEAAPAU_SYSTEM_LOGICAL_PROCESSOR_INFORMATION@@XZ 0045a220 f i libboost_thread-vc140-mt-1_63:thread.obj
 0001:00059230       ?_Myfirst@?$_Vector_alloc@U?$_Vec_base_types@V?$intrusive_ptr@Vbasic_cv_list_entry@detail@boost@@@boost@@V?$allocator@V?$intrusive_ptr@Vbasic_cv_list_entry@detail@boost@@@boost@@@std@@@std@@@std@@QAEAAPAV?$intrusive_ptr@Vbasic_cv_list_entry@detail@boost@@@boost@@XZ 0045a230 f i libboost_thread-vc140-mt-1_63:thread.obj
 0001:00059240       ?_Myfirst@?$_Vector_alloc@U?$_Vec_base_types@V?$shared_ptr@Ushared_state_base@detail@boost@@@boost@@V?$allocator@V?$shared_ptr@Ushared_state_base@detail@boost@@@boost@@@std@@@std@@@std@@QAEAAPAV?$shared_ptr@Ushared_state_base@detail@boost@@@boost@@XZ 0045a240 f i libboost_thread-vc140-mt-1_63:thread.obj
 0001:00059250       ?_Myhead@?$_List_alloc@U?$_List_base_types@PAVcondition_variable_any@boost@@V?$allocator@PAVcondition_variable_any@boost@@@std@@@std@@@std@@QAEAAPAU?$_List_node@PAVcondition_variable_any@boost@@PAX@2@XZ 0045a250 f i libboost_thread-vc140-mt-1_63:thread.obj
 0001:00059260       ?_Myhead@?$_Tree_comp_alloc@V?$_Tmap_traits@PBXUtss_data_node@detail@boost@@U?$less@PBX@std@@V?$allocator@U?$pair@QBXUtss_data_node@detail@boost@@@std@@@5@$0A@@std@@@std@@QAEAAPAU?$_Tree_node@U?$pair@QBXUtss_data_node@detail@boost@@@std@@PAX@2@XZ 0045a260 f i libboost_thread-vc140-mt-1_63:thread.obj
 0001:00059270       ?_Myhead@?$_Tree_comp_alloc@V?$_Tmap_traits@PBXUtss_data_node@detail@boost@@U?$less@PBX@std@@V?$allocator@U?$pair@QBXUtss_data_node@detail@boost@@@std@@@5@$0A@@std@@@std@@QBEABQAU?$_Tree_node@U?$pair@QBXUtss_data_node@detail@boost@@@std@@PAX@2@XZ 0045a270 f i libboost_thread-vc140-mt-1_63:thread.obj
 0001:00059280       ?_Mylast@?$_Vector_alloc@U?$_Vec_base_types@U?$pair@PAVcondition_variable@boost@@PAVmutex@2@@std@@V?$allocator@U?$pair@PAVcondition_variable@boost@@PAVmutex@2@@std@@@2@@std@@@std@@QAEAAPAU?$pair@PAVcondition_variable@boost@@PAVmutex@2@@2@XZ 0045a280 f i libboost_thread-vc140-mt-1_63:thread.obj
 0001:00059290       ?_Mylast@?$_Vector_alloc@U?$_Vec_base_types@U?$pair@PAVcondition_variable@boost@@PAVmutex@2@@std@@V?$allocator@U?$pair@PAVcondition_variable@boost@@PAVmutex@2@@std@@@2@@std@@@std@@QBEABQAU?$pair@PAVcondition_variable@boost@@PAVmutex@2@@2@XZ 0045a290 f i libboost_thread-vc140-mt-1_63:thread.obj
 0001:000592a0       ?_Mylast@?$_Vector_alloc@U?$_Vec_base_types@U_SYSTEM_LOGICAL_PROCESSOR_INFORMATION@@V?$allocator@U_SYSTEM_LOGICAL_PROCESSOR_INFORMATION@@@std@@@std@@@std@@QAEAAPAU_SYSTEM_LOGICAL_PROCESSOR_INFORMATION@@XZ 0045a2a0 f i libboost_thread-vc140-mt-1_63:thread.obj
 0001:000592b0       ?_Mylast@?$_Vector_alloc@U?$_Vec_base_types@V?$intrusive_ptr@Vbasic_cv_list_entry@detail@boost@@@boost@@V?$allocator@V?$intrusive_ptr@Vbasic_cv_list_entry@detail@boost@@@boost@@@std@@@std@@@std@@QAEAAPAV?$intrusive_ptr@Vbasic_cv_list_entry@detail@boost@@@boost@@XZ 0045a2b0 f i libboost_thread-vc140-mt-1_63:thread.obj
 0001:000592c0       ?_Mylast@?$_Vector_alloc@U?$_Vec_base_types@V?$shared_ptr@Ushared_state_base@detail@boost@@@boost@@V?$allocator@V?$shared_ptr@Ushared_state_base@detail@boost@@@boost@@@std@@@std@@@std@@QAEAAPAV?$shared_ptr@Ushared_state_base@detail@boost@@@boost@@XZ 0045a2c0 f i libboost_thread-vc140-mt-1_63:thread.obj
 0001:000592d0       ?_Mynode@?$_Tree_unchecked_const_iterator@V?$_Tree_val@U?$_Tree_simple_types@U?$pair@QBXUtss_data_node@detail@boost@@@std@@@std@@@std@@U_Iterator_base0@2@@std@@QBEPAU?$_Tree_node@U?$pair@QBXUtss_data_node@detail@boost@@@std@@PAX@2@XZ 0045a2d0 f i libboost_thread-vc140-mt-1_63:thread.obj
 0001:000592e0       ?_Mysize@?$_Tree_comp_alloc@V?$_Tmap_traits@PBXUtss_data_node@detail@boost@@U?$less@PBX@std@@V?$allocator@U?$pair@QBXUtss_data_node@detail@boost@@@std@@@5@$0A@@std@@@std@@QAEAAIXZ 0045a2e0 f i libboost_thread-vc140-mt-1_63:thread.obj
 0001:000592f0       ?_Mysize@?$_Tree_comp_alloc@V?$_Tmap_traits@PBXUtss_data_node@detail@boost@@U?$less@PBX@std@@V?$allocator@U?$pair@QBXUtss_data_node@detail@boost@@@std@@@5@$0A@@std@@@std@@QBEABIXZ 0045a2f0 f i libboost_thread-vc140-mt-1_63:thread.obj
 0001:00059300       ?_Myval@?$_List_val@U?$_List_simple_types@PAVcondition_variable_any@boost@@@std@@@std@@SAAAPAVcondition_variable_any@boost@@PAU?$_List_node@PAVcondition_variable_any@boost@@PAX@2@@Z 0045a300 f i libboost_thread-vc140-mt-1_63:thread.obj
 0001:00059310       ?_Myval@?$_Tree_comp_alloc@V?$_Tmap_traits@PBXUtss_data_node@detail@boost@@U?$less@PBX@std@@V?$allocator@U?$pair@QBXUtss_data_node@detail@boost@@@std@@@5@$0A@@std@@@std@@SAAAU?$pair@QBXUtss_data_node@detail@boost@@@2@PAU?$_Tree_node@U?$pair@QBXUtss_data_node@detail@boost@@@std@@PAX@2@@Z 0045a310 f i libboost_thread-vc140-mt-1_63:thread.obj
 0001:00059320       ?_Myval@?$_Tree_val@U?$_Tree_simple_types@U?$pair@QBXUtss_data_node@detail@boost@@@std@@@std@@@std@@SAAAU?$pair@QBXUtss_data_node@detail@boost@@@2@PAU?$_Tree_node@U?$pair@QBXUtss_data_node@detail@boost@@@std@@PAX@2@@Z 0045a320 f i libboost_thread-vc140-mt-1_63:thread.obj
 0001:00059330       ?_Nextnode@?$_List_alloc@U?$_List_base_types@PAVcondition_variable_any@boost@@V?$allocator@PAVcondition_variable_any@boost@@@std@@@std@@@std@@SAAAPAU?$_List_node@PAVcondition_variable_any@boost@@PAX@2@PAU32@@Z 0045a330 f i libboost_thread-vc140-mt-1_63:thread.obj
 0001:00059340       ?_Nextnode@?$_List_val@U?$_List_simple_types@PAVcondition_variable_any@boost@@@std@@@std@@SAAAPAU?$_List_node@PAVcondition_variable_any@boost@@PAX@2@PAU32@@Z 0045a340 f i libboost_thread-vc140-mt-1_63:thread.obj
 0001:00059350       ?_Orphan_all@?$_Vector_alloc@U?$_Vec_base_types@U?$pair@PAVcondition_variable@boost@@PAVmutex@2@@std@@V?$allocator@U?$pair@PAVcondition_variable@boost@@PAVmutex@2@@std@@@2@@std@@@std@@QAEXXZ 0045a350 f i libboost_thread-vc140-mt-1_63:thread.obj
 0001:00059360       ?_Orphan_all@?$_Vector_alloc@U?$_Vec_base_types@U_SYSTEM_LOGICAL_PROCESSOR_INFORMATION@@V?$allocator@U_SYSTEM_LOGICAL_PROCESSOR_INFORMATION@@@std@@@std@@@std@@QAEXXZ 0045a360 f i libboost_thread-vc140-mt-1_63:thread.obj
 0001:00059370       ?_Orphan_all@?$_Vector_alloc@U?$_Vec_base_types@V?$intrusive_ptr@Vbasic_cv_list_entry@detail@boost@@@boost@@V?$allocator@V?$intrusive_ptr@Vbasic_cv_list_entry@detail@boost@@@boost@@@std@@@std@@@std@@QAEXXZ 0045a370 f i libboost_thread-vc140-mt-1_63:thread.obj
 0001:00059380       ?_Orphan_all@?$_Vector_alloc@U?$_Vec_base_types@V?$shared_ptr@Ushared_state_base@detail@boost@@@boost@@V?$allocator@V?$shared_ptr@Ushared_state_base@detail@boost@@@boost@@@std@@@std@@@std@@QAEXXZ 0045a380 f i libboost_thread-vc140-mt-1_63:thread.obj
 0001:00059390       ?_Orphan_all@_Container_base0@std@@QAEXXZ 0045a390 f i libboost_thread-vc140-mt-1_63:thread.obj
 0001:000593a0       ?_Orphan_range@?$vector@U?$pair@PAVcondition_variable@boost@@PAVmutex@2@@std@@V?$allocator@U?$pair@PAVcondition_variable@boost@@PAVmutex@2@@std@@@2@@std@@IBEXPAU?$pair@PAVcondition_variable@boost@@PAVmutex@2@@2@0@Z 0045a3a0 f i libboost_thread-vc140-mt-1_63:thread.obj
 0001:000593b0       ?_Parent@?$_Tree_comp_alloc@V?$_Tmap_traits@PBXUtss_data_node@detail@boost@@U?$less@PBX@std@@V?$allocator@U?$pair@QBXUtss_data_node@detail@boost@@@std@@@5@$0A@@std@@@std@@SAAAPAU?$_Tree_node@U?$pair@QBXUtss_data_node@detail@boost@@@std@@PAX@2@PAU32@@Z 0045a3b0 f i libboost_thread-vc140-mt-1_63:thread.obj
 0001:000593c0       ?_Parent@?$_Tree_val@U?$_Tree_simple_types@U?$pair@QBXUtss_data_node@detail@boost@@@std@@@std@@@std@@SAAAPAU?$_Tree_node@U?$pair@QBXUtss_data_node@detail@boost@@@std@@PAX@2@PAU32@@Z 0045a3c0 f i libboost_thread-vc140-mt-1_63:thread.obj
 0001:000593d0       ?_Right@?$_Tree_comp_alloc@V?$_Tmap_traits@PBXUtss_data_node@detail@boost@@U?$less@PBX@std@@V?$allocator@U?$pair@QBXUtss_data_node@detail@boost@@@std@@@5@$0A@@std@@@std@@SAAAPAU?$_Tree_node@U?$pair@QBXUtss_data_node@detail@boost@@@std@@PAX@2@PAU32@@Z 0045a3d0 f i libboost_thread-vc140-mt-1_63:thread.obj
 0001:000593e0       ?_Right@?$_Tree_val@U?$_Tree_simple_types@U?$pair@QBXUtss_data_node@detail@boost@@@std@@@std@@@std@@SAAAPAU?$_Tree_node@U?$pair@QBXUtss_data_node@detail@boost@@@std@@PAX@2@PAU32@@Z 0045a3e0 f i libboost_thread-vc140-mt-1_63:thread.obj
 0001:000593f0       ?_Rmost@?$_Tree@V?$_Tmap_traits@PBXUtss_data_node@detail@boost@@U?$less@PBX@std@@V?$allocator@U?$pair@QBXUtss_data_node@detail@boost@@@std@@@5@$0A@@std@@@std@@IBEAAPAU?$_Tree_node@U?$pair@QBXUtss_data_node@detail@boost@@@std@@PAX@2@XZ 0045a3f0 f i libboost_thread-vc140-mt-1_63:thread.obj
 0001:00059400       ?_Root@?$_Tree@V?$_Tmap_traits@PBXUtss_data_node@detail@boost@@U?$less@PBX@std@@V?$allocator@U?$pair@QBXUtss_data_node@detail@boost@@@std@@@5@$0A@@std@@@std@@IBEAAPAU?$_Tree_node@U?$pair@QBXUtss_data_node@detail@boost@@@std@@PAX@2@XZ 0045a400 f i libboost_thread-vc140-mt-1_63:thread.obj
 0001:00059410       ?_Tidy@?$_Tree@V?$_Tmap_traits@PBXUtss_data_node@detail@boost@@U?$less@PBX@std@@V?$allocator@U?$pair@QBXUtss_data_node@detail@boost@@@std@@@5@$0A@@std@@@std@@IAEXXZ 0045a410 f i libboost_thread-vc140-mt-1_63:thread.obj
 0001:00059430       ?_Tidy@?$vector@U?$pair@PAVcondition_variable@boost@@PAVmutex@2@@std@@V?$allocator@U?$pair@PAVcondition_variable@boost@@PAVmutex@2@@std@@@2@@std@@IAEXXZ 0045a430 f i libboost_thread-vc140-mt-1_63:thread.obj
 0001:00059470       ?_Tidy@?$vector@U_SYSTEM_LOGICAL_PROCESSOR_INFORMATION@@V?$allocator@U_SYSTEM_LOGICAL_PROCESSOR_INFORMATION@@@std@@@std@@IAEXXZ 0045a470 f i libboost_thread-vc140-mt-1_63:thread.obj
 0001:000594d0       ?_Tidy@?$vector@V?$shared_ptr@Ushared_state_base@detail@boost@@@boost@@V?$allocator@V?$shared_ptr@Ushared_state_base@detail@boost@@@boost@@@std@@@std@@IAEXXZ 0045a4d0 f i libboost_thread-vc140-mt-1_63:thread.obj
 0001:00059530       ?_Unused_capacity@?$vector@U?$pair@PAVcondition_variable@boost@@PAVmutex@2@@std@@V?$allocator@U?$pair@PAVcondition_variable@boost@@PAVmutex@2@@std@@@2@@std@@QBEIXZ 0045a530 f i libboost_thread-vc140-mt-1_63:thread.obj
 0001:00059540       ?_Xlen@?$vector@U?$pair@PAVcondition_variable@boost@@PAVmutex@2@@std@@V?$allocator@U?$pair@PAVcondition_variable@boost@@PAVmutex@2@@std@@@2@@std@@IBEXXZ 0045a540 f i libboost_thread-vc140-mt-1_63:thread.obj
 0001:00059550       ?_Xlen@?$vector@U_SYSTEM_LOGICAL_PROCESSOR_INFORMATION@@V?$allocator@U_SYSTEM_LOGICAL_PROCESSOR_INFORMATION@@@std@@@std@@IBEXXZ 0045a550 f i libboost_thread-vc140-mt-1_63:thread.obj
 0001:00059560       ?add_new_tss_node@detail@boost@@YAXPBXV?$shared_ptr@Utss_cleanup_function@detail@boost@@@2@PAX@Z 0045a560 f   libboost_thread-vc140-mt-1_63:thread.obj
 0001:00059730       ?add_ref@?$refcount_ptr@Uerror_info_container@exception_detail@boost@@@exception_detail@boost@@AAEXXZ 0045a730 f i libboost_thread-vc140-mt-1_63:thread.obj
 0001:00059740       ?add_ref_copy@sp_counted_base@detail@boost@@QAEXXZ 0045a740 f i libboost_thread-vc140-mt-1_63:thread.obj
 0001:00059750       ?add_thread_exit_function@detail@boost@@YAXPAUthread_exit_function_base@12@@Z 0045a750 f   libboost_thread-vc140-mt-1_63:thread.obj
 0001:000597c0       ?adopt@?$refcount_ptr@Uerror_info_container@exception_detail@boost@@@exception_detail@boost@@QAEXPAUerror_info_container@23@@Z 0045a7c0 f i libboost_thread-vc140-mt-1_63:thread.obj
 0001:00059800       ?allocate@?$_Wrap_alloc@V?$allocator@U?$_Tree_node@U?$pair@QBXUtss_data_node@detail@boost@@@std@@PAX@std@@@std@@@std@@QAEPAU?$_Tree_node@U?$pair@QBXUtss_data_node@detail@boost@@@std@@PAX@2@I@Z 0045a800 f i libboost_thread-vc140-mt-1_63:thread.obj
 0001:00059810       ?allocate@?$_Wrap_alloc@V?$allocator@U?$pair@PAVcondition_variable@boost@@PAVmutex@2@@std@@@std@@@std@@QAEPAU?$pair@PAVcondition_variable@boost@@PAVmutex@2@@2@I@Z 0045a810 f i libboost_thread-vc140-mt-1_63:thread.obj
 0001:00059820       ?allocate@?$_Wrap_alloc@V?$allocator@U_SYSTEM_LOGICAL_PROCESSOR_INFORMATION@@@std@@@std@@QAEPAU_SYSTEM_LOGICAL_PROCESSOR_INFORMATION@@I@Z 0045a820 f i libboost_thread-vc140-mt-1_63:thread.obj
 0001:00059830       ?allocate@?$allocator@U?$_Tree_node@U?$pair@QBXUtss_data_node@detail@boost@@@std@@PAX@std@@@std@@QAEPAU?$_Tree_node@U?$pair@QBXUtss_data_node@detail@boost@@@std@@PAX@2@I@Z 0045a830 f i libboost_thread-vc140-mt-1_63:thread.obj
 0001:000598b0       ?allocate@?$allocator@U_SYSTEM_LOGICAL_PROCESSOR_INFORMATION@@@std@@QAEPAU_SYSTEM_LOGICAL_PROCESSOR_INFORMATION@@I@Z 0045a8b0 f i libboost_thread-vc140-mt-1_63:thread.obj
 0001:00059930       ?allocate_raw_heap_memory@detail@boost@@YAPAXI@Z 0045a930 f i libboost_thread-vc140-mt-1_63:thread.obj
 0001:000599c0       ?append@?$basic_string@DU?$char_traits@D@std@@V?$allocator@D@2@@std@@QAEAAV12@ABV12@@Z 0045a9c0 f i libboost_thread-vc140-mt-1_63:thread.obj
 0001:000599e0       ?append@?$basic_string@DU?$char_traits@D@std@@V?$allocator@D@2@@std@@QAEAAV12@PBD@Z 0045a9e0 f i libboost_thread-vc140-mt-1_63:thread.obj
 0001:00059a30       ?as_number@?$int_adapter@I@date_time@boost@@QBEIXZ 0045aa30 f i libboost_thread-vc140-mt-1_63:thread.obj
 0001:00059a40       ?as_number@?$int_adapter@_J@date_time@boost@@QBE_JXZ 0045aa40 f i libboost_thread-vc140-mt-1_63:thread.obj
 0001:00059a50       ?as_number@?$time_resolution_traits@Utime_resolution_traits_adapted64_impl@date_time@boost@@$04$0PECEA@$05H@date_time@boost@@SA_JV?$int_adapter@_J@23@@Z 0045aa50 f i libboost_thread-vc140-mt-1_63:thread.obj
 0001:00059a60       ?as_number@time_resolution_traits_adapted64_impl@date_time@boost@@SA_JV?$int_adapter@_J@23@@Z 0045aa60 f i libboost_thread-vc140-mt-1_63:thread.obj
 0001:00059a70       ?as_special@?$int_adapter@_J@date_time@boost@@QBE?AW4special_values@23@XZ 0045aa70 f i libboost_thread-vc140-mt-1_63:thread.obj
 0001:00059ac0       ?assign@?$constrained_value@V?$simple_exception_policy@G$00$0BP@Ubad_day_of_month@gregorian@boost@@@CV@boost@@@CV@boost@@AAEXG@Z 0045aac0 f i libboost_thread-vc140-mt-1_63:thread.obj
 0001:00059b60       ?assign@?$constrained_value@V?$simple_exception_policy@G$00$0M@Ubad_month@gregorian@boost@@@CV@boost@@@CV@boost@@AAEXG@Z 0045ab60 f i libboost_thread-vc140-mt-1_63:thread.obj
 0001:00059c00       ?atomic_decrement@detail@boost@@YAHPAU?$atomic@H@std@@@Z 0045ac00 f i libboost_thread-vc140-mt-1_63:thread.obj
 0001:00059c10       ?atomic_fetch_add_explicit@std@@YAHPAU_Atomic_int@1@HW4memory_order@1@@Z 0045ac10 f i libboost_thread-vc140-mt-1_63:thread.obj
 0001:00059c60       ?atomic_fetch_sub_explicit@std@@YAHPAU_Atomic_int@1@HW4memory_order@1@@Z 0045ac60 f i libboost_thread-vc140-mt-1_63:thread.obj
 0001:00059cc0       ?atomic_increment@detail@boost@@YAXPAU?$atomic@H@std@@@Z 0045acc0 f i libboost_thread-vc140-mt-1_63:thread.obj
 0001:00059ce0       ?begin@?$_Tree@V?$_Tmap_traits@PBXUtss_data_node@detail@boost@@U?$less@PBX@std@@V?$allocator@U?$pair@QBXUtss_data_node@detail@boost@@@std@@@5@$0A@@std@@@std@@QAE?AV?$_Tree_iterator@V?$_Tree_val@U?$_Tree_simple_types@U?$pair@QBXUtss_data_node@detail@boost@@@std@@@std@@@std@@@2@XZ 0045ace0 f i libboost_thread-vc140-mt-1_63:thread.obj
 0001:00059cf0       ?begin@?$list@PAVcondition_variable_any@boost@@V?$allocator@PAVcondition_variable_any@boost@@@std@@@std@@QAE?AV?$_List_iterator@V?$_List_val@U?$_List_simple_types@PAVcondition_variable_any@boost@@@std@@@std@@@2@XZ 0045acf0 f i libboost_thread-vc140-mt-1_63:thread.obj
 0001:00059d00       ?begin@?$vector@U?$pair@PAVcondition_variable@boost@@PAVmutex@2@@std@@V?$allocator@U?$pair@PAVcondition_variable@boost@@PAVmutex@2@@std@@@2@@std@@QAE?AV?$_Vector_iterator@V?$_Vector_val@U?$_Simple_types@U?$pair@PAVcondition_variable@boost@@PAVmutex@2@@std@@@std@@@std@@@2@XZ 0045ad00 f i libboost_thread-vc140-mt-1_63:thread.obj
 0001:00059d10       ?begin@?$vector@U_SYSTEM_LOGICAL_PROCESSOR_INFORMATION@@V?$allocator@U_SYSTEM_LOGICAL_PROCESSOR_INFORMATION@@@std@@@std@@QAE?AV?$_Vector_iterator@V?$_Vector_val@U?$_Simple_types@U_SYSTEM_LOGICAL_PROCESSOR_INFORMATION@@@std@@@std@@@2@XZ 0045ad10 f i libboost_thread-vc140-mt-1_63:thread.obj
 0001:00059d20       ?begin@?$vector@V?$intrusive_ptr@Vbasic_cv_list_entry@detail@boost@@@boost@@V?$allocator@V?$intrusive_ptr@Vbasic_cv_list_entry@detail@boost@@@boost@@@std@@@std@@QAE?AV?$_Vector_iterator@V?$_Vector_val@U?$_Simple_types@V?$intrusive_ptr@Vbasic_cv_list_entry@detail@boost@@@boost@@@std@@@std@@@2@XZ 0045ad20 f i libboost_thread-vc140-mt-1_63:thread.obj
 0001:00059d30       ?begin@?$vector@V?$shared_ptr@Ushared_state_base@detail@boost@@@boost@@V?$allocator@V?$shared_ptr@Ushared_state_base@detail@boost@@@boost@@@std@@@std@@QAE?AV?$_Vector_iterator@V?$_Vector_val@U?$_Simple_types@V?$shared_ptr@Ushared_state_base@detail@boost@@@boost@@@std@@@std@@@2@XZ 0045ad30 f i libboost_thread-vc140-mt-1_63:thread.obj
 0001:00059d40       ?c_str@?$basic_string@DU?$char_traits@D@std@@V?$allocator@D@2@@std@@QBEPBDXZ 0045ad40 f i libboost_thread-vc140-mt-1_63:thread.obj
 0001:00059d50       ?call_once@boost@@YAXAAUonce_flag@1@P6AXXZ@Z 0045ad50 f i libboost_thread-vc140-mt-1_63:thread.obj
 0001:0005a040       ?capacity@?$vector@U?$pair@PAVcondition_variable@boost@@PAVmutex@2@@std@@V?$allocator@U?$pair@PAVcondition_variable@boost@@PAVmutex@2@@std@@@2@@std@@QBEIXZ 0045b040 f i libboost_thread-vc140-mt-1_63:thread.obj
 0001:0005a050       ?cleanup@handle_manager@win32@detail@boost@@AAEXXZ 0045b050 f i libboost_thread-vc140-mt-1_63:thread.obj
 0001:0005a0a0       ?clear@?$_Tree@V?$_Tmap_traits@PBXUtss_data_node@detail@boost@@U?$less@PBX@std@@V?$allocator@U?$pair@QBXUtss_data_node@detail@boost@@@std@@@5@$0A@@std@@@std@@QAEXXZ 0045b0a0 f i libboost_thread-vc140-mt-1_63:thread.obj
 0001:0005a110       ?clear@?$vector@U?$pair@PAVcondition_variable@boost@@PAVmutex@2@@std@@V?$allocator@U?$pair@PAVcondition_variable@boost@@PAVmutex@2@@std@@@2@@std@@QAEXXZ 0045b110 f i libboost_thread-vc140-mt-1_63:thread.obj
 0001:0005a120       ?clear@?$vector@V?$intrusive_ptr@Vbasic_cv_list_entry@detail@boost@@@boost@@V?$allocator@V?$intrusive_ptr@Vbasic_cv_list_entry@detail@boost@@@boost@@@std@@@std@@QAEXXZ 0045b120 f i libboost_thread-vc140-mt-1_63:thread.obj
 0001:0005a180       ?clear@?$vector@V?$shared_ptr@Ushared_state_base@detail@boost@@@boost@@V?$allocator@V?$shared_ptr@Ushared_state_base@detail@boost@@@boost@@@std@@@std@@QAEXXZ 0045b180 f i libboost_thread-vc140-mt-1_63:thread.obj
 0001:0005a1e0       ?clear_waiting_and_try_lock@basic_timed_mutex@detail@boost@@QAEXAAJ@Z 0045b1e0 f i libboost_thread-vc140-mt-1_63:thread.obj
 0001:0005a230       ?commit_once_region@detail@boost@@YAXAAUonce_flag@2@AAUonce_context@12@@Z 0045b230 f i libboost_thread-vc140-mt-1_63:thread.obj
 0001:0005a300       ?create_anonymous_event@win32@detail@boost@@YAPAXW4event_type@123@W4initial_event_state@123@@Z 0045b300 f i libboost_thread-vc140-mt-1_63:thread.obj
 0001:0005a3b0       ?create_event@win32@detail@boost@@YAPAXPBDW4event_type@123@W4initial_event_state@123@@Z 0045b3b0 f i libboost_thread-vc140-mt-1_63:thread.obj
 0001:0005a3d0       ?create_once_event@detail@boost@@YAPAXPADPAX@Z 0045b3d0 f i libboost_thread-vc140-mt-1_63:thread.obj
 0001:0005a400       ?date@?$base_time@Vptime@posix_time@boost@@V?$counted_time_system@U?$counted_time_rep@Vmillisec_posix_time_system_config@posix_time@boost@@@date_time@boost@@@date_time@3@@date_time@boost@@QBE?AV0gregorian@3@XZ 0045b400 f i libboost_thread-vc140-mt-1_63:thread.obj
 0001:0005a420       ?date@?$counted_time_rep@Vmillisec_posix_time_system_config@posix_time@boost@@@date_time@boost@@QBE?AV0gregorian@3@XZ 0045b420 f i libboost_thread-vc140-mt-1_63:thread.obj
 0001:0005a520       ?day@?$date@V0gregorian@boost@@Vgregorian_calendar@12@Vdate_duration@12@@date_time@boost@@QBE?AVgreg_day@gregorian@3@XZ 0045b520 f i libboost_thread-vc140-mt-1_63:thread.obj
 0001:0005a550       ?day_count@?$counted_time_rep@Vmillisec_posix_time_system_config@posix_time@boost@@@date_time@boost@@QBEKXZ 0045b550 f i libboost_thread-vc140-mt-1_63:thread.obj
 0001:0005a570       ?day_count@?$date@V0gregorian@boost@@Vgregorian_calendar@12@Vdate_duration@12@@date_time@boost@@QBE?AV?$int_adapter@I@23@XZ 0045b570 f i libboost_thread-vc140-mt-1_63:thread.obj
 0001:0005a580       ?day_number@date@gregorian@boost@@QBEIXZ 0045b580 f i libboost_thread-vc140-mt-1_63:thread.obj
 0001:0005a590       ?deallocate@?$_Wrap_alloc@V?$allocator@U?$_Tree_node@U?$pair@QBXUtss_data_node@detail@boost@@@std@@PAX@std@@@std@@@std@@QAEXPAU?$_Tree_node@U?$pair@QBXUtss_data_node@detail@boost@@@std@@PAX@2@I@Z 0045b590 f i libboost_thread-vc140-mt-1_63:thread.obj
 0001:0005a5b0       ?deallocate@?$_Wrap_alloc@V?$allocator@U?$pair@PAVcondition_variable@boost@@PAVmutex@2@@std@@@std@@@std@@QAEXPAU?$pair@PAVcondition_variable@boost@@PAVmutex@2@@2@I@Z 0045b5b0 f i libboost_thread-vc140-mt-1_63:thread.obj
 0001:0005a5d0       ?deallocate@?$_Wrap_alloc@V?$allocator@U_SYSTEM_LOGICAL_PROCESSOR_INFORMATION@@@std@@@std@@QAEXPAU_SYSTEM_LOGICAL_PROCESSOR_INFORMATION@@I@Z 0045b5d0 f i libboost_thread-vc140-mt-1_63:thread.obj
 0001:0005a5f0       ?deallocate@?$_Wrap_alloc@V?$allocator@V?$shared_ptr@Ushared_state_base@detail@boost@@@boost@@@std@@@std@@QAEXPAV?$shared_ptr@Ushared_state_base@detail@boost@@@boost@@I@Z 0045b5f0 f i libboost_thread-vc140-mt-1_63:thread.obj
 0001:0005a610       ?deallocate@?$allocator@U?$_Tree_node@U?$pair@QBXUtss_data_node@detail@boost@@@std@@PAX@std@@@std@@QAEXPAU?$_Tree_node@U?$pair@QBXUtss_data_node@detail@boost@@@std@@PAX@2@I@Z 0045b610 f i libboost_thread-vc140-mt-1_63:thread.obj
 0001:0005a630       ?deallocate@?$allocator@U?$pair@PAVcondition_variable@boost@@PAVmutex@2@@std@@@std@@QAEXPAU?$pair@PAVcondition_variable@boost@@PAVmutex@2@@2@I@Z 0045b630 f i libboost_thread-vc140-mt-1_63:thread.obj
 0001:0005a650       ?deallocate@?$allocator@U_SYSTEM_LOGICAL_PROCESSOR_INFORMATION@@@std@@QAEXPAU_SYSTEM_LOGICAL_PROCESSOR_INFORMATION@@I@Z 0045b650 f i libboost_thread-vc140-mt-1_63:thread.obj
 0001:0005a670       ?deallocate@?$allocator@V?$shared_ptr@Ushared_state_base@detail@boost@@@boost@@@std@@QAEXPAV?$shared_ptr@Ushared_state_base@detail@boost@@@boost@@I@Z 0045b670 f i libboost_thread-vc140-mt-1_63:thread.obj
 0001:0005a690       ?detach@thread@boost@@QAEXXZ 0045b690 f   libboost_thread-vc140-mt-1_63:thread.obj
 0001:0005a720       ?do_continuation@shared_state_base@detail@boost@@QAEXAAV?$unique_lock@Vmutex@boost@@@3@@Z 0045b720 f i libboost_thread-vc140-mt-1_63:thread.obj
 0001:0005a730       ?do_try_join_until@thread@boost@@AAE_N_K@Z 0045b730 f i libboost_thread-vc140-mt-1_63:thread.obj
 0001:0005a850       ?do_try_join_until_noexcept@thread@boost@@AAE_N_KAA_N@Z 0045b850 f   libboost_thread-vc140-mt-1_63:thread.obj
 0001:0005a9b0       ?empty@?$_Tree@V?$_Tmap_traits@PBXUtss_data_node@detail@boost@@U?$less@PBX@std@@V?$allocator@U?$pair@QBXUtss_data_node@detail@boost@@@std@@@5@$0A@@std@@@std@@QBE_NXZ 0045b9b0 f i libboost_thread-vc140-mt-1_63:thread.obj
 0001:0005a9c0       ?empty@?$basic_string@DU?$char_traits@D@std@@V?$allocator@D@2@@std@@QBE_NXZ 0045b9c0 f i libboost_thread-vc140-mt-1_63:thread.obj
 0001:0005a9d0       ?end@?$_Tree@V?$_Tmap_traits@PBXUtss_data_node@detail@boost@@U?$less@PBX@std@@V?$allocator@U?$pair@QBXUtss_data_node@detail@boost@@@std@@@5@$0A@@std@@@std@@QAE?AV?$_Tree_iterator@V?$_Tree_val@U?$_Tree_simple_types@U?$pair@QBXUtss_data_node@detail@boost@@@std@@@std@@@std@@@2@XZ 0045b9d0 f i libboost_thread-vc140-mt-1_63:thread.obj
 0001:0005a9e0       ?end@?$list@PAVcondition_variable_any@boost@@V?$allocator@PAVcondition_variable_any@boost@@@std@@@std@@QAE?AV?$_List_iterator@V?$_List_val@U?$_List_simple_types@PAVcondition_variable_any@boost@@@std@@@std@@@2@XZ 0045b9e0 f i libboost_thread-vc140-mt-1_63:thread.obj
 0001:0005a9f0       ?end@?$vector@U?$pair@PAVcondition_variable@boost@@PAVmutex@2@@std@@V?$allocator@U?$pair@PAVcondition_variable@boost@@PAVmutex@2@@std@@@2@@std@@QAE?AV?$_Vector_iterator@V?$_Vector_val@U?$_Simple_types@U?$pair@PAVcondition_variable@boost@@PAVmutex@2@@std@@@std@@@std@@@2@XZ 0045b9f0 f i libboost_thread-vc140-mt-1_63:thread.obj
 0001:0005aa00       ?end@?$vector@V?$intrusive_ptr@Vbasic_cv_list_entry@detail@boost@@@boost@@V?$allocator@V?$intrusive_ptr@Vbasic_cv_list_entry@detail@boost@@@boost@@@std@@@std@@QAE?AV?$_Vector_iterator@V?$_Vector_val@U?$_Simple_types@V?$intrusive_ptr@Vbasic_cv_list_entry@detail@boost@@@boost@@@std@@@std@@@2@XZ 0045ba00 f i libboost_thread-vc140-mt-1_63:thread.obj
 0001:0005aa10       ?end@?$vector@V?$shared_ptr@Ushared_state_base@detail@boost@@@boost@@V?$allocator@V?$shared_ptr@Ushared_state_base@detail@boost@@@boost@@@std@@@std@@QAE?AV?$_Vector_iterator@V?$_Vector_val@U?$_Simple_types@V?$shared_ptr@Ushared_state_base@detail@boost@@@boost@@@std@@@std@@@2@XZ 0045ba10 f i libboost_thread-vc140-mt-1_63:thread.obj
 0001:0005aa20       ?enter_once_region@detail@boost@@YA_NAAUonce_flag@2@AAUonce_context@12@@Z 0045ba20 f i libboost_thread-vc140-mt-1_63:thread.obj
 0001:0005ab00       ?equal_range@?$_Tree@V?$_Tmap_traits@PBXUtss_data_node@detail@boost@@U?$less@PBX@std@@V?$allocator@U?$pair@QBXUtss_data_node@detail@boost@@@std@@@5@$0A@@std@@@std@@QAE?AU?$pair@V?$_Tree_iterator@V?$_Tree_val@U?$_Tree_simple_types@U?$pair@QBXUtss_data_node@detail@boost@@@std@@@std@@@std@@@std@@V12@@2@ABQBX@Z 0045bb00 f i libboost_thread-vc140-mt-1_63:thread.obj
 0001:0005ab30       ?erase@?$_Tree@V?$_Tmap_traits@PBXUtss_data_node@detail@boost@@U?$less@PBX@std@@V?$allocator@U?$pair@QBXUtss_data_node@detail@boost@@@std@@@5@$0A@@std@@@std@@QAEIABQBX@Z 0045bb30 f i libboost_thread-vc140-mt-1_63:thread.obj
 0001:0005ab90       ?erase_tss_node@detail@boost@@YAXPBX@Z 0045bb90 f   libboost_thread-vc140-mt-1_63:thread.obj
 0001:0005ac10       ?fetch_add@_Atomic_int@std@@QAEHHW4memory_order@2@@Z 0045bc10 f i libboost_thread-vc140-mt-1_63:thread.obj
 0001:0005ac60       ?fetch_sub@_Atomic_int@std@@QAEHHW4memory_order@2@@Z 0045bc60 f i libboost_thread-vc140-mt-1_63:thread.obj
 0001:0005acb0       ?find@?$_Tree@V?$_Tmap_traits@PBXUtss_data_node@detail@boost@@U?$less@PBX@std@@V?$allocator@U?$pair@QBXUtss_data_node@detail@boost@@@std@@@5@$0A@@std@@@std@@QAE?AV?$_Tree_iterator@V?$_Tree_val@U?$_Tree_simple_types@U?$pair@QBXUtss_data_node@detail@boost@@@std@@@std@@@std@@@2@ABQBX@Z 0045bcb0 f i libboost_thread-vc140-mt-1_63:thread.obj
 0001:0005ad10       ?find_tss_data@detail@boost@@YAPAUtss_data_node@12@PBX@Z 0045bd10 f   libboost_thread-vc140-mt-1_63:thread.obj
 0001:0005ad60       ?frac_sec_per_day@?$counted_time_rep@Vmillisec_posix_time_system_config@posix_time@boost@@@date_time@boost@@SA_JXZ 0045bd60 f i libboost_thread-vc140-mt-1_63:thread.obj
 0001:0005ad70       ?fractional_seconds@?$time_duration@V0posix_time@boost@@V?$time_resolution_traits@Utime_resolution_traits_adapted64_impl@date_time@boost@@$04$0PECEA@$05H@date_time@2@@date_time@boost@@QBE_JXZ 0045bd70 f i libboost_thread-vc140-mt-1_63:thread.obj
 0001:0005adb0       ?from_day_number@?$gregorian_calendar_base@U?$year_month_day_base@Vgreg_year@gregorian@boost@@Vgreg_month@23@Vgreg_day@23@@date_time@boost@@I@date_time@boost@@SA?AU?$year_month_day_base@Vgreg_year@gregorian@boost@@Vgreg_month@23@Vgreg_day@23@@23@I@Z 0045bdb0 f i libboost_thread-vc140-mt-1_63:thread.obj
 0001:0005af60       ?from_special@?$int_adapter@I@date_time@boost@@SA?AV123@W4special_values@23@@Z 0045bf60 f i libboost_thread-vc140-mt-1_63:thread.obj
 0001:0005afe0       ?front@?$vector@U_SYSTEM_LOGICAL_PROCESSOR_INFORMATION@@V?$allocator@U_SYSTEM_LOGICAL_PROCESSOR_INFORMATION@@@std@@@std@@QAEAAU_SYSTEM_LOGICAL_PROCESSOR_INFORMATION@@XZ 0045bfe0 f i libboost_thread-vc140-mt-1_63:thread.obj
 0001:0005aff0       ?get@?$intrusive_ptr@Uthread_data_base@detail@boost@@@boost@@QBEPAUthread_data_base@detail@2@XZ 0045bff0 f i libboost_thread-vc140-mt-1_63:thread.obj
 0001:0005b000       ?get@?$refcount_ptr@Uerror_info_container@exception_detail@boost@@@exception_detail@boost@@QBEPAUerror_info_container@23@XZ 0045c000 f i libboost_thread-vc140-mt-1_63:thread.obj
 0001:0005b010       ?get_current_thread_data@detail@boost@@YAPAUthread_data_base@12@XZ 0045c010 f   libboost_thread-vc140-mt-1_63:thread.obj
 0001:0005b030       ?get_date@?$counted_time_system@U?$counted_time_rep@Vmillisec_posix_time_system_config@posix_time@boost@@@date_time@boost@@@date_time@boost@@SA?AVdate@gregorian@3@ABU?$counted_time_rep@Vmillisec_posix_time_system_config@posix_time@boost@@@23@@Z 0045c030 f i libboost_thread-vc140-mt-1_63:thread.obj
 0001:0005b340       ?get_id@this_thread@boost@@YA?AVid@thread@2@XZ 0045c340 f   libboost_thread-vc140-mt-1_63:thread.obj
 0001:0005b390       ?get_id@thread@boost@@QBE?AVid@12@XZ 0045c390 f   libboost_thread-vc140-mt-1_63:thread.obj
 0001:0005b450       ?get_milliseconds_until@detail@boost@@YAKABVptime@posix_time@2@@Z 0045c450 f i libboost_thread-vc140-mt-1_63:thread.obj
 0001:0005b530       ?get_rep@?$counted_time_rep@Vmillisec_posix_time_system_config@posix_time@boost@@@date_time@boost@@QBE?AV?$int_adapter@_J@23@XZ 0045c530 f i libboost_thread-vc140-mt-1_63:thread.obj
 0001:0005b550       ?get_rep@?$time_duration@V0posix_time@boost@@V?$time_resolution_traits@Utime_resolution_traits_adapted64_impl@date_time@boost@@$04$0PECEA@$05H@date_time@2@@date_time@boost@@QBE?AV?$int_adapter@_J@23@XZ 0045c550 f i libboost_thread-vc140-mt-1_63:thread.obj
 0001:0005b570       ?get_stack_size@thread_attributes@boost@@QBEIXZ 0045c570 f i libboost_thread-vc140-mt-1_63:thread.obj
 0001:0005b580       ?get_system_info@win32@detail@boost@@YAXPAU_SYSTEM_INFO@@@Z 0045c580 f i libboost_thread-vc140-mt-1_63:thread.obj
 0001:0005b590       ?get_system_time@boost@@YA?AVptime@posix_time@1@XZ 0045c590 f i libboost_thread-vc140-mt-1_63:thread.obj
 0001:0005b5b0       ?get_system_time_as_file_time@winapi@date_time@boost@@YAXAAU_FILETIME@@@Z 0045c5b0 f i libboost_thread-vc140-mt-1_63:thread.obj
 0001:0005b5c0       ?get_thread_info@thread@boost@@ABE?AV?$intrusive_ptr@Uthread_data_base@detail@boost@@@2@XZ 0045c5c0 f   libboost_thread-vc140-mt-1_63:thread.obj
 0001:0005b5f0       ?get_time_of_day@?$counted_time_system@U?$counted_time_rep@Vmillisec_posix_time_system_config@posix_time@boost@@@date_time@boost@@@date_time@boost@@SA?AVtime_duration@posix_time@3@ABU?$counted_time_rep@Vmillisec_posix_time_system_config@posix_time@boost@@@23@@Z 0045c5f0 f i libboost_thread-vc140-mt-1_63:thread.obj
 0001:0005b7d0       ?get_time_rep@?$counted_time_system@U?$counted_time_rep@Vmillisec_posix_time_system_config@posix_time@boost@@@date_time@boost@@@date_time@boost@@SA?AU?$counted_time_rep@Vmillisec_posix_time_system_config@posix_time@boost@@@23@ABVdate@gregorian@3@ABVtime_duration@posix_time@3@W4dst_flags@23@@Z 0045c7d0 f i libboost_thread-vc140-mt-1_63:thread.obj
 0001:0005b7f0       ?get_tss_data@detail@boost@@YAPAXPBX@Z 0045c7f0 f   libboost_thread-vc140-mt-1_63:thread.obj
 0001:0005b850       ?hardware_concurrency@thread@boost@@SAIXZ 0045c850 f   libboost_thread-vc140-mt-1_63:thread.obj
 0001:0005b8b0       ?hours@?$time_duration@V0posix_time@boost@@V?$time_resolution_traits@Utime_resolution_traits_adapted64_impl@date_time@boost@@$04$0PECEA@$05H@date_time@2@@date_time@boost@@QBEHXZ 0045c8b0 f i libboost_thread-vc140-mt-1_63:thread.obj
 0001:0005b8d0       ?interlocked_bit_test_and_set@win32@detail@boost@@YA_NPAJJ@Z 0045c8d0 f i libboost_thread-vc140-mt-1_63:thread.obj
 0001:0005b8f0       ?interlocked_read_acquire@detail@boost@@YAJPCJ@Z 0045c8f0 f i libboost_thread-vc140-mt-1_63:thread.obj
 0001:0005b900       ?interlocked_read_acquire@detail@boost@@YAPAXPCRAX@Z 0045c900 f i libboost_thread-vc140-mt-1_63:thread.obj
 0001:0005b910       ?interlocked_write_release@detail@boost@@YAXPCJJ@Z 0045c910 f i libboost_thread-vc140-mt-1_63:thread.obj
 0001:0005b920       ?interrupt@thread@boost@@QAEXXZ 0045c920 f   libboost_thread-vc140-mt-1_63:thread.obj
 0001:0005b9d0       ?interrupt@thread_data_base@detail@boost@@QAEXXZ 0045c9d0 f i libboost_thread-vc140-mt-1_63:thread.obj
 0001:0005b9e0       ?interruptible_wait@this_thread@boost@@YA_NPAXUtimeout@detail@2@@Z 0045c9e0 f   libboost_thread-vc140-mt-1_63:thread.obj
 0001:0005bcf0       ?interruption_enabled@this_thread@boost@@YA_NXZ 0045ccf0 f   libboost_thread-vc140-mt-1_63:thread.obj
 0001:0005bd90       ?interruption_point@this_thread@boost@@YAXXZ 0045cd90 f   libboost_thread-vc140-mt-1_63:thread.obj
 0001:0005be70       ?interruption_requested@this_thread@boost@@YA_NXZ 0045ce70 f   libboost_thread-vc140-mt-1_63:thread.obj
 0001:0005bf10       ?interruption_requested@thread@boost@@QBE_NXZ 0045cf10 f   libboost_thread-vc140-mt-1_63:thread.obj
 0001:0005bfc0       ?intrusive_ptr_add_ref@detail@boost@@YAXPAUthread_data_base@12@@Z 0045cfc0 f i libboost_thread-vc140-mt-1_63:thread.obj
 0001:0005bfd0       ?intrusive_ptr_release@detail@boost@@YAXPAUthread_data_base@12@@Z 0045cfd0 f i libboost_thread-vc140-mt-1_63:thread.obj
 0001:0005c010       ?intrusive_ptr_release@detail@boost@@YAXPAVbasic_cv_list_entry@12@@Z 0045d010 f i libboost_thread-vc140-mt-1_63:thread.obj
 0001:0005c0c0       ?is_adapted@?$time_resolution_traits@Utime_resolution_traits_adapted64_impl@date_time@boost@@$04$0PECEA@$05H@date_time@boost@@SA_NXZ 0045d0c0 f i libboost_thread-vc140-mt-1_63:thread.obj
 0001:0005c0d0       ?is_adapted@time_resolution_traits_adapted64_impl@date_time@boost@@SA_NXZ 0045d0d0 f i libboost_thread-vc140-mt-1_63:thread.obj
 0001:0005c0e0       ?is_inf@?$int_adapter@I@date_time@boost@@SA_NI@Z 0045d0e0 f i libboost_thread-vc140-mt-1_63:thread.obj
 0001:0005c100       ?is_infinity@?$date@V0gregorian@boost@@Vgregorian_calendar@12@Vdate_duration@12@@date_time@boost@@QBE_NXZ 0045d100 f i libboost_thread-vc140-mt-1_63:thread.obj
 0001:0005c120       ?is_infinity@?$int_adapter@I@date_time@boost@@QBE_NXZ 0045d120 f i libboost_thread-vc140-mt-1_63:thread.obj
 0001:0005c140       ?is_infinity@?$int_adapter@_J@date_time@boost@@QBE_NXZ 0045d140 f i libboost_thread-vc140-mt-1_63:thread.obj
 0001:0005c170       ?is_less@?$counted_time_system@U?$counted_time_rep@Vmillisec_posix_time_system_config@posix_time@boost@@@date_time@boost@@@date_time@boost@@SA_NABU?$counted_time_rep@Vmillisec_posix_time_system_config@posix_time@boost@@@23@0@Z 0045d170 f i libboost_thread-vc140-mt-1_63:thread.obj
 0001:0005c1a0       ?is_nan@?$int_adapter@I@date_time@boost@@QBE_NXZ 0045d1a0 f i libboost_thread-vc140-mt-1_63:thread.obj
 0001:0005c1b0       ?is_nan@?$int_adapter@_J@date_time@boost@@QBE_NXZ 0045d1b0 f i libboost_thread-vc140-mt-1_63:thread.obj
 0001:0005c1d0       ?is_neg_inf@?$int_adapter@I@date_time@boost@@SA_NI@Z 0045d1d0 f i libboost_thread-vc140-mt-1_63:thread.obj
 0001:0005c1e0       ?is_not_a_date@?$date@V0gregorian@boost@@Vgregorian_calendar@12@Vdate_duration@12@@date_time@boost@@QBE_NXZ 0045d1e0 f i libboost_thread-vc140-mt-1_63:thread.obj
 0001:0005c1f0       ?is_not_a_number@?$int_adapter@I@date_time@boost@@SA_NI@Z 0045d1f0 f i libboost_thread-vc140-mt-1_63:thread.obj
 0001:0005c200       ?is_not_a_number@?$int_adapter@_J@date_time@boost@@SA_N_J@Z 0045d200 f i libboost_thread-vc140-mt-1_63:thread.obj
 0001:0005c220       ?is_pos_inf@?$int_adapter@I@date_time@boost@@SA_NI@Z 0045d220 f i libboost_thread-vc140-mt-1_63:thread.obj
 0001:0005c230       ?is_pos_inf@?$int_adapter@_J@date_time@boost@@SA_N_J@Z 0045d230 f i libboost_thread-vc140-mt-1_63:thread.obj
 0001:0005c250       ?is_pos_infinity@?$base_time@Vptime@posix_time@boost@@V?$counted_time_system@U?$counted_time_rep@Vmillisec_posix_time_system_config@posix_time@boost@@@date_time@boost@@@date_time@3@@date_time@boost@@QBE_NXZ 0045d250 f i libboost_thread-vc140-mt-1_63:thread.obj
 0001:0005c270       ?is_pos_infinity@?$counted_time_rep@Vmillisec_posix_time_system_config@posix_time@boost@@@date_time@boost@@QBE_NXZ 0045d270 f i libboost_thread-vc140-mt-1_63:thread.obj
 0001:0005c290       ?is_sentinel@timeout@detail@boost@@QBE_NXZ 0045d290 f i libboost_thread-vc140-mt-1_63:thread.obj
 0001:0005c2b0       ?is_special@?$counted_time_rep@Vmillisec_posix_time_system_config@posix_time@boost@@@date_time@boost@@QBE_NXZ 0045d2b0 f i libboost_thread-vc140-mt-1_63:thread.obj
 0001:0005c2f0       ?is_special@?$int_adapter@I@date_time@boost@@QBE_NXZ 0045d2f0 f i libboost_thread-vc140-mt-1_63:thread.obj
 0001:0005c310       ?is_special@?$int_adapter@_J@date_time@boost@@QBE_NXZ 0045d310 f i libboost_thread-vc140-mt-1_63:thread.obj
 0001:0005c350       ?is_special@?$time_duration@V0posix_time@boost@@V?$time_resolution_traits@Utime_resolution_traits_adapted64_impl@date_time@boost@@$04$0PECEA@$05H@date_time@2@@date_time@boost@@QBE_NXZ 0045d350 f i libboost_thread-vc140-mt-1_63:thread.obj
 0001:0005c390       ?join_noexcept@thread@boost@@AAE_NXZ 0045d390 f   libboost_thread-vc140-mt-1_63:thread.obj
 0001:0005c510       ?joinable@thread@boost@@QBE_NXZ 0045d510 f   libboost_thread-vc140-mt-1_63:thread.obj
 0001:0005c600       ?lower_bound@?$_Tree@V?$_Tmap_traits@PBXUtss_data_node@detail@boost@@U?$less@PBX@std@@V?$allocator@U?$pair@QBXUtss_data_node@detail@boost@@@std@@@5@$0A@@std@@@std@@QAE?AV?$_Tree_iterator@V?$_Tree_val@U?$_Tree_simple_types@U?$pair@QBXUtss_data_node@detail@boost@@@std@@@std@@@std@@@2@ABQBX@Z 0045d600 f i libboost_thread-vc140-mt-1_63:thread.obj
 0001:0005c6f0       ?make_ready@shared_state_base@detail@boost@@QAEXXZ 0045d6f0 f i libboost_thread-vc140-mt-1_63:thread.obj
 0001:0005c7d0       ?mark_finished_internal@shared_state_base@detail@boost@@QAEXAAV?$unique_lock@Vmutex@boost@@@3@@Z 0045d7d0 f i libboost_thread-vc140-mt-1_63:thread.obj
 0001:0005c810       ?max@?$constrained_value@V?$simple_exception_policy@G$00$0BP@Ubad_day_of_month@gregorian@boost@@@CV@boost@@@CV@boost@@SAGXZ 0045d810 f i libboost_thread-vc140-mt-1_63:thread.obj
 0001:0005c820       ?max@?$constrained_value@V?$simple_exception_policy@G$00$0M@Ubad_month@gregorian@boost@@@CV@boost@@@CV@boost@@SAGXZ 0045d820 f i libboost_thread-vc140-mt-1_63:thread.obj
 0001:0005c830       ?max@?$constrained_value@V?$simple_exception_policy@G$0FHI@$0CHBA@Ubad_year@gregorian@boost@@@CV@boost@@@CV@boost@@SAGXZ 0045d830 f i libboost_thread-vc140-mt-1_63:thread.obj
 0001:0005c840       ?max@?$int_adapter@I@date_time@boost@@SA?AV123@XZ 0045d840 f i libboost_thread-vc140-mt-1_63:thread.obj
 0001:0005c850       ?max@?$int_adapter@_J@date_time@boost@@SA?AV123@XZ 0045d850 f i libboost_thread-vc140-mt-1_63:thread.obj
 0001:0005c870       ?max@?$numeric_limits@I@std@@SAIXZ 0045d870 f i libboost_thread-vc140-mt-1_63:thread.obj
 0001:0005c880       ?max@?$numeric_limits@_J@std@@SA_JXZ 0045d880 f i libboost_thread-vc140-mt-1_63:thread.obj
 0001:0005c890       ?max@?$simple_exception_policy@G$00$0BP@Ubad_day_of_month@gregorian@boost@@@CV@boost@@SAGXZ 0045d890 f i libboost_thread-vc140-mt-1_63:thread.obj
 0001:0005c8a0       ?max@?$simple_exception_policy@G$00$0M@Ubad_month@gregorian@boost@@@CV@boost@@SAGXZ 0045d8a0 f i libboost_thread-vc140-mt-1_63:thread.obj
 0001:0005c8b0       ?max@?$simple_exception_policy@G$0FHI@$0CHBA@Ubad_year@gregorian@boost@@@CV@boost@@SAGXZ 0045d8b0 f i libboost_thread-vc140-mt-1_63:thread.obj
 0001:0005c8c0       ?max_size@?$_Tree@V?$_Tmap_traits@PBXUtss_data_node@detail@boost@@U?$less@PBX@std@@V?$allocator@U?$pair@QBXUtss_data_node@detail@boost@@@std@@@5@$0A@@std@@@std@@QBEIXZ 0045d8c0 f i libboost_thread-vc140-mt-1_63:thread.obj
 0001:0005c8d0       ?max_size@?$_Wrap_alloc@V?$allocator@U?$_Tree_node@U?$pair@QBXUtss_data_node@detail@boost@@@std@@PAX@std@@@std@@@std@@QBEIU_Nil@2@@Z 0045d8d0 f i libboost_thread-vc140-mt-1_63:thread.obj
 0001:0005c8e0       ?max_size@?$_Wrap_alloc@V?$allocator@U?$pair@PAVcondition_variable@boost@@PAVmutex@2@@std@@@std@@@std@@QBEIU_Nil@2@@Z 0045d8e0 f i libboost_thread-vc140-mt-1_63:thread.obj
 0001:0005c8f0       ?max_size@?$_Wrap_alloc@V?$allocator@U_SYSTEM_LOGICAL_PROCESSOR_INFORMATION@@@std@@@std@@QBEIU_Nil@2@@Z 0045d8f0 f i libboost_thread-vc140-mt-1_63:thread.obj
 0001:0005c900       ?max_size@?$allocator@U?$_Tree_node@U?$pair@QBXUtss_data_node@detail@boost@@@std@@PAX@std@@@std@@QBEIXZ 0045d900 f i libboost_thread-vc140-mt-1_63:thread.obj
 0001:0005c910       ?max_size@?$allocator@U?$pair@PAVcondition_variable@boost@@PAVmutex@2@@std@@@std@@QBEIXZ 0045d910 f i libboost_thread-vc140-mt-1_63:thread.obj
 0001:0005c920       ?max_size@?$allocator@U_SYSTEM_LOGICAL_PROCESSOR_INFORMATION@@@std@@QBEIXZ 0045d920 f i libboost_thread-vc140-mt-1_63:thread.obj
 0001:0005c930       ?max_size@?$allocator_traits@V?$allocator@U?$_Tree_node@U?$pair@QBXUtss_data_node@detail@boost@@@std@@PAX@std@@@std@@@std@@SAIABV?$allocator@U?$_Tree_node@U?$pair@QBXUtss_data_node@detail@boost@@@std@@PAX@std@@@2@@Z 0045d930 f i libboost_thread-vc140-mt-1_63:thread.obj
 0001:0005c940       ?max_size@?$allocator_traits@V?$allocator@U?$pair@PAVcondition_variable@boost@@PAVmutex@2@@std@@@std@@@std@@SAIABV?$allocator@U?$pair@PAVcondition_variable@boost@@PAVmutex@2@@std@@@2@@Z 0045d940 f i libboost_thread-vc140-mt-1_63:thread.obj
 0001:0005c950       ?max_size@?$allocator_traits@V?$allocator@U_SYSTEM_LOGICAL_PROCESSOR_INFORMATION@@@std@@@std@@SAIABV?$allocator@U_SYSTEM_LOGICAL_PROCESSOR_INFORMATION@@@2@@Z 0045d950 f i libboost_thread-vc140-mt-1_63:thread.obj
 0001:0005c960       ?max_size@?$vector@U?$pair@PAVcondition_variable@boost@@PAVmutex@2@@std@@V?$allocator@U?$pair@PAVcondition_variable@boost@@PAVmutex@2@@std@@@2@@std@@QBEIXZ 0045d960 f i libboost_thread-vc140-mt-1_63:thread.obj
 0001:0005c970       ?max_size@?$vector@U_SYSTEM_LOGICAL_PROCESSOR_INFORMATION@@V?$allocator@U_SYSTEM_LOGICAL_PROCESSOR_INFORMATION@@@std@@@std@@QBEIXZ 0045d970 f i libboost_thread-vc140-mt-1_63:thread.obj
 0001:0005c980       ?min@?$constrained_value@V?$simple_exception_policy@G$00$0BP@Ubad_day_of_month@gregorian@boost@@@CV@boost@@@CV@boost@@SAGXZ 0045d980 f i libboost_thread-vc140-mt-1_63:thread.obj
 0001:0005c990       ?min@?$constrained_value@V?$simple_exception_policy@G$00$0M@Ubad_month@gregorian@boost@@@CV@boost@@@CV@boost@@SAGXZ 0045d990 f i libboost_thread-vc140-mt-1_63:thread.obj
 0001:0005c9a0       ?min@?$constrained_value@V?$simple_exception_policy@G$0FHI@$0CHBA@Ubad_year@gregorian@boost@@@CV@boost@@@CV@boost@@SAGXZ 0045d9a0 f i libboost_thread-vc140-mt-1_63:thread.obj
 0001:0005c9b0       ?min@?$int_adapter@I@date_time@boost@@SA?AV123@XZ 0045d9b0 f i libboost_thread-vc140-mt-1_63:thread.obj
 0001:0005c9c0       ?min@?$int_adapter@_J@date_time@boost@@SA?AV123@XZ 0045d9c0 f i libboost_thread-vc140-mt-1_63:thread.obj
 0001:0005c9e0       ?min@?$numeric_limits@I@std@@SAIXZ 0045d9e0 f i libboost_thread-vc140-mt-1_63:thread.obj
 0001:0005c9f0       ?min@?$numeric_limits@_J@std@@SA_JXZ 0045d9f0 f i libboost_thread-vc140-mt-1_63:thread.obj
 0001:0005ca00       ?min@?$simple_exception_policy@G$00$0BP@Ubad_day_of_month@gregorian@boost@@@CV@boost@@SAGXZ 0045da00 f i libboost_thread-vc140-mt-1_63:thread.obj
 0001:0005ca10       ?min@?$simple_exception_policy@G$00$0M@Ubad_month@gregorian@boost@@@CV@boost@@SAGXZ 0045da10 f i libboost_thread-vc140-mt-1_63:thread.obj
 0001:0005ca20       ?min@?$simple_exception_policy@G$0FHI@$0CHBA@Ubad_year@gregorian@boost@@@CV@boost@@SAGXZ 0045da20 f i libboost_thread-vc140-mt-1_63:thread.obj
 0001:0005ca30       ?minutes@?$time_duration@V0posix_time@boost@@V?$time_resolution_traits@Utime_resolution_traits_adapted64_impl@date_time@boost@@$04$0PECEA@$05H@date_time@2@@date_time@boost@@QBEHXZ 0045da30 f i libboost_thread-vc140-mt-1_63:thread.obj
 0001:0005ca60       ?month@?$date@V0gregorian@boost@@Vgregorian_calendar@12@Vdate_duration@12@@date_time@boost@@QBE?AVgreg_month@gregorian@3@XZ 0045da60 f i libboost_thread-vc140-mt-1_63:thread.obj
 0001:0005ca90       ?name_once_mutex@detail@boost@@YAXPADPAX@Z 0045da90 f i libboost_thread-vc140-mt-1_63:thread.obj
 0001:0005cb10       ?native_handle@thread@boost@@QAEPAXXZ 0045db10 f   libboost_thread-vc140-mt-1_63:thread.obj
 0001:0005cbc0       ?neg_infinity@?$int_adapter@I@date_time@boost@@SA?BV123@XZ 0045dbc0 f i libboost_thread-vc140-mt-1_63:thread.obj
 0001:0005cbd0       ?neg_infinity@?$int_adapter@_J@date_time@boost@@SA?BV123@XZ 0045dbd0 f i libboost_thread-vc140-mt-1_63:thread.obj
 0001:0005cbf0       ?non_interruptible_wait@no_interruption_point@this_thread@boost@@YA_NPAXUtimeout@detail@3@@Z 0045dbf0 f   libboost_thread-vc140-mt-1_63:thread.obj
 0001:0005ce40       ?not_a_number@?$int_adapter@I@date_time@boost@@SA?BV123@XZ 0045de40 f i libboost_thread-vc140-mt-1_63:thread.obj
 0001:0005ce50       ?not_a_number@?$int_adapter@_J@date_time@boost@@SA?BV123@XZ 0045de50 f i libboost_thread-vc140-mt-1_63:thread.obj
 0001:0005ce70       ?notify_all_at_thread_exit@boost@@YAXAAVcondition_variable@1@V?$unique_lock@Vmutex@boost@@@1@@Z 0045de70 f   libboost_thread-vc140-mt-1_63:thread.obj
 0001:0005cf50       ?on_error@?$simple_exception_policy@G$00$0BP@Ubad_day_of_month@gregorian@boost@@@CV@boost@@SAXGGW4violation_enum@23@@Z 0045df50 f i libboost_thread-vc140-mt-1_63:thread.obj
 0001:0005cfa0       ?on_error@?$simple_exception_policy@G$00$0M@Ubad_month@gregorian@boost@@@CV@boost@@SAXGGW4violation_enum@23@@Z 0045dfa0 f i libboost_thread-vc140-mt-1_63:thread.obj
 0001:0005cff0       ?on_error@?$simple_exception_policy@G$0FHI@$0CHBA@Ubad_year@gregorian@boost@@@CV@boost@@SAXGGW4violation_enum@23@@Z 0045dff0 f i libboost_thread-vc140-mt-1_63:thread.obj
 0001:0005d040       ?on_process_enter@boost@@YAXXZ 0045e040 f   libboost_thread-vc140-mt-1_63:thread.obj
 0001:0005d050       ?on_process_exit@boost@@YAXXZ 0045e050 f   libboost_thread-vc140-mt-1_63:thread.obj
 0001:0005d080       ?on_thread_enter@boost@@YAXXZ 0045e080 f   libboost_thread-vc140-mt-1_63:thread.obj
 0001:0005d090       ?on_thread_exit@boost@@YAXXZ 0045e090 f   libboost_thread-vc140-mt-1_63:thread.obj
 0001:0005d0a0       ?open_once_event@detail@boost@@YAPAXPADPAX@Z 0045e0a0 f i libboost_thread-vc140-mt-1_63:thread.obj
 0001:0005d0d0       ?owns_lock@?$unique_lock@Vmutex@boost@@@boost@@QBE_NXZ 0045e0d0 f i libboost_thread-vc140-mt-1_63:thread.obj
 0001:0005d0e0       ?physical_concurrency@thread@boost@@SAIXZ 0045e0e0 f   libboost_thread-vc140-mt-1_63:thread.obj
 0001:0005d370       ?pointer_to@?$pointer_traits@PAU?$pair@PAVcondition_variable@boost@@PAVmutex@2@@std@@@std@@SAPAU?$pair@PAVcondition_variable@boost@@PAVmutex@2@@2@AAU32@@Z 0045e370 f i libboost_thread-vc140-mt-1_63:thread.obj
 0001:0005d380       ?pointer_to@?$pointer_traits@PAU?$pair@QBXUtss_data_node@detail@boost@@@std@@@std@@SAPAU?$pair@QBXUtss_data_node@detail@boost@@@2@AAU32@@Z 0045e380 f i libboost_thread-vc140-mt-1_63:thread.obj
 0001:0005d390       ?pos_infinity@?$int_adapter@I@date_time@boost@@SA?BV123@XZ 0045e390 f i libboost_thread-vc140-mt-1_63:thread.obj
 0001:0005d3a0       ?pos_infinity@?$int_adapter@_J@date_time@boost@@SA?BV123@XZ 0045e3a0 f i libboost_thread-vc140-mt-1_63:thread.obj
 0001:0005d3c0       ?release@?$refcount_ptr@Uerror_info_container@exception_detail@boost@@@exception_detail@boost@@AAEXXZ 0045e3c0 f i libboost_thread-vc140-mt-1_63:thread.obj
 0001:0005d3f0       ?release@?$unique_lock@Vmutex@boost@@@boost@@QAEPAVmutex@2@XZ 0045e3f0 f i libboost_thread-vc140-mt-1_63:thread.obj
 0001:0005d400       ?release@basic_cv_list_entry@detail@boost@@QAEXI@Z 0045e400 f i libboost_thread-vc140-mt-1_63:thread.obj
 0001:0005d420       ?release@sp_counted_base@detail@boost@@QAEXXZ 0045e420 f i libboost_thread-vc140-mt-1_63:thread.obj
 0001:0005d460       ?release_handle@thread@boost@@AAEXXZ 0045e460 f   libboost_thread-vc140-mt-1_63:thread.obj
 0001:0005d4f0       ?release_waiters@basic_cv_list_entry@detail@boost@@QAEXXZ 0045e4f0 f i libboost_thread-vc140-mt-1_63:thread.obj
 0001:0005d510       ?remaining_milliseconds@timeout@detail@boost@@QBE?AUremaining_time@123@XZ 0045e510 f i libboost_thread-vc140-mt-1_63:thread.obj
 0001:0005d6a0       ?res_adjust@?$time_resolution_traits@Utime_resolution_traits_adapted64_impl@date_time@boost@@$04$0PECEA@$05H@date_time@boost@@SA_JXZ 0045e6a0 f i libboost_thread-vc140-mt-1_63:thread.obj
 0001:0005d6b0       ?rollback_once_region@detail@boost@@YAXAAUonce_flag@2@AAUonce_context@12@@Z 0045e6b0 f i libboost_thread-vc140-mt-1_63:thread.obj
 0001:0005d910       ?seconds@?$time_duration@V0posix_time@boost@@V?$time_resolution_traits@Utime_resolution_traits_adapted64_impl@date_time@boost@@$04$0PECEA@$05H@date_time@2@@date_time@boost@@QBEHXZ 0045e910 f i libboost_thread-vc140-mt-1_63:thread.obj
 0001:0005d940       ?sentinel@timeout@detail@boost@@SA?AU123@XZ 0045e940 f i libboost_thread-vc140-mt-1_63:thread.obj
 0001:0005da20       ?set_tss_data@detail@boost@@YAXPBXV?$shared_ptr@Utss_cleanup_function@detail@boost@@@2@PAX_N@Z 0045ea20 f   libboost_thread-vc140-mt-1_63:thread.obj
 0001:0005dba0       ?size@?$_Tree@V?$_Tmap_traits@PBXUtss_data_node@detail@boost@@U?$less@PBX@std@@V?$allocator@U?$pair@QBXUtss_data_node@detail@boost@@@std@@@5@$0A@@std@@@std@@QBEIXZ 0045eba0 f i libboost_thread-vc140-mt-1_63:thread.obj
 0001:0005dbb0       ?size@?$vector@U?$pair@PAVcondition_variable@boost@@PAVmutex@2@@std@@V?$allocator@U?$pair@PAVcondition_variable@boost@@PAVmutex@2@@std@@@2@@std@@QBEIXZ 0045ebb0 f i libboost_thread-vc140-mt-1_63:thread.obj
 0001:0005dbc0       ?sleep@win32@detail@boost@@YAXK@Z 0045ebc0 f i libboost_thread-vc140-mt-1_63:thread.obj
 0001:0005dbe0       ?start_thread_noexcept@thread@boost@@AAE_NABVthread_attributes@2@@Z 0045ebe0 f   libboost_thread-vc140-mt-1_63:thread.obj
 0001:0005dc60       ?start_thread_noexcept@thread@boost@@AAE_NXZ 0045ec60 f   libboost_thread-vc140-mt-1_63:thread.obj
 0001:0005dce0       ?swap@?$intrusive_ptr@Uthread_data_base@detail@boost@@@boost@@QAEXAAV12@@Z 0045ece0 f i libboost_thread-vc140-mt-1_63:thread.obj
 0001:0005dd00       ?swap@?$shared_ptr@Utss_cleanup_function@detail@boost@@@boost@@QAEXAAV12@@Z 0045ed00 f i libboost_thread-vc140-mt-1_63:thread.obj
 0001:0005dd30       ?swap@shared_count@detail@boost@@QAEXAAV123@@Z 0045ed30 f i libboost_thread-vc140-mt-1_63:thread.obj
 0001:0005de00       ?throw_exception_assert_compatibility@boost@@YAXABVexception@std@@@Z 0045ee00 f i libboost_thread-vc140-mt-1_63:thread.obj
 0001:0005de10       ?ticks@?$time_duration@V0posix_time@boost@@V?$time_resolution_traits@Utime_resolution_traits_adapted64_impl@date_time@boost@@$04$0PECEA@$05H@date_time@2@@date_time@boost@@QBE_JXZ 0045ee10 f i libboost_thread-vc140-mt-1_63:thread.obj
 0001:0005de20       ?ticks_per_second@?$time_duration@V0posix_time@boost@@V?$time_resolution_traits@Utime_resolution_traits_adapted64_impl@date_time@boost@@$04$0PECEA@$05H@date_time@2@@date_time@boost@@SA_JXZ 0045ee20 f i libboost_thread-vc140-mt-1_63:thread.obj
 0001:0005de30       ?time_count@?$counted_time_rep@Vmillisec_posix_time_system_config@posix_time@boost@@@date_time@boost@@QBE_JXZ 0045ee30 f i libboost_thread-vc140-mt-1_63:thread.obj
 0001:0005de40       ?time_of_day@?$base_time@Vptime@posix_time@boost@@V?$counted_time_system@U?$counted_time_rep@Vmillisec_posix_time_system_config@posix_time@boost@@@date_time@boost@@@date_time@3@@date_time@boost@@QBE?AVtime_duration@posix_time@3@XZ 0045ee40 f i libboost_thread-vc140-mt-1_63:thread.obj
 0001:0005de60       ?timed_join@thread@boost@@QAE_NABVptime@posix_time@2@@Z 0045ee60 f   libboost_thread-vc140-mt-1_63:thread.obj
 0001:0005de90       ?to_special@?$int_adapter@_J@date_time@boost@@SA?AW4special_values@23@_J@Z 0045ee90 f i libboost_thread-vc140-mt-1_63:thread.obj
 0001:0005dee0       ?tod@?$counted_time_rep@Vmillisec_posix_time_system_config@posix_time@boost@@@date_time@boost@@QBE_JXZ 0045eee0 f i libboost_thread-vc140-mt-1_63:thread.obj
 0001:0005df00       ?total_milliseconds@?$time_duration@V0posix_time@boost@@V?$time_resolution_traits@Utime_resolution_traits_adapted64_impl@date_time@boost@@$04$0PECEA@$05H@date_time@2@@date_time@boost@@QBE_JXZ 0045ef00 f i libboost_thread-vc140-mt-1_63:thread.obj
 0001:0005df20       ?try_lock@basic_timed_mutex@detail@boost@@QAE_NXZ 0045ef20 f i libboost_thread-vc140-mt-1_63:thread.obj
 0001:0005df40       ?universal_time@?$microsec_clock@Vptime@posix_time@boost@@@date_time@boost@@SA?AVptime@posix_time@3@XZ 0045ef40 f i libboost_thread-vc140-mt-1_63:thread.obj
 0001:0005df60       ?unlock@basic_timed_mutex@detail@boost@@QAEXXZ 0045ef60 f i libboost_thread-vc140-mt-1_63:thread.obj
 0001:0005dfa0       ?wake_waiters@basic_condition_variable@detail@boost@@AAEXJ@Z 0045efa0 f i libboost_thread-vc140-mt-1_63:thread.obj
 0001:0005dfc0       ?weak_release@sp_counted_base@detail@boost@@QAEXXZ 0045efc0 f i libboost_thread-vc140-mt-1_63:thread.obj
 0001:0005dfe0       ?year@?$date@V0gregorian@boost@@Vgregorian_calendar@12@Vdate_duration@12@@date_time@boost@@QBE?AVgreg_year@gregorian@3@XZ 0045efe0 f i libboost_thread-vc140-mt-1_63:thread.obj
 0001:0005e010       ?yield@this_thread@boost@@YAXXZ 0045f010 f   libboost_thread-vc140-mt-1_63:thread.obj
 0001:0005e060       __InlineInterlockedCompareExchangePointer 0045f060 f i libboost_thread-vc140-mt-1_63:thread.obj
 0001:0005e140       ?tss_cleanup_implemented@boost@@YAXXZ 0045f140 f   libboost_thread-vc140-mt-1_63:tss_pe.obj
 0001:0005e142       _MiniDumpWriteDump@28      0045f142 f   Dbghelp:dbghelp.dll
 0001:0005e148       _memcpy                    0045f148 f   vcruntime:VCRUNTIME140.dll
 0001:0005e14e       _memset                    0045f14e f   vcruntime:VCRUNTIME140.dll
 0001:0005e154       __purecall                 0045f154 f   vcruntime:VCRUNTIME140.dll
 0001:0005e15a       ___std_terminate           0045f15a f   vcruntime:VCRUNTIME140.dll
 0001:0005e160       _memmove                   0045f160 f   vcruntime:VCRUNTIME140.dll
 0001:0005e166       ___std_exception_copy      0045f166 f   vcruntime:VCRUNTIME140.dll
 0001:0005e16c       ___std_exception_destroy   0045f16c f   vcruntime:VCRUNTIME140.dll
 0001:0005e172       __CxxThrowException@8      0045f172 f   vcruntime:VCRUNTIME140.dll
 0001:0005e178       ___CxxFrameHandler3        0045f178 f   vcruntime:VCRUNTIME140.dll
 0001:0005e17e       ___std_type_info_compare   0045f17e f   vcruntime:VCRUNTIME140.dll
 0001:0005e184       ___vcrt_InitializeCriticalSectionEx 0045f184 f   vcruntime:VCRUNTIME140.dll
 0001:0005e18a       __except_handler4_common   0045f18a f   vcruntime:VCRUNTIME140.dll
 0001:0005e190       ___std_type_info_destroy_list 0045f190 f   vcruntime:VCRUNTIME140.dll
 0001:0005e196       __invalid_parameter_noinfo 0045f196 f   ucrt:api-ms-win-crt-runtime-l1-1-0.dll
 0001:0005e19c       __errno                    0045f19c f   ucrt:api-ms-win-crt-runtime-l1-1-0.dll
 0001:0005e1a2       __invalid_parameter_noinfo_noreturn 0045f1a2 f   ucrt:api-ms-win-crt-runtime-l1-1-0.dll
 0001:0005e1a8       _signal                    0045f1a8 f   ucrt:api-ms-win-crt-runtime-l1-1-0.dll
 0001:0005e1ae       ___stdio_common_vswprintf  0045f1ae f   ucrt:api-ms-win-crt-stdio-l1-1-0.dll
 0001:0005e1b4       __libm_sse2_pow_precise    0045f1b4 f   ucrt:api-ms-win-crt-math-l1-1-0.dll
 0001:0005e1ba       __localtime64              0045f1ba f   ucrt:api-ms-win-crt-time-l1-1-0.dll
 0001:0005e1c0       __time64                   0045f1c0 f   ucrt:api-ms-win-crt-time-l1-1-0.dll
 0001:0005e1c6       __beginthreadex            0045f1c6 f   ucrt:api-ms-win-crt-runtime-l1-1-0.dll
 0001:0005e1cc       __gmtime64                 0045f1cc f   ucrt:api-ms-win-crt-time-l1-1-0.dll
 0001:0005e1d2       __callnewh                 0045f1d2 f   ucrt:api-ms-win-crt-heap-l1-1-0.dll
 0001:0005e1d8       _malloc                    0045f1d8 f   ucrt:api-ms-win-crt-heap-l1-1-0.dll
 0001:0005e1de       _terminate                 0045f1de f   ucrt:api-ms-win-crt-runtime-l1-1-0.dll
 0001:0005e1e4       _free                      0045f1e4 f   ucrt:api-ms-win-crt-heap-l1-1-0.dll
 0001:0005e1ea       __seh_filter_dll           0045f1ea f   ucrt:api-ms-win-crt-runtime-l1-1-0.dll
 0001:0005e1f0       __configure_narrow_argv    0045f1f0 f   ucrt:api-ms-win-crt-runtime-l1-1-0.dll
 0001:0005e1f6       __initialize_narrow_environment 0045f1f6 f   ucrt:api-ms-win-crt-runtime-l1-1-0.dll
 0001:0005e1fc       __initialize_onexit_table  0045f1fc f   ucrt:api-ms-win-crt-runtime-l1-1-0.dll
 0001:0005e202       __register_onexit_function 0045f202 f   ucrt:api-ms-win-crt-runtime-l1-1-0.dll
 0001:0005e208       __execute_onexit_table     0045f208 f   ucrt:api-ms-win-crt-runtime-l1-1-0.dll
 0001:0005e20e       __crt_atexit               0045f20e f   ucrt:api-ms-win-crt-runtime-l1-1-0.dll
 0001:0005e214       __crt_at_quick_exit        0045f214 f   ucrt:api-ms-win-crt-runtime-l1-1-0.dll
 0001:0005e21a       __cexit                    0045f21a f   ucrt:api-ms-win-crt-runtime-l1-1-0.dll
 0001:0005e220       __seh_filter_exe           0045f220 f   ucrt:api-ms-win-crt-runtime-l1-1-0.dll
 0001:0005e226       __set_app_type             0045f226 f   ucrt:api-ms-win-crt-runtime-l1-1-0.dll
 0001:0005e22c       ___setusermatherr          0045f22c f   ucrt:api-ms-win-crt-math-l1-1-0.dll
 0001:0005e232       __get_narrow_winmain_command_line 0045f232 f   ucrt:api-ms-win-crt-runtime-l1-1-0.dll
 0001:0005e238       __initterm                 0045f238 f   ucrt:api-ms-win-crt-runtime-l1-1-0.dll
 0001:0005e23e       __initterm_e               0045f23e f   ucrt:api-ms-win-crt-runtime-l1-1-0.dll
 0001:0005e244       _exit                      0045f244 f   ucrt:api-ms-win-crt-runtime-l1-1-0.dll
 0001:0005e24a       __exit                     0045f24a f   ucrt:api-ms-win-crt-runtime-l1-1-0.dll
 0001:0005e250       __set_fmode                0045f250 f   ucrt:api-ms-win-crt-stdio-l1-1-0.dll
 0001:0005e256       __c_exit                   0045f256 f   ucrt:api-ms-win-crt-runtime-l1-1-0.dll
 0001:0005e25c       __register_thread_local_exe_atexit_callback 0045f25c f   ucrt:api-ms-win-crt-runtime-l1-1-0.dll
 0001:0005e262       __configthreadlocale       0045f262 f   ucrt:api-ms-win-crt-locale-l1-1-0.dll
 0001:0005e268       __set_new_mode             0045f268 f   ucrt:api-ms-win-crt-heap-l1-1-0.dll
 0001:0005e26e       ___p__commode              0045f26e f   ucrt:api-ms-win-crt-stdio-l1-1-0.dll
 0001:0005e274       __controlfp_s              0045f274 f   ucrt:api-ms-win-crt-runtime-l1-1-0.dll
 0001:0005e27a       _strerror                  0045f27a f   ucrt:api-ms-win-crt-runtime-l1-1-0.dll
 0001:0005e2e0       _WinMain@16                0045f2e0 f   qtmain:qtmain_win.obj
 0001:0005e446       _ResetEvent@4              0045f446 f   kernel32:KERNEL32.dll
 0001:0005e44c       _GetModuleHandleW@4        0045f44c f   kernel32:KERNEL32.dll
 0001:0005e452       _GetProcAddress@8          0045f452 f   kernel32:KERNEL32.dll
 0001:0005e458       _IsDebuggerPresent@0       0045f458 f   kernel32:KERNEL32.dll
 0001:0005e45e       _UnhandledExceptionFilter@4 0045f45e f   kernel32:KERNEL32.dll
 0001:0005e464       _GetStartupInfoW@4         0045f464 f   kernel32:KERNEL32.dll
 0001:0005e46a       _IsProcessorFeaturePresent@4 0045f46a f   kernel32:KERNEL32.dll
 0001:0005e470       _TerminateProcess@8        0045f470 f   kernel32:KERNEL32.dll
 0001:0005e476       _QueryPerformanceCounter@4 0045f476 f   kernel32:KERNEL32.dll
 0001:0005e47c       _InitializeSListHead@4     0045f47c f   kernel32:KERNEL32.dll
 0001:0005e482       _LocalFree@4               0045f482 f   kernel32:KERNEL32.dll
 0001:0005e488       _FormatMessageA@28         0045f488 f   kernel32:KERNEL32.dll
 0001:0005e48e       _WaitForMultipleObjectsEx@20 0045f48e f   kernel32:KERNEL32.dll
 0001:0005e494       _OpenEventA@12             0045f494 f   kernel32:KERNEL32.dll
 0001:0005e49a       _ResumeThread@4            0045f49a f   kernel32:KERNEL32.dll
 0001:0005e4a0       _GetSystemInfo@4           0045f4a0 f   kernel32:KERNEL32.dll
 0001:0005e4a6       _GetTickCount@0            0045f4a6 f   kernel32:KERNEL32.dll
 0001:0005e4ac       _GetLogicalProcessorInformation@8 0045f4ac f   kernel32:KERNEL32.dll
 0001:0005e4b2       _GetModuleHandleA@4        0045f4b2 f   kernel32:KERNEL32.dll
 0001:0005e4b8       _CreateWaitableTimerA@12   0045f4b8 f   kernel32:KERNEL32.dll
 0001:0005e4be       _SystemTimeToFileTime@8    0045f4be f   kernel32:KERNEL32.dll
 0001:0005e4c4       _GetCommandLineW@0         0045f4c4 f   kernel32:KERNEL32.dll
 0001:0005e4ca       _CommandLineToArgvW@8      0045f4ca f   shell32:SHELL32.dll
 0001:0005e4d0       __allrem                   0045f4d0 f   MSVCRT:llrem.obj
 0001:0005e5ae       ___scrt_stub_for_acrt_initialize 0045f5ae f   MSVCRT:ucrt_stubs.obj
 0001:0005e5ae       ___acrt_initialize         0045f5ae f   MSVCRT:ucrt_stubs.obj
 0001:0005e5ae       ___vcrt_initialize         0045f5ae f   MSVCRT:ucrt_stubs.obj
 0001:0005e5b1       ___vcrt_thread_attach      0045f5b1 f   MSVCRT:ucrt_stubs.obj
 0001:0005e5b1       ___scrt_stub_for_acrt_thread_attach 0045f5b1 f   MSVCRT:ucrt_stubs.obj
 0001:0005e5b1       ___acrt_thread_attach      0045f5b1 f   MSVCRT:ucrt_stubs.obj
 0001:0005e5b4       ___acrt_thread_detach      0045f5b4 f   MSVCRT:ucrt_stubs.obj
 0001:0005e5b4       ___scrt_stub_for_acrt_thread_detach 0045f5b4 f   MSVCRT:ucrt_stubs.obj
 0001:0005e5b4       ___vcrt_thread_detach      0045f5b4 f   MSVCRT:ucrt_stubs.obj
 0001:0005e5b7       ___scrt_stub_for_acrt_uninitialize 0045f5b7 f   MSVCRT:ucrt_stubs.obj
 0001:0005e5b7       ___acrt_uninitialize       0045f5b7 f   MSVCRT:ucrt_stubs.obj
 0001:0005e5b7       ___vcrt_uninitialize       0045f5b7 f   MSVCRT:ucrt_stubs.obj
 0001:0005e5ba       ___scrt_stub_for_acrt_uninitialize_critical 0045f5ba f   MSVCRT:ucrt_stubs.obj
 0001:0005e5ba       ___vcrt_uninitialize_critical 0045f5ba f   MSVCRT:ucrt_stubs.obj
 0001:0005e5ba       ___acrt_uninitialize_critical 0045f5ba f   MSVCRT:ucrt_stubs.obj
 0001:0005e5bd       ___scrt_stub_for_is_c_termination_complete 0045f5bd f   MSVCRT:ucrt_stubs.obj
 0001:0005e5bd       __is_c_termination_complete 0045f5bd f   MSVCRT:ucrt_stubs.obj
 0001:0006fba0       ??__Finstance@?1??get_misc_category@error@asio@boost@@YAABVerror_category@system@3@XZ@YAXXZ 00470ba0 f i usebuffer.obj
 0002:00000000       ___xc_a                    00475000     MSVCRT:initializers.obj
 0002:00000674       ?p_process_init@?A0x1f7031c8@@3P6AHXZA 00475674     libboost_thread-vc140-mt-1_63:tss_pe.obj
 0002:00000798       ___xc_z                    00475798     MSVCRT:initializers.obj
 0002:0000089c       ___xi_a                    0047589c     MSVCRT:initializers.obj
 0002:00000cac       ?p_tls_prepare@?A0x1f7031c8@@3P6AHXZA 00475cac     libboost_thread-vc140-mt-1_63:tss_pe.obj
 0002:00000db0       ___xi_z                    00475db0     MSVCRT:initializers.obj
 0002:00000eb4       ___xl_a                    00475eb4     MSVCRT:tlssup.obj
 0002:00000eb8       ?__xl_ca@?A0x1f7031c8@@3P6GXPAUHINSTANCE__@@KPAX@ZA 00475eb8     libboost_thread-vc140-mt-1_63:tss_pe.obj
 0002:00000ebc       ___xl_z                    00475ebc     MSVCRT:tlssup.obj
 0002:00000ec0       ___xp_a                    00475ec0     MSVCRT:initializers.obj
 0002:00000fc4       ___xp_z                    00475fc4     MSVCRT:initializers.obj
 0002:000010c8       ___xt_a                    004760c8     MSVCRT:initializers.obj
 0002:000011cc       ?p_process_term@?A0x1f7031c8@@3P6AHXZA 004761cc     libboost_thread-vc140-mt-1_63:tss_pe.obj
 0002:000012d0       ___xt_z                    004762d0     MSVCRT:initializers.obj
 0002:000013e4       ??_7CanModuleBuffer@@6B@   004763e4     canmodulebuffer.obj
 0002:000013f0       ??_C@_0FK@INEIGHCM@CanModuleBuffer?3?3setBufferSize?0?V@ 004763f0     canmodulebuffer.obj
 0002:00001460       ??_7CCycleBuffer@@6B@      00476460     CCycleBuffer.obj
 0002:00001468       ??_C@_0FH@OPFPGIMP@CCycleBuffer?3?3setBufferSize?0?V?X?V?C@ 00476468     CCycleBuffer.obj
 0002:000014d4       ??_7bad_exception_@exception_detail@boost@@6Bexception@2@@ 004764d4     usebuffer.obj
 0002:000014e0       ??_7bad_exception_@exception_detail@boost@@6Bbad_exception@std@@@ 004764e0     usebuffer.obj
 0002:000014f0       ??_7clone_base@exception_detail@boost@@6B@ 004764f0     usebuffer.obj
 0002:00001500       ??_C@_07BDHGFFM@winsock?$AA@ 00476500     usebuffer.obj
 0002:0000150c       ??_C@_02LMMGGCAJ@?3?5?$AA@ 0047650c     usebuffer.obj
 0002:00001514       ??_7?$error_info_injector@Vsystem_error@system@boost@@@exception_detail@boost@@6Bsystem_error@system@2@@ 00476514     usebuffer.obj
 0002:00001524       ??_7?$error_info_injector@Vsystem_error@system@boost@@@exception_detail@boost@@6Bexception@2@@ 00476524     usebuffer.obj
 0002:00001530       ??_7?$clone_impl@U?$error_info_injector@Vsystem_error@system@boost@@@exception_detail@boost@@@exception_detail@boost@@6Bsystem_error@system@2@@ 00476530     usebuffer.obj
 0002:00001540       ??_7?$clone_impl@U?$error_info_injector@Vsystem_error@system@boost@@@exception_detail@boost@@@exception_detail@boost@@6Bexception@2@@ 00476540     usebuffer.obj
 0002:0000154c       ??_7?$clone_impl@U?$error_info_injector@Vsystem_error@system@boost@@@exception_detail@boost@@@exception_detail@boost@@6B@ 0047654c     usebuffer.obj
 0002:0000155c       ??_8?$clone_impl@U?$error_info_injector@Vsystem_error@system@boost@@@exception_detail@boost@@@exception_detail@boost@@7B@ 0047655c     usebuffer.obj
 0002:00001568       ??_C@_03GIEDOLBE@tss?$AA@  00476568     usebuffer.obj
 0002:00001570       ??_7?$sp_counted_impl_p@V?$clone_impl@Ubad_alloc_@exception_detail@boost@@@exception_detail@boost@@@detail@boost@@6B@ 00476570     usebuffer.obj
 0002:00001590       ??_7?$sp_counted_impl_p@V?$clone_impl@Ubad_exception_@exception_detail@boost@@@exception_detail@boost@@@detail@boost@@6B@ 00476590     usebuffer.obj
 0002:000015ac       ??_7?$clone_impl@Ubad_alloc_@exception_detail@boost@@@exception_detail@boost@@6Bexception@2@@ 004765ac     usebuffer.obj
 0002:000015b8       ??_7?$clone_impl@Ubad_alloc_@exception_detail@boost@@@exception_detail@boost@@6Bbad_alloc@std@@@ 004765b8     usebuffer.obj
 0002:000015c8       ??_7?$clone_impl@Ubad_alloc_@exception_detail@boost@@@exception_detail@boost@@6B@ 004765c8     usebuffer.obj
 0002:000015d8       ??_8?$clone_impl@Ubad_alloc_@exception_detail@boost@@@exception_detail@boost@@7B@ 004765d8     usebuffer.obj
 0002:000015e8       ??_C@_0FB@BKHKJIMG@E?3?2boost?2boost_1_63_0_msvc?2boost@ 004765e8     usebuffer.obj
 0002:00001650       ??_C@_0IK@LHEHAGMH@class?5boost?3?3exception_ptr?5__cde@ 00476650     usebuffer.obj
 0002:000016fc       ??_7?$clone_impl@Ubad_exception_@exception_detail@boost@@@exception_detail@boost@@6Bexception@2@@ 004766fc     usebuffer.obj
 0002:00001708       ??_7?$clone_impl@Ubad_exception_@exception_detail@boost@@@exception_detail@boost@@6Bbad_exception@std@@@ 00476708     usebuffer.obj
 0002:00001718       ??_7?$clone_impl@Ubad_exception_@exception_detail@boost@@@exception_detail@boost@@6B@ 00476718     usebuffer.obj
 0002:00001728       ??_8?$clone_impl@Ubad_exception_@exception_detail@boost@@@exception_detail@boost@@7B@ 00476728     usebuffer.obj
 0002:00001738       ??_7exception@std@@6B@     00476738     usebuffer.obj
 0002:00001744       ??_C@_0BC@EOODALEL@Unknown?5exception?$AA@ 00476744     usebuffer.obj
 0002:00001760       ??_7bad_exception@std@@6B@ 00476760     usebuffer.obj
 0002:0000176c       ??_C@_0O@DPKOEFFH@bad?5exception?$AA@ 0047676c     usebuffer.obj
 0002:00001780       ??_7bad_alloc@std@@6B@     00476780     usebuffer.obj
 0002:0000178c       ??_C@_0P@GHFPNOJB@bad?5allocation?$AA@ 0047678c     usebuffer.obj
 0002:000017a0       ??_C@_0IO@BHMGIOEK@class?5boost?3?3exception_ptr?5__cde@ 004767a0     usebuffer.obj
 0002:0000184c       ?npos@?$basic_string@DU?$char_traits@D@std@@V?$allocator@D@2@@std@@2IB 0047684c     usebuffer.obj
 0002:00001854       ??_7bad_alloc_@exception_detail@boost@@6Bexception@2@@ 00476854     usebuffer.obj
 0002:00001860       ??_7bad_alloc_@exception_detail@boost@@6Bbad_alloc@std@@@ 00476860     usebuffer.obj
 0002:00001870       ??_7logic_error@std@@6B@   00476870     usebuffer.obj
 0002:00001880       ??_7out_of_range@std@@6B@  00476880     usebuffer.obj
 0002:00001890       ??_7runtime_error@std@@6B@ 00476890     usebuffer.obj
 0002:0000189a       ??_C@_00CNPNBAHC@?$AA@     0047689a     usebuffer.obj
 0002:000018a0       ??_7error_category@system@boost@@6B@ 004768a0     usebuffer.obj
 0002:000018c4       ??_7exception@boost@@6B@   004768c4     usebuffer.obj
 0002:000018d0       ??_7system_error@system@boost@@6B@ 004768d0     usebuffer.obj
 0002:000018e0       ??_7misc_category@detail@error@asio@boost@@6B@ 004768e0     usebuffer.obj
 0002:00001900       ??_C@_09FLGJABBF@asio?4misc?$AA@ 00476900     usebuffer.obj
 0002:0000190c       ??_C@_0N@IIJCFAFG@Already?5open?$AA@ 0047690c     usebuffer.obj
 0002:0000191c       ??_C@_0M@JLKPDLNL@End?5of?5file?$AA@ 0047691c     usebuffer.obj
 0002:0000192c       ??_C@_0BC@PBFILDFO@Element?5not?5found?$AA@ 0047692c     usebuffer.obj
 0002:00001944       ??_C@_0DK@IEHIHFKF@The?5descriptor?5does?5not?5fit?5into@ 00476944     usebuffer.obj
 0002:0000198c       ??_C@_0BA@MDJOCIOE@asio?4misc?5error?$AA@ 0047698c     usebuffer.obj
 0002:000019a4       ??_7sp_counted_base@detail@boost@@6B@ 004769a4     usebuffer.obj
 0002:000019c0       ??_7bad_day_of_month@gregorian@boost@@6B@ 004769c0     usebuffer.obj
 0002:000019cc       ??_C@_0CJ@PIMMHAJE@Day?5of?5month?5value?5is?5out?5of?5ran@ 004769cc     usebuffer.obj
 0002:00001a04       ??_7bad_year@gregorian@boost@@6B@ 00476a04     usebuffer.obj
 0002:00001a10       ??_C@_0CI@JOBANGKK@Year?5is?5out?5of?5valid?5range?3?51400@ 00476a10     usebuffer.obj
 0002:00001a44       ??_7bad_month@gregorian@boost@@6B@ 00476a44     usebuffer.obj
 0002:00001a50       ??_C@_0CD@FBNLMBFL@Month?5number?5is?5out?5of?5range?51?4?4@ 00476a50     usebuffer.obj
 0002:00001a7c       ??_C@_0CD@EKHKOMOM@Day?5of?5month?5is?5not?5valid?5for?5ye@ 00476a7c     usebuffer.obj
 0002:00001aac       ??_7thread_exception@boost@@6B@ 00476aac     usebuffer.obj
 0002:00001abc       ??_7lock_error@boost@@6B@  00476abc     usebuffer.obj
 0002:00001acc       ??_7thread_resource_error@boost@@6B@ 00476acc     usebuffer.obj
 0002:00001ad8       ??_C@_0BN@BEPNICCK@boost?3?3thread_resource_error?$AA@ 00476ad8     usebuffer.obj
 0002:00001afc       ??_C@_0BC@PEAGCMIA@structure_stress_?$AA@ 00476afc     usebuffer.obj
 0002:00001b14       ??_C@_07OEBDDLGC@sensor_?$AA@ 00476b14     usebuffer.obj
 0002:00001b20       ??_C@_06PIAGGHAE@relay_?$AA@ 00476b20     usebuffer.obj
 0002:00001b28       ??_C@_08IDIDFNNN@encoder_?$AA@ 00476b28     usebuffer.obj
 0002:00001b34       ??_C@_07EOJAKONO@Lifter_?$AA@ 00476b34     usebuffer.obj
 0002:00001b40       ??_C@_0M@POOHAONI@yyyyMMdd_hh?$AA@ 00476b40     usebuffer.obj
 0002:00001b50       ??_C@_06OICOKLAD@yyyyMM?$AA@ 00476b50     usebuffer.obj
 0002:00001b58       ??_C@_08CEGGAMNC@yyyyMMdd?$AA@ 00476b58     usebuffer.obj
 0002:00001b64       ??_C@_04PJOLNDGD@data?$AA@ 00476b64     usebuffer.obj
 0002:00001b6c       ??_C@_0O@POCMHONH@device_config?$AA@ 00476b6c     usebuffer.obj
 0002:00001b7c       ??_C@_0O@CGKHODDH@client_config?$AA@ 00476b7c     usebuffer.obj
 0002:00001b8c       ??_C@_01IHBHIGKO@?0?$AA@   00476b8c     usebuffer.obj
 0002:00001b90       ??_C@_0CGD@NFDBNIIB@INSERT?5INTO?5?$GA?$CF1?$GA?4?$GA?$CF2?$GA?5?5?5?5?5?5?5?5?5?5?5@ 00476b90     usebuffer.obj
 0002:00001df4       ??_C@_0DK@NPJNONCO@?f?$JF?$LA?f?$IN?$KO?e?$LK?$JD?e?$KN?$JI?e?$IC?$KI?g?$LK?$LP?g?$KI?$IL?g?$LL?$JD?f?$JN?$JP?0?e?$LM?$IA?e@ 00476df4     mydatabase.obj
 0002:00001e70       ??_C@_0CJE@IDAPKJOB@INSERT?5INTO?5?$GA?$CF1?$GA?4?$GA?$CF2?$GA?5?5?5?5?5?5?5?5?5?5?5@ 00476e70     usebuffer.obj
 0002:00002188       ??_C@_0CEK@KNAKAJKL@INSERT?5INTO?5?$GA?$CF1?$GA?4?$GA?$CF2?$GA?5?5?5?5?5?5?5?5?5?5?5@ 00477188     usebuffer.obj
 0002:00002448       ??_C@_0BID@MJFAEMKO@INSERT?5INTO?5?$GA?$CF1?$GA?4?$GA?$CF2?$GA?5?5?5?5?5?5?5?5?5?5?5@ 00477448     usebuffer.obj
 0002:00002618       ??_C@_0CI@FODPGBLJ@?5REPLACE?5INTO?5?$CF1?4?$CF2?5?$CIid?0config?$CJ?5@ 00477618     usebuffer.obj
 0002:00002648       ??_C@_0DB@HBOGIJKB@?5REPLACE?5INTO?5?$CF1?4?$CF2?5?$CIid?0address?0@ 00477648     usebuffer.obj
 0002:00002684       ??_C@_0BP@NGGGDFMB@boost?5unique_lock?5has?5no?5mutex?$AA@ 00477684     usebuffer.obj
 0002:000026ac       ??_C@_0CJ@JIBGGJPF@boost?5unique_lock?5owns?5already?5t@ 004776ac     usebuffer.obj
 0002:000026e0       ??_C@_0BD@OLBABOEK@vector?$DMT?$DO?5too?5long?$AA@ 004776e0     usebuffer.obj
 0002:000026f8       ??_C@_0BA@JFNIOLAK@string?5too?5long?$AA@ 004776f8     usebuffer.obj
 0002:0000270c       ??_C@_0BI@CFPLBAOH@invalid?5string?5position?$AA@ 0047770c     usebuffer.obj
 0002:0000272c       ??_7?$error_info_injector@Ubad_day_of_month@gregorian@boost@@@exception_detail@boost@@6Bbad_day_of_month@gregorian@2@@ 0047772c     usebuffer.obj
 0002:0000273c       ??_7?$error_info_injector@Ubad_day_of_month@gregorian@boost@@@exception_detail@boost@@6Bexception@2@@ 0047773c     usebuffer.obj
 0002:00002748       ??_7?$clone_impl@U?$error_info_injector@Ubad_day_of_month@gregorian@boost@@@exception_detail@boost@@@exception_detail@boost@@6Bbad_day_of_month@gregorian@2@@ 00477748     usebuffer.obj
 0002:00002758       ??_7?$clone_impl@U?$error_info_injector@Ubad_day_of_month@gregorian@boost@@@exception_detail@boost@@@exception_detail@boost@@6Bexception@2@@ 00477758     usebuffer.obj
 0002:00002764       ??_7?$clone_impl@U?$error_info_injector@Ubad_day_of_month@gregorian@boost@@@exception_detail@boost@@@exception_detail@boost@@6B@ 00477764     usebuffer.obj
 0002:00002774       ??_8?$clone_impl@U?$error_info_injector@Ubad_day_of_month@gregorian@boost@@@exception_detail@boost@@@exception_detail@boost@@7B@ 00477774     usebuffer.obj
 0002:00002784       ??_7?$error_info_injector@Vthread_resource_error@boost@@@exception_detail@boost@@6Bthread_resource_error@2@@ 00477784     usebuffer.obj
 0002:00002794       ??_7?$error_info_injector@Vthread_resource_error@boost@@@exception_detail@boost@@6Bexception@2@@ 00477794     usebuffer.obj
